TN:
SF:/home/liying/sqlcc/include/exception.h
FN:111,111,_ZN5sqlcc13PageExceptionC2ERKNSt7__cxx1112basic_stringIcSt11char_traitsIcESaIcEEE
FN:132,132,_ZN5sqlcc20DiskManagerExceptionC2ERKNSt7__cxx1112basic_stringIcSt11char_traitsIcESaIcEEE
FN:48,48,_ZN5sqlcc9ExceptionC2ERKNSt7__cxx1112basic_stringIcSt11char_traitsIcESaIcEEE
FN:90,90,_ZN5sqlcc19BufferPoolExceptionC2ERKNSt7__cxx1112basic_stringIcSt11char_traitsIcESaIcEEE
FNDA:0,_ZN5sqlcc13PageExceptionC2ERKNSt7__cxx1112basic_stringIcSt11char_traitsIcESaIcEEE
FNDA:0,_ZN5sqlcc20DiskManagerExceptionC2ERKNSt7__cxx1112basic_stringIcSt11char_traitsIcESaIcEEE
FNDA:0,_ZN5sqlcc9ExceptionC2ERKNSt7__cxx1112basic_stringIcSt11char_traitsIcESaIcEEE
FNDA:0,_ZN5sqlcc19BufferPoolExceptionC2ERKNSt7__cxx1112basic_stringIcSt11char_traitsIcESaIcEEE
FNF:4
FNH:0
DA:48,0
DA:90,0
DA:111,0
DA:132,0
LF:4
LH:0
end_of_record
TN:
SF:/home/liying/sqlcc/include/logger.h
FN:135,140,_ZN5sqlcc6Logger5DebugERKNSt7__cxx1112basic_stringIcSt11char_traitsIcESaIcEEE
FN:151,156,_ZN5sqlcc6Logger4InfoERKNSt7__cxx1112basic_stringIcSt11char_traitsIcESaIcEEE
FN:167,172,_ZN5sqlcc6Logger4WarnERKNSt7__cxx1112basic_stringIcSt11char_traitsIcESaIcEEE
FN:183,188,_ZN5sqlcc6Logger5ErrorERKNSt7__cxx1112basic_stringIcSt11char_traitsIcESaIcEEE
FN:198,198,_ZN5sqlcc6LoggerC2Ev
FN:228,307,_ZN5sqlcc6Logger3LogENS_8LogLevelERKNSt7__cxx1112basic_stringIcSt11char_traitsIcESaIcEEE
FN:82,88,_ZN5sqlcc6Logger11GetInstanceEv
FNDA:2199,_ZN5sqlcc6Logger5DebugERKNSt7__cxx1112basic_stringIcSt11char_traitsIcESaIcEEE
FNDA:74,_ZN5sqlcc6Logger4InfoERKNSt7__cxx1112basic_stringIcSt11char_traitsIcESaIcEEE
FNDA:2,_ZN5sqlcc6Logger4WarnERKNSt7__cxx1112basic_stringIcSt11char_traitsIcESaIcEEE
FNDA:0,_ZN5sqlcc6Logger5ErrorERKNSt7__cxx1112basic_stringIcSt11char_traitsIcESaIcEEE
FNDA:1,_ZN5sqlcc6LoggerC2Ev
FNDA:2275,_ZN5sqlcc6Logger3LogENS_8LogLevelERKNSt7__cxx1112basic_stringIcSt11char_traitsIcESaIcEEE
FNDA:2275,_ZN5sqlcc6Logger11GetInstanceEv
FNF:7
FNH:6
DA:82,2275
DA:86,2275
DA:87,2275
DA:135,2199
DA:139,2199
DA:140,2199
DA:151,74
DA:155,74
DA:156,74
DA:167,2
DA:171,2
DA:172,2
DA:183,0
DA:187,0
DA:188,0
DA:198,1
DA:228,2275
DA:233,2275
DA:234,2199
DA:241,76
DA:242,76
DA:243,76
DA:244,152
DA:250,76
DA:251,76
DA:252,76
DA:258,76
DA:259,76
DA:260,0
DA:261,0
DA:262,0
DA:263,74
DA:264,74
DA:265,74
DA:266,2
DA:267,2
DA:268,2
DA:269,0
DA:270,0
DA:271,0
DA:278,152
DA:279,76
DA:285,76
DA:289,0
DA:290,0
DA:295,76
DA:299,0
DA:304,76
DA:307,76
LF:49
LH:37
end_of_record
TN:
SF:/home/liying/sqlcc/include/page.h
FN:59,59,_ZNK5sqlcc4Page9GetPageIdEv
FN:69,69,_ZN5sqlcc4Page9SetPageIdEi
FN:79,79,_ZN5sqlcc4Page7GetDataEv
FN:89,89,_ZNK5sqlcc4Page7GetDataEv
FNDA:110,_ZNK5sqlcc4Page9GetPageIdEv
FNDA:3,_ZN5sqlcc4Page9SetPageIdEi
FNDA:3,_ZN5sqlcc4Page7GetDataEv
FNDA:108,_ZNK5sqlcc4Page7GetDataEv
FNF:4
FNH:4
DA:59,110
DA:69,3
DA:79,3
DA:89,108
LF:4
LH:4
end_of_record
TN:
SF:/home/liying/sqlcc/src/buffer_pool.cc
FN:13,20,_ZN5sqlcc10BufferPoolC2EPNS_11DiskManagerEm
FN:159,216,_ZN5sqlcc10BufferPool9UnpinPageEib
FN:222,278,_ZN5sqlcc10BufferPool9FlushPageEi
FN:26,38,_ZN5sqlcc10BufferPoolD2Ev
FN:284,360,_ZN5sqlcc10BufferPool7NewPageEPi
FN:366,435,_ZN5sqlcc10BufferPool10DeletePageEi
FN:44,153,_ZN5sqlcc10BufferPool9FetchPageEi
FN:441,486,_ZN5sqlcc10BufferPool13FlushAllPagesEv
FN:492,595,_ZN5sqlcc10BufferPool11ReplacePageEv
FN:601,635,_ZN5sqlcc10BufferPool10MoveToHeadEi
FNDA:7,_ZN5sqlcc10BufferPoolC2EPNS_11DiskManagerEm
FNDA:118,_ZN5sqlcc10BufferPool9UnpinPageEib
FNDA:1,_ZN5sqlcc10BufferPool9FlushPageEi
FNDA:7,_ZN5sqlcc10BufferPoolD2Ev
FNDA:109,_ZN5sqlcc10BufferPool7NewPageEPi
FNDA:1,_ZN5sqlcc10BufferPool10DeletePageEi
FNDA:12,_ZN5sqlcc10BufferPool9FetchPageEi
FNDA:8,_ZN5sqlcc10BufferPool13FlushAllPagesEv
FNDA:39,_ZN5sqlcc10BufferPool11ReplacePageEv
FNDA:8,_ZN5sqlcc10BufferPool10MoveToHeadEi
FNF:10
FNH:10
DA:13,7
DA:14,7
DA:19,7
DA:20,7
DA:26,7
DA:31,14
DA:37,7
DA:38,7
DA:44,12
DA:49,12
DA:55,12
DA:56,12
DA:61,8
DA:67,8
DA:70,8
DA:71,8
DA:78,4
DA:84,4
DA:86,6
DA:92,3
DA:93,3
DA:98,0
DA:99,0
DA:100,0
DA:101,0
DA:108,4
DA:114,4
DA:119,1
DA:120,1
DA:127,3
DA:128,3
DA:134,3
DA:140,3
DA:146,3
DA:147,3
DA:150,3
DA:152,3
DA:153,4
DA:159,118
DA:164,118
DA:170,118
DA:171,118
DA:176,0
DA:177,0
DA:178,0
DA:179,0
DA:185,118
DA:186,118
DA:191,0
DA:192,0
DA:193,0
DA:194,0
DA:197,118
DA:203,118
DA:209,118
DA:210,57
DA:212,57
DA:215,118
DA:222,1
DA:227,1
DA:233,1
DA:234,1
DA:239,0
DA:240,0
DA:241,0
DA:242,0
DA:248,1
DA:249,1
DA:251,0
DA:252,0
DA:259,1
DA:264,0
DA:265,0
DA:266,0
DA:267,0
DA:273,1
DA:276,1
DA:277,1
DA:284,109
DA:289,218
DA:295,109
DA:298,109
DA:304,109
DA:306,72
DA:312,36
DA:313,36
DA:318,0
DA:319,0
DA:320,0
DA:321,0
DA:328,109
DA:334,109
DA:335,109
DA:341,109
DA:347,109
DA:353,109
DA:354,109
DA:357,109
DA:359,109
DA:360,109
DA:366,1
DA:371,1
DA:377,1
DA:378,1
DA:383,0
DA:384,0
DA:385,0
DA:386,0
DA:392,1
DA:393,1
DA:398,0
DA:399,0
DA:400,0
DA:401,0
DA:407,1
DA:413,1
DA:419,1
DA:425,1
DA:426,1
DA:427,1
DA:428,1
DA:432,1
DA:434,1
DA:441,8
DA:446,16
DA:452,85
DA:453,77
DA:458,77
DA:459,77
DA:464,68
DA:469,0
DA:470,0
DA:472,0
DA:473,0
DA:478,68
DA:480,68
DA:485,16
DA:486,8
DA:492,39
DA:497,78
DA:503,39
DA:508,39
DA:514,39
DA:515,39
DA:520,0
DA:521,0
DA:522,0
DA:529,39
DA:530,39
DA:535,39
DA:536,39
DA:541,39
DA:542,39
DA:547,0
DA:548,0
DA:550,0
DA:551,0
DA:559,39
DA:565,39
DA:566,39
DA:573,39
DA:574,39
DA:581,39
DA:582,39
DA:585,39
DA:586,39
DA:593,0
DA:594,0
DA:601,8
DA:606,8
DA:607,8
DA:612,0
DA:619,8
DA:625,8
DA:631,8
DA:634,8
LF:176
LH:128
end_of_record
TN:
SF:/home/liying/sqlcc/src/disk_manager.cc
FN:14,61,_ZN5sqlcc11DiskManagerC2ERKNSt7__cxx1112basic_stringIcSt11char_traitsIcESaIcEEE
FN:177,250,_ZN5sqlcc11DiskManager8ReadPageEiPNS_4PageE
FN:256,268,_ZN5sqlcc11DiskManager12AllocatePageEv
FN:274,276,_ZNK5sqlcc11DiskManager11GetFileSizeEv
FN:67,76,_ZN5sqlcc11DiskManagerD2Ev
FN:82,171,_ZN5sqlcc11DiskManager9WritePageERKNS_4PageE
FNDA:7,_ZN5sqlcc11DiskManagerC2ERKNSt7__cxx1112basic_stringIcSt11char_traitsIcESaIcEEE
FNDA:4,_ZN5sqlcc11DiskManager8ReadPageEiPNS_4PageE
FNDA:109,_ZN5sqlcc11DiskManager12AllocatePageEv
FNDA:0,_ZNK5sqlcc11DiskManager11GetFileSizeEv
FNDA:7,_ZN5sqlcc11DiskManagerD2Ev
FNDA:108,_ZN5sqlcc11DiskManager9WritePageERKNS_4PageE
FNF:6
FNH:5
DA:14,7
DA:15,7
DA:20,7
DA:26,7
DA:32,7
DA:33,0
DA:34,0
DA:35,0
DA:42,7
DA:43,7
DA:44,7
DA:49,7
DA:50,7
DA:57,0
DA:58,0
DA:59,0
DA:60,0
DA:61,7
DA:67,7
DA:72,7
DA:73,7
DA:74,7
DA:76,7
DA:82,108
DA:87,108
DA:92,108
DA:93,0
DA:94,0
DA:95,0
DA:96,0
DA:102,108
DA:108,108
DA:114,108
DA:119,108
DA:120,0
DA:121,0
DA:122,0
DA:123,0
DA:124,0
DA:130,108
DA:135,108
DA:136,0
DA:137,0
DA:138,0
DA:139,0
DA:140,0
DA:146,108
DA:147,108
DA:148,44
DA:149,44
DA:156,108
DA:161,108
DA:162,0
DA:163,0
DA:164,0
DA:165,0
DA:166,0
DA:169,108
DA:170,108
DA:177,4
DA:182,4
DA:183,0
DA:184,0
DA:185,0
DA:186,0
DA:192,4
DA:198,4
DA:204,4
DA:205,1
DA:206,1
DA:207,1
DA:208,1
DA:214,3
DA:219,3
DA:220,0
DA:221,0
DA:222,0
DA:223,0
DA:224,0
DA:230,3
DA:235,3
DA:236,0
DA:237,0
DA:238,0
DA:239,0
DA:240,0
DA:246,3
DA:248,3
DA:249,3
DA:256,109
DA:261,109
DA:266,109
DA:267,109
DA:274,0
DA:275,0
LF:95
LH:53
end_of_record
TN:
SF:/home/liying/sqlcc/src/page.cc
FN:12,12,_ZN5sqlcc4PageC2Ev
FN:18,30,_ZN5sqlcc4PageC2Ei
FN:36,42,_ZN5sqlcc4PageD2Ev
FN:48,89,_ZN5sqlcc4Page9WriteDataEmPKcm
FN:95,136,_ZNK5sqlcc4Page8ReadDataEmPcm
FNDA:0,_ZN5sqlcc4PageC2Ev
FNDA:113,_ZN5sqlcc4PageC2Ei
FNDA:113,_ZN5sqlcc4PageD2Ev
FNDA:106,_ZN5sqlcc4Page9WriteDataEmPKcm
FNDA:10,_ZNK5sqlcc4Page8ReadDataEmPcm
FNF:5
FNH:4
DA:12,0
DA:18,113
DA:23,113
DA:29,113
DA:30,113
DA:36,113
DA:41,113
DA:42,113
DA:48,106
DA:53,106
DA:60,106
DA:65,0
DA:66,0
DA:71,0
DA:76,0
DA:77,0
DA:83,106
DA:88,106
DA:89,106
DA:95,10
DA:100,10
DA:107,10
DA:112,0
DA:113,0
DA:118,0
DA:123,0
DA:124,0
DA:130,10
DA:135,10
DA:136,10
LF:30
LH:19
end_of_record
TN:
SF:/home/liying/sqlcc/src/storage_engine.cc
FN:10,35,_ZN5sqlcc13StorageEngineC2ERKNSt7__cxx1112basic_stringIcSt11char_traitsIcESaIcEEEm
FN:111,132,_ZN5sqlcc13StorageEngine9UnpinPageEib
FN:138,159,_ZN5sqlcc13StorageEngine9FlushPageEi
FN:165,186,_ZN5sqlcc13StorageEngine10DeletePageEi
FN:192,208,_ZN5sqlcc13StorageEngine13FlushAllPagesEv
FN:41,51,_ZN5sqlcc13StorageEngineD2Ev
FN:57,78,_ZN5sqlcc13StorageEngine7NewPageEPi
FN:84,105,_ZN5sqlcc13StorageEngine9FetchPageEi
FNDA:7,_ZN5sqlcc13StorageEngineC2ERKNSt7__cxx1112basic_stringIcSt11char_traitsIcESaIcEEEm
FNDA:118,_ZN5sqlcc13StorageEngine9UnpinPageEib
FNDA:1,_ZN5sqlcc13StorageEngine9FlushPageEi
FNDA:1,_ZN5sqlcc13StorageEngine10DeletePageEi
FNDA:1,_ZN5sqlcc13StorageEngine13FlushAllPagesEv
FNDA:7,_ZN5sqlcc13StorageEngineD2Ev
FNDA:109,_ZN5sqlcc13StorageEngine7NewPageEPi
FNDA:12,_ZN5sqlcc13StorageEngine9FetchPageEi
FNF:8
FNH:8
DA:10,7
DA:15,7
DA:22,7
DA:28,7
DA:34,14
DA:35,7
DA:41,7
DA:46,14
DA:51,7
DA:57,109
DA:62,218
DA:67,109
DA:72,109
DA:73,109
DA:75,0
DA:77,109
DA:84,12
DA:89,12
DA:94,12
DA:99,12
DA:100,11
DA:102,1
DA:104,12
DA:111,118
DA:116,118
DA:121,118
DA:126,118
DA:127,118
DA:129,0
DA:131,118
DA:138,1
DA:143,1
DA:148,1
DA:153,1
DA:154,1
DA:156,0
DA:158,1
DA:165,1
DA:170,1
DA:175,1
DA:180,1
DA:181,1
DA:183,0
DA:185,1
DA:192,1
DA:197,2
DA:202,1
DA:207,2
DA:208,1
LF:49
LH:45
end_of_record
TN:
SF:/home/liying/sqlcc/tests/storage_engine_test.cc
FN:103,103,_ZN36StorageEngineTest_FlushAllPages_Test8TestBodyEv
FN:103,103,_ZN36StorageEngineTest_FlushAllPages_TestC2Ev
FN:103,103,_ZN36StorageEngineTest_FlushAllPages_TestD0Ev
FN:103,103,_ZN36StorageEngineTest_FlushAllPages_TestD2Ev
FN:11,14,_ZN17StorageEngineTest5SetUpEv
FN:129,129,_ZN41StorageEngineTest_ManyPagesOperation_Test8TestBodyEv
FN:129,129,_ZN41StorageEngineTest_ManyPagesOperation_TestC2Ev
FN:129,129,_ZN41StorageEngineTest_ManyPagesOperation_TestD0Ev
FN:129,129,_ZN41StorageEngineTest_ManyPagesOperation_TestD2Ev
FN:16,19,_ZN17StorageEngineTest8TearDownEv
FN:165,168,main
FN:23,23,_ZN46StorageEngineTest_InitializeStorageEngine_Test8TestBodyEv
FN:23,23,_ZN46StorageEngineTest_InitializeStorageEngine_TestC2Ev
FN:23,23,_ZN46StorageEngineTest_InitializeStorageEngine_TestD0Ev
FN:23,23,_ZN46StorageEngineTest_InitializeStorageEngine_TestD2Ev
FN:33,33,_ZN36StorageEngineTest_CreateNewPage_Test8TestBodyEv
FN:33,33,_ZN36StorageEngineTest_CreateNewPage_TestC2Ev
FN:33,33,_ZN36StorageEngineTest_CreateNewPage_TestD0Ev
FN:33,33,_ZN36StorageEngineTest_CreateNewPage_TestD2Ev
FN:45,45,_ZN32StorageEngineTest_FetchPage_Test8TestBodyEv
FN:45,45,_ZN32StorageEngineTest_FetchPage_TestC2Ev
FN:45,45,_ZN32StorageEngineTest_FetchPage_TestD0Ev
FN:45,45,_ZN32StorageEngineTest_FetchPage_TestD2Ev
FN:63,63,_ZN32StorageEngineTest_FlushPage_Test8TestBodyEv
FN:63,63,_ZN32StorageEngineTest_FlushPage_TestC2Ev
FN:63,63,_ZN32StorageEngineTest_FlushPage_TestD0Ev
FN:63,63,_ZN32StorageEngineTest_FlushPage_TestD2Ev
FN:83,83,_ZN33StorageEngineTest_DeletePage_Test8TestBodyEv
FN:83,83,_ZN33StorageEngineTest_DeletePage_TestC2Ev
FN:83,83,_ZN33StorageEngineTest_DeletePage_TestD0Ev
FN:83,83,_ZN33StorageEngineTest_DeletePage_TestD2Ev
FNDA:1,_ZN36StorageEngineTest_FlushAllPages_Test8TestBodyEv
FNDA:1,_ZN36StorageEngineTest_FlushAllPages_TestC2Ev
FNDA:1,_ZN36StorageEngineTest_FlushAllPages_TestD0Ev
FNDA:1,_ZN36StorageEngineTest_FlushAllPages_TestD2Ev
FNDA:7,_ZN17StorageEngineTest5SetUpEv
FNDA:1,_ZN41StorageEngineTest_ManyPagesOperation_Test8TestBodyEv
FNDA:1,_ZN41StorageEngineTest_ManyPagesOperation_TestC2Ev
FNDA:1,_ZN41StorageEngineTest_ManyPagesOperation_TestD0Ev
FNDA:1,_ZN41StorageEngineTest_ManyPagesOperation_TestD2Ev
FNDA:7,_ZN17StorageEngineTest8TearDownEv
FNDA:1,main
FNDA:1,_ZN46StorageEngineTest_InitializeStorageEngine_Test8TestBodyEv
FNDA:1,_ZN46StorageEngineTest_InitializeStorageEngine_TestC2Ev
FNDA:1,_ZN46StorageEngineTest_InitializeStorageEngine_TestD0Ev
FNDA:1,_ZN46StorageEngineTest_InitializeStorageEngine_TestD2Ev
FNDA:1,_ZN36StorageEngineTest_CreateNewPage_Test8TestBodyEv
FNDA:1,_ZN36StorageEngineTest_CreateNewPage_TestC2Ev
FNDA:1,_ZN36StorageEngineTest_CreateNewPage_TestD0Ev
FNDA:1,_ZN36StorageEngineTest_CreateNewPage_TestD2Ev
FNDA:1,_ZN32StorageEngineTest_FetchPage_Test8TestBodyEv
FNDA:1,_ZN32StorageEngineTest_FetchPage_TestC2Ev
FNDA:1,_ZN32StorageEngineTest_FetchPage_TestD0Ev
FNDA:1,_ZN32StorageEngineTest_FetchPage_TestD2Ev
FNDA:1,_ZN32StorageEngineTest_FlushPage_Test8TestBodyEv
FNDA:1,_ZN32StorageEngineTest_FlushPage_TestC2Ev
FNDA:1,_ZN32StorageEngineTest_FlushPage_TestD0Ev
FNDA:1,_ZN32StorageEngineTest_FlushPage_TestD2Ev
FNDA:1,_ZN33StorageEngineTest_DeletePage_Test8TestBodyEv
FNDA:1,_ZN33StorageEngineTest_DeletePage_TestC2Ev
FNDA:1,_ZN33StorageEngineTest_DeletePage_TestD0Ev
FNDA:1,_ZN33StorageEngineTest_DeletePage_TestD2Ev
FNF:31
FNH:31
DA:11,7
DA:13,7
DA:14,7
DA:16,7
DA:18,7
DA:19,7
DA:23,4
DA:24,1
DA:26,1
DA:29,1
DA:30,1
DA:33,4
DA:34,1
DA:37,1
DA:39,1
DA:40,1
DA:41,1
DA:42,1
DA:45,4
DA:46,1
DA:50,1
DA:51,1
DA:54,1
DA:57,1
DA:58,1
DA:59,1
DA:60,1
DA:63,4
DA:64,1
DA:68,1
DA:69,1
DA:72,1
DA:73,1
DA:76,1
DA:79,1
DA:80,1
DA:83,4
DA:84,1
DA:88,1
DA:89,1
DA:92,1
DA:95,1
DA:98,1
DA:99,1
DA:100,1
DA:103,4
DA:104,1
DA:105,1
DA:109,6
DA:110,5
DA:111,5
DA:115,5
DA:116,5
DA:119,5
DA:123,1
DA:125,1
DA:126,1
DA:129,4
DA:130,1
DA:131,1
DA:132,1
DA:135,101
DA:137,100
DA:138,100
DA:139,100
DA:142,100
DA:145,100
DA:149,11
DA:150,10
DA:151,10
DA:153,10
DA:154,10
DA:157,10
DA:158,10
DA:161,10
DA:163,1
DA:165,1
DA:166,1
DA:167,1
LF:79
LH:79
end_of_record
