TN:
SF:/home/liying/sqlcc/include/exception.h
FN:111,111,_ZN5sqlcc13PageExceptionC2ERKNSt7__cxx1112basic_stringIcSt11char_traitsIcESaIcEEE
FN:132,132,_ZN5sqlcc20DiskManagerExceptionC2ERKNSt7__cxx1112basic_stringIcSt11char_traitsIcESaIcEEE
FN:48,48,_ZN5sqlcc9ExceptionC2ERKNSt7__cxx1112basic_stringIcSt11char_traitsIcESaIcEEE
FN:90,90,_ZN5sqlcc19BufferPoolExceptionC2ERKNSt7__cxx1112basic_stringIcSt11char_traitsIcESaIcEEE
FNDA:0,_ZN5sqlcc13PageExceptionC2ERKNSt7__cxx1112basic_stringIcSt11char_traitsIcESaIcEEE
FNDA:0,_ZN5sqlcc20DiskManagerExceptionC2ERKNSt7__cxx1112basic_stringIcSt11char_traitsIcESaIcEEE
FNDA:0,_ZN5sqlcc9ExceptionC2ERKNSt7__cxx1112basic_stringIcSt11char_traitsIcESaIcEEE
FNDA:0,_ZN5sqlcc19BufferPoolExceptionC2ERKNSt7__cxx1112basic_stringIcSt11char_traitsIcESaIcEEE
FNF:4
FNH:0
DA:48,0
DA:90,0
DA:111,0
DA:132,0
LF:4
LH:0
end_of_record
TN:
SF:/home/liying/sqlcc/include/logger.h
FN:135,140,_ZN5sqlcc6Logger5DebugERKNSt7__cxx1112basic_stringIcSt11char_traitsIcESaIcEEE
FN:151,156,_ZN5sqlcc6Logger4InfoERKNSt7__cxx1112basic_stringIcSt11char_traitsIcESaIcEEE
FN:167,172,_ZN5sqlcc6Logger4WarnERKNSt7__cxx1112basic_stringIcSt11char_traitsIcESaIcEEE
FN:183,188,_ZN5sqlcc6Logger5ErrorERKNSt7__cxx1112basic_stringIcSt11char_traitsIcESaIcEEE
FN:198,198,_ZN5sqlcc6LoggerC2Ev
FN:228,307,_ZN5sqlcc6Logger3LogENS_8LogLevelERKNSt7__cxx1112basic_stringIcSt11char_traitsIcESaIcEEE
FN:82,88,_ZN5sqlcc6Logger11GetInstanceEv
FNDA:2199,_ZN5sqlcc6Logger5DebugERKNSt7__cxx1112basic_stringIcSt11char_traitsIcESaIcEEE
FNDA:74,_ZN5sqlcc6Logger4InfoERKNSt7__cxx1112basic_stringIcSt11char_traitsIcESaIcEEE
FNDA:2,_ZN5sqlcc6Logger4WarnERKNSt7__cxx1112basic_stringIcSt11char_traitsIcESaIcEEE
FNDA:0,_ZN5sqlcc6Logger5ErrorERKNSt7__cxx1112basic_stringIcSt11char_traitsIcESaIcEEE
FNDA:1,_ZN5sqlcc6LoggerC2Ev
FNDA:2275,_ZN5sqlcc6Logger3LogENS_8LogLevelERKNSt7__cxx1112basic_stringIcSt11char_traitsIcESaIcEEE
FNDA:2275,_ZN5sqlcc6Logger11GetInstanceEv
FNF:7
FNH:6
DA:82,2275
DA:86,2275
DA:87,2275
DA:135,2199
DA:139,2199
DA:140,2199
DA:151,74
DA:155,74
DA:156,74
DA:167,2
DA:171,2
DA:172,2
DA:183,0
DA:187,0
DA:188,0
DA:198,1
DA:228,2275
DA:233,2275
DA:234,2199
DA:241,76
DA:242,76
DA:243,76
DA:244,152
DA:250,76
DA:251,76
DA:252,76
DA:258,76
DA:259,76
DA:260,0
DA:261,0
DA:262,0
DA:263,74
DA:264,74
DA:265,74
DA:266,2
DA:267,2
DA:268,2
DA:269,0
DA:270,0
DA:271,0
DA:278,152
DA:279,76
DA:285,76
DA:289,0
DA:290,0
DA:295,76
DA:299,0
DA:304,76
DA:307,76
LF:49
LH:37
end_of_record
TN:
SF:/home/liying/sqlcc/include/page.h
FN:59,59,_ZNK5sqlcc4Page9GetPageIdEv
FN:69,69,_ZN5sqlcc4Page9SetPageIdEi
FN:79,79,_ZN5sqlcc4Page7GetDataEv
FN:89,89,_ZNK5sqlcc4Page7GetDataEv
FNDA:110,_ZNK5sqlcc4Page9GetPageIdEv
FNDA:3,_ZN5sqlcc4Page9SetPageIdEi
FNDA:3,_ZN5sqlcc4Page7GetDataEv
FNDA:108,_ZNK5sqlcc4Page7GetDataEv
FNF:4
FNH:4
DA:59,110
DA:69,3
DA:79,3
DA:89,108
LF:4
LH:4
end_of_record
TN:
SF:/home/liying/sqlcc/src/buffer_pool.cc
FN:13,20,_ZN5sqlcc10BufferPoolC2EPNS_11DiskManagerEm
FN:159,216,_ZN5sqlcc10BufferPool9UnpinPageEib
FN:222,278,_ZN5sqlcc10BufferPool9FlushPageEi
FN:26,38,_ZN5sqlcc10BufferPoolD2Ev
FN:284,360,_ZN5sqlcc10BufferPool7NewPageEPi
FN:366,435,_ZN5sqlcc10BufferPool10DeletePageEi
FN:44,153,_ZN5sqlcc10BufferPool9FetchPageEi
FN:441,486,_ZN5sqlcc10BufferPool13FlushAllPagesEv
FN:492,595,_ZN5sqlcc10BufferPool11ReplacePageEv
FN:601,635,_ZN5sqlcc10BufferPool10MoveToHeadEi
FNDA:7,_ZN5sqlcc10BufferPoolC2EPNS_11DiskManagerEm
FNDA:118,_ZN5sqlcc10BufferPool9UnpinPageEib
FNDA:1,_ZN5sqlcc10BufferPool9FlushPageEi
FNDA:7,_ZN5sqlcc10BufferPoolD2Ev
FNDA:109,_ZN5sqlcc10BufferPool7NewPageEPi
FNDA:1,_ZN5sqlcc10BufferPool10DeletePageEi
FNDA:12,_ZN5sqlcc10BufferPool9FetchPageEi
FNDA:8,_ZN5sqlcc10BufferPool13FlushAllPagesEv
FNDA:39,_ZN5sqlcc10BufferPool11ReplacePageEv
FNDA:8,_ZN5sqlcc10BufferPool10MoveToHeadEi
FNF:10
FNH:10
DA:13,7
DA:14,7
DA:19,7
DA:20,7
DA:26,7
DA:31,14
DA:37,7
DA:38,7
DA:44,12
DA:49,12
DA:55,12
DA:56,12
DA:61,8
DA:67,8
DA:70,8
DA:71,8
DA:78,4
DA:84,4
DA:86,6
DA:92,3
DA:93,3
DA:98,0
DA:99,0
DA:100,0
DA:101,0
DA:108,4
DA:114,4
DA:119,1
DA:120,1
DA:127,3
DA:128,3
DA:134,3
DA:140,3
DA:146,3
DA:147,3
DA:150,3
DA:152,3
DA:153,4
DA:159,118
DA:164,118
DA:170,118
DA:171,118
DA:176,0
DA:177,0
DA:178,0
DA:179,0
DA:185,118
DA:186,118
DA:191,0
DA:192,0
DA:193,0
DA:194,0
DA:197,118
DA:203,118
DA:209,118
DA:210,57
DA:212,57
DA:215,118
DA:222,1
DA:227,1
DA:233,1
DA:234,1
DA:239,0
DA:240,0
DA:241,0
DA:242,0
DA:248,1
DA:249,1
DA:251,0
DA:252,0
DA:259,1
DA:264,0
DA:265,0
DA:266,0
DA:267,0
DA:273,1
DA:276,1
DA:277,1
DA:284,109
DA:289,218
DA:295,109
DA:298,109
DA:304,109
DA:306,72
DA:312,36
DA:313,36
DA:318,0
DA:319,0
DA:320,0
DA:321,0
DA:328,109
DA:334,109
DA:335,109
DA:341,109
DA:347,109
DA:353,109
DA:354,109
DA:357,109
DA:359,109
DA:360,109
DA:366,1
DA:371,1
DA:377,1
DA:378,1
DA:383,0
DA:384,0
DA:385,0
DA:386,0
DA:392,1
DA:393,1
DA:398,0
DA:399,0
DA:400,0
DA:401,0
DA:407,1
DA:413,1
DA:419,1
DA:425,1
DA:426,1
DA:427,1
DA:428,1
DA:432,1
DA:434,1
DA:441,8
DA:446,16
DA:452,85
DA:453,77
DA:458,77
DA:459,77
DA:464,68
DA:469,0
DA:470,0
DA:472,0
DA:473,0
DA:478,68
DA:480,68
DA:485,16
DA:486,8
DA:492,39
DA:497,78
DA:503,39
DA:508,39
DA:514,39
DA:515,39
DA:520,0
DA:521,0
DA:522,0
DA:529,39
DA:530,39
DA:535,39
DA:536,39
DA:541,39
DA:542,39
DA:547,0
DA:548,0
DA:550,0
DA:551,0
DA:559,39
DA:565,39
DA:566,39
DA:573,39
DA:574,39
DA:581,39
DA:582,39
DA:585,39
DA:586,39
DA:593,0
DA:594,0
DA:601,8
DA:606,8
DA:607,8
DA:612,0
DA:619,8
DA:625,8
DA:631,8
DA:634,8
LF:176
LH:128
end_of_record
TN:
SF:/home/liying/sqlcc/src/disk_manager.cc
FN:14,61,_ZN5sqlcc11DiskManagerC2ERKNSt7__cxx1112basic_stringIcSt11char_traitsIcESaIcEEE
FN:177,250,_ZN5sqlcc11DiskManager8ReadPageEiPNS_4PageE
FN:256,268,_ZN5sqlcc11DiskManager12AllocatePageEv
FN:274,276,_ZNK5sqlcc11DiskManager11GetFileSizeEv
FN:67,76,_ZN5sqlcc11DiskManagerD2Ev
FN:82,171,_ZN5sqlcc11DiskManager9WritePageERKNS_4PageE
FNDA:7,_ZN5sqlcc11DiskManagerC2ERKNSt7__cxx1112basic_stringIcSt11char_traitsIcESaIcEEE
FNDA:4,_ZN5sqlcc11DiskManager8ReadPageEiPNS_4PageE
FNDA:109,_ZN5sqlcc11DiskManager12AllocatePageEv
FNDA:0,_ZNK5sqlcc11DiskManager11GetFileSizeEv
FNDA:7,_ZN5sqlcc11DiskManagerD2Ev
FNDA:108,_ZN5sqlcc11DiskManager9WritePageERKNS_4PageE
FNF:6
FNH:5
DA:14,7
DA:15,7
DA:20,7
DA:26,7
DA:32,7
DA:33,0
DA:34,0
DA:35,0
DA:42,7
DA:43,7
DA:44,7
DA:49,7
DA:50,7
DA:57,0
DA:58,0
DA:59,0
DA:60,0
DA:61,7
DA:67,7
DA:72,7
DA:73,7
DA:74,7
DA:76,7
DA:82,108
DA:87,108
DA:92,108
DA:93,0
DA:94,0
DA:95,0
DA:96,0
DA:102,108
DA:108,108
DA:114,108
DA:119,108
DA:120,0
DA:121,0
DA:122,0
DA:123,0
DA:124,0
DA:130,108
DA:135,108
DA:136,0
DA:137,0
DA:138,0
DA:139,0
DA:140,0
DA:146,108
DA:147,108
DA:148,44
DA:149,44
DA:156,108
DA:161,108
DA:162,0
DA:163,0
DA:164,0
DA:165,0
DA:166,0
DA:169,108
DA:170,108
DA:177,4
DA:182,4
DA:183,0
DA:184,0
DA:185,0
DA:186,0
DA:192,4
DA:198,4
DA:204,4
DA:205,1
DA:206,1
DA:207,1
DA:208,1
DA:214,3
DA:219,3
DA:220,0
DA:221,0
DA:222,0
DA:223,0
DA:224,0
DA:230,3
DA:235,3
DA:236,0
DA:237,0
DA:238,0
DA:239,0
DA:240,0
DA:246,3
DA:248,3
DA:249,3
DA:256,109
DA:261,109
DA:266,109
DA:267,109
DA:274,0
DA:275,0
LF:95
LH:53
end_of_record
TN:
SF:/home/liying/sqlcc/src/page.cc
FN:12,12,_ZN5sqlcc4PageC2Ev
FN:18,30,_ZN5sqlcc4PageC2Ei
FN:36,42,_ZN5sqlcc4PageD2Ev
FN:48,89,_ZN5sqlcc4Page9WriteDataEmPKcm
FN:95,136,_ZNK5sqlcc4Page8ReadDataEmPcm
FNDA:0,_ZN5sqlcc4PageC2Ev
FNDA:113,_ZN5sqlcc4PageC2Ei
FNDA:113,_ZN5sqlcc4PageD2Ev
FNDA:106,_ZN5sqlcc4Page9WriteDataEmPKcm
FNDA:10,_ZNK5sqlcc4Page8ReadDataEmPcm
FNF:5
FNH:4
DA:12,0
DA:18,113
DA:23,113
DA:29,113
DA:30,113
DA:36,113
DA:41,113
DA:42,113
DA:48,106
DA:53,106
DA:60,106
DA:65,0
DA:66,0
DA:71,0
DA:76,0
DA:77,0
DA:83,106
DA:88,106
DA:89,106
DA:95,10
DA:100,10
DA:107,10
DA:112,0
DA:113,0
DA:118,0
DA:123,0
DA:124,0
DA:130,10
DA:135,10
DA:136,10
LF:30
LH:19
end_of_record
TN:
SF:/home/liying/sqlcc/src/storage_engine.cc
FN:10,35,_ZN5sqlcc13StorageEngineC2ERKNSt7__cxx1112basic_stringIcSt11char_traitsIcESaIcEEEm
FN:111,132,_ZN5sqlcc13StorageEngine9UnpinPageEib
FN:138,159,_ZN5sqlcc13StorageEngine9FlushPageEi
FN:165,186,_ZN5sqlcc13StorageEngine10DeletePageEi
FN:192,208,_ZN5sqlcc13StorageEngine13FlushAllPagesEv
FN:41,51,_ZN5sqlcc13StorageEngineD2Ev
FN:57,78,_ZN5sqlcc13StorageEngine7NewPageEPi
FN:84,105,_ZN5sqlcc13StorageEngine9FetchPageEi
FNDA:7,_ZN5sqlcc13StorageEngineC2ERKNSt7__cxx1112basic_stringIcSt11char_traitsIcESaIcEEEm
FNDA:118,_ZN5sqlcc13StorageEngine9UnpinPageEib
FNDA:1,_ZN5sqlcc13StorageEngine9FlushPageEi
FNDA:1,_ZN5sqlcc13StorageEngine10DeletePageEi
FNDA:1,_ZN5sqlcc13StorageEngine13FlushAllPagesEv
FNDA:7,_ZN5sqlcc13StorageEngineD2Ev
FNDA:109,_ZN5sqlcc13StorageEngine7NewPageEPi
FNDA:12,_ZN5sqlcc13StorageEngine9FetchPageEi
FNF:8
FNH:8
DA:10,7
DA:15,7
DA:22,7
DA:28,7
DA:34,14
DA:35,7
DA:41,7
DA:46,14
DA:51,7
DA:57,109
DA:62,218
DA:67,109
DA:72,109
DA:73,109
DA:75,0
DA:77,109
DA:84,12
DA:89,12
DA:94,12
DA:99,12
DA:100,11
DA:102,1
DA:104,12
DA:111,118
DA:116,118
DA:121,118
DA:126,118
DA:127,118
DA:129,0
DA:131,118
DA:138,1
DA:143,1
DA:148,1
DA:153,1
DA:154,1
DA:156,0
DA:158,1
DA:165,1
DA:170,1
DA:175,1
DA:180,1
DA:181,1
DA:183,0
DA:185,1
DA:192,1
DA:197,2
DA:202,1
DA:207,2
DA:208,1
LF:49
LH:45
end_of_record
TN:
SF:/home/liying/sqlcc/tests/storage_engine_test.cc
FN:103,103,_ZN36StorageEngineTest_FlushAllPages_Test8TestBodyEv
FN:103,103,_ZN36StorageEngineTest_FlushAllPages_TestC2Ev
FN:103,103,_ZN36StorageEngineTest_FlushAllPages_TestD0Ev
FN:103,103,_ZN36StorageEngineTest_FlushAllPages_TestD2Ev
FN:11,14,_ZN17StorageEngineTest5SetUpEv
FN:129,129,_ZN41StorageEngineTest_ManyPagesOperation_Test8TestBodyEv
FN:129,129,_ZN41StorageEngineTest_ManyPagesOperation_TestC2Ev
FN:129,129,_ZN41StorageEngineTest_ManyPagesOperation_TestD0Ev
FN:129,129,_ZN41StorageEngineTest_ManyPagesOperation_TestD2Ev
FN:16,19,_ZN17StorageEngineTest8TearDownEv
FN:165,168,main
FN:23,23,_ZN46StorageEngineTest_InitializeStorageEngine_Test8TestBodyEv
FN:23,23,_ZN46StorageEngineTest_InitializeStorageEngine_TestC2Ev
FN:23,23,_ZN46StorageEngineTest_InitializeStorageEngine_TestD0Ev
FN:23,23,_ZN46StorageEngineTest_InitializeStorageEngine_TestD2Ev
FN:33,33,_ZN36StorageEngineTest_CreateNewPage_Test8TestBodyEv
FN:33,33,_ZN36StorageEngineTest_CreateNewPage_TestC2Ev
FN:33,33,_ZN36StorageEngineTest_CreateNewPage_TestD0Ev
FN:33,33,_ZN36StorageEngineTest_CreateNewPage_TestD2Ev
FN:45,45,_ZN32StorageEngineTest_FetchPage_Test8TestBodyEv
FN:45,45,_ZN32StorageEngineTest_FetchPage_TestC2Ev
FN:45,45,_ZN32StorageEngineTest_FetchPage_TestD0Ev
FN:45,45,_ZN32StorageEngineTest_FetchPage_TestD2Ev
FN:63,63,_ZN32StorageEngineTest_FlushPage_Test8TestBodyEv
FN:63,63,_ZN32StorageEngineTest_FlushPage_TestC2Ev
FN:63,63,_ZN32StorageEngineTest_FlushPage_TestD0Ev
FN:63,63,_ZN32StorageEngineTest_FlushPage_TestD2Ev
FN:83,83,_ZN33StorageEngineTest_DeletePage_Test8TestBodyEv
FN:83,83,_ZN33StorageEngineTest_DeletePage_TestC2Ev
FN:83,83,_ZN33StorageEngineTest_DeletePage_TestD0Ev
FN:83,83,_ZN33StorageEngineTest_DeletePage_TestD2Ev
FNDA:1,_ZN36StorageEngineTest_FlushAllPages_Test8TestBodyEv
FNDA:1,_ZN36StorageEngineTest_FlushAllPages_TestC2Ev
FNDA:1,_ZN36StorageEngineTest_FlushAllPages_TestD0Ev
FNDA:1,_ZN36StorageEngineTest_FlushAllPages_TestD2Ev
FNDA:7,_ZN17StorageEngineTest5SetUpEv
FNDA:1,_ZN41StorageEngineTest_ManyPagesOperation_Test8TestBodyEv
FNDA:1,_ZN41StorageEngineTest_ManyPagesOperation_TestC2Ev
FNDA:1,_ZN41StorageEngineTest_ManyPagesOperation_TestD0Ev
FNDA:1,_ZN41StorageEngineTest_ManyPagesOperation_TestD2Ev
FNDA:7,_ZN17StorageEngineTest8TearDownEv
FNDA:1,main
FNDA:1,_ZN46StorageEngineTest_InitializeStorageEngine_Test8TestBodyEv
FNDA:1,_ZN46StorageEngineTest_InitializeStorageEngine_TestC2Ev
FNDA:1,_ZN46StorageEngineTest_InitializeStorageEngine_TestD0Ev
FNDA:1,_ZN46StorageEngineTest_InitializeStorageEngine_TestD2Ev
FNDA:1,_ZN36StorageEngineTest_CreateNewPage_Test8TestBodyEv
FNDA:1,_ZN36StorageEngineTest_CreateNewPage_TestC2Ev
FNDA:1,_ZN36StorageEngineTest_CreateNewPage_TestD0Ev
FNDA:1,_ZN36StorageEngineTest_CreateNewPage_TestD2Ev
FNDA:1,_ZN32StorageEngineTest_FetchPage_Test8TestBodyEv
FNDA:1,_ZN32StorageEngineTest_FetchPage_TestC2Ev
FNDA:1,_ZN32StorageEngineTest_FetchPage_TestD0Ev
FNDA:1,_ZN32StorageEngineTest_FetchPage_TestD2Ev
FNDA:1,_ZN32StorageEngineTest_FlushPage_Test8TestBodyEv
FNDA:1,_ZN32StorageEngineTest_FlushPage_TestC2Ev
FNDA:1,_ZN32StorageEngineTest_FlushPage_TestD0Ev
FNDA:1,_ZN32StorageEngineTest_FlushPage_TestD2Ev
FNDA:1,_ZN33StorageEngineTest_DeletePage_Test8TestBodyEv
FNDA:1,_ZN33StorageEngineTest_DeletePage_TestC2Ev
FNDA:1,_ZN33StorageEngineTest_DeletePage_TestD0Ev
FNDA:1,_ZN33StorageEngineTest_DeletePage_TestD2Ev
FNF:31
FNH:31
DA:11,7
DA:13,7
DA:14,7
DA:16,7
DA:18,7
DA:19,7
DA:23,4
DA:24,1
DA:26,1
DA:29,1
DA:30,1
DA:33,4
DA:34,1
DA:37,1
DA:39,1
DA:40,1
DA:41,1
DA:42,1
DA:45,4
DA:46,1
DA:50,1
DA:51,1
DA:54,1
DA:57,1
DA:58,1
DA:59,1
DA:60,1
DA:63,4
DA:64,1
DA:68,1
DA:69,1
DA:72,1
DA:73,1
DA:76,1
DA:79,1
DA:80,1
DA:83,4
DA:84,1
DA:88,1
DA:89,1
DA:92,1
DA:95,1
DA:98,1
DA:99,1
DA:100,1
DA:103,4
DA:104,1
DA:105,1
DA:109,6
DA:110,5
DA:111,5
DA:115,5
DA:116,5
DA:119,5
DA:123,1
DA:125,1
DA:126,1
DA:129,4
DA:130,1
DA:131,1
DA:132,1
DA:135,101
DA:137,100
DA:138,100
DA:139,100
DA:142,100
DA:145,100
DA:149,11
DA:150,10
DA:151,10
DA:153,10
DA:154,10
DA:157,10
DA:158,10
DA:161,10
DA:163,1
DA:165,1
DA:166,1
DA:167,1
LF:79
LH:79
end_of_record
TN:
SF:/usr/include/c++/13/bits/alloc_traits.h
FNF:0
FNH:0
DA:482,3862
DA:517,3691
DA:540,668
DA:542,668
DA:560,568
DA:562,568
DA:576,9473
DA:588,42
DA:948,1
DA:949,1
LF:10
LH:10
end_of_record
TN:
SF:/usr/include/c++/13/bits/allocated_ptr.h
FN:53,55,_ZNSt15__allocated_ptrISaISt10_List_nodeIiEEEC2ERS2_PS1_
FN:71,75,_ZNSt15__allocated_ptrISaISt10_List_nodeIiEEED2Ev
FN:79,83,_ZNSt15__allocated_ptrISaISt10_List_nodeIiEEEaSEDn
FNDA:120,_ZNSt15__allocated_ptrISaISt10_List_nodeIiEEEC2ERS2_PS1_
FNDA:120,_ZNSt15__allocated_ptrISaISt10_List_nodeIiEEED2Ev
FNDA:120,_ZNSt15__allocated_ptrISaISt10_List_nodeIiEEEaSEDn
FNF:3
FNH:3
DA:53,120
DA:54,120
DA:55,120
DA:71,120
DA:73,120
DA:74,0
DA:75,120
DA:79,120
DA:81,120
DA:82,120
LF:10
LH:9
end_of_record
TN:
SF:/usr/include/c++/13/bits/allocator.h
FNF:0
FNH:0
DA:163,3094
DA:168,7024
DA:178,72
DA:184,3201
DA:191,3862
DA:193,0
DA:194,0
DA:195,0
DA:198,3862
DA:205,3691
DA:207,0
DA:208,0
DA:210,3691
LF:13
LH:8
end_of_record
TN:
SF:/usr/include/c++/13/bits/basic_string.h
FN:1071,1072,_ZNKSt7__cxx1112basic_stringIcSt11char_traitsIcESaIcEE4sizeEv
FN:1078,1079,_ZNKSt7__cxx1112basic_stringIcSt11char_traitsIcESaIcEE6lengthEv
FN:1084,1085,_ZNKSt7__cxx1112basic_stringIcSt11char_traitsIcESaIcEE8max_sizeEv
FN:1169,1173,_ZNKSt7__cxx1112basic_stringIcSt11char_traitsIcESaIcEE8capacityEv
FN:124,137,_ZNSt7__cxx1112basic_stringIcSt11char_traitsIcESaIcEE11_S_allocateERS3_m
FN:1254,1262,_ZNSt7__cxx1112basic_stringIcSt11char_traitsIcESaIcEEixEm
FN:1366,1367,_ZNSt7__cxx1112basic_stringIcSt11char_traitsIcESaIcEEpLERKS4_
FN:1376,1377,_ZNSt7__cxx1112basic_stringIcSt11char_traitsIcESaIcEEpLEPKc
FN:1424,1425,_ZNSt7__cxx1112basic_stringIcSt11char_traitsIcESaIcEE6appendERKS4_
FN:1455,1460,_ZNSt7__cxx1112basic_stringIcSt11char_traitsIcESaIcEE6appendEPKcm
FN:1469,1475,_ZNSt7__cxx1112basic_stringIcSt11char_traitsIcESaIcEE6appendEPKc
FN:153,154,_ZNSt7__cxx1112basic_stringIcSt11char_traitsIcESaIcEE17_S_to_string_viewESt17basic_string_viewIcS2_E
FN:163,163,_ZNSt7__cxx1112basic_stringIcSt11char_traitsIcESaIcEE12__sv_wrapperC2ESt17basic_string_viewIcS2_E
FN:1681,1686,_ZNSt7__cxx1112basic_stringIcSt11char_traitsIcESaIcEE6assignEPKc
FN:176,177,_ZNSt7__cxx1112basic_stringIcSt11char_traitsIcESaIcEEC2ENS4_12__sv_wrapperERKS3_
FN:188,189,_ZNSt7__cxx1112basic_stringIcSt11char_traitsIcESaIcEE12_Alloc_hiderC1EPcRKS3_
FN:188,189,_ZNSt7__cxx1112basic_stringIcSt11char_traitsIcESaIcEE12_Alloc_hiderC2EPcRKS3_
FN:1894,1896,_ZNSt7__cxx1112basic_stringIcSt11char_traitsIcESaIcEE6insertEmRKS4_
FN:192,193,_ZNSt7__cxx1112basic_stringIcSt11char_traitsIcESaIcEE12_Alloc_hiderC1EPcOS3_
FN:1962,1967,_ZNSt7__cxx1112basic_stringIcSt11char_traitsIcESaIcEE6insertEmPKc
FN:2069,2077,_ZNSt7__cxx1112basic_stringIcSt11char_traitsIcESaIcEE5eraseEmm
FN:212,213,_ZNSt7__cxx1112basic_stringIcSt11char_traitsIcESaIcEE7_M_dataEPc
FN:217,218,_ZNSt7__cxx1112basic_stringIcSt11char_traitsIcESaIcEE9_M_lengthEm
FN:2204,2210,_ZNSt7__cxx1112basic_stringIcSt11char_traitsIcESaIcEE7replaceEmmPKcm
FN:222,223,_ZNKSt7__cxx1112basic_stringIcSt11char_traitsIcESaIcEE7_M_dataEv
FN:2230,2234,_ZNSt7__cxx1112basic_stringIcSt11char_traitsIcESaIcEE7replaceEmmPKc
FN:227,234,_ZNSt7__cxx1112basic_stringIcSt11char_traitsIcESaIcEE13_M_local_dataEv
FN:238,245,_ZNKSt7__cxx1112basic_stringIcSt11char_traitsIcESaIcEE13_M_local_dataEv
FN:249,250,_ZNSt7__cxx1112basic_stringIcSt11char_traitsIcESaIcEE11_M_capacityEm
FN:254,258,_ZNSt7__cxx1112basic_stringIcSt11char_traitsIcESaIcEE13_M_set_lengthEm
FN:2595,2596,_ZNKSt7__cxx1112basic_stringIcSt11char_traitsIcESaIcEE5c_strEv
FN:2608,2609,_ZNKSt7__cxx1112basic_stringIcSt11char_traitsIcESaIcEE4dataEv
FN:262,271,_ZNKSt7__cxx1112basic_stringIcSt11char_traitsIcESaIcEE11_M_is_localEv
FN:2629,2630,_ZNKSt7__cxx1112basic_stringIcSt11char_traitsIcESaIcEE13get_allocatorEv
FN:2695,2699,_ZNKSt7__cxx1112basic_stringIcSt11char_traitsIcESaIcEE4findEPKcm
FN:280,284,_ZNSt7__cxx1112basic_stringIcSt11char_traitsIcESaIcEE10_M_disposeEv
FN:288,289,_ZNSt7__cxx1112basic_stringIcSt11char_traitsIcESaIcEE10_M_destroyEm
FN:336,337,_ZNSt7__cxx1112basic_stringIcSt11char_traitsIcESaIcEE16_M_get_allocatorEv
FN:3383,3394,_ZNKSt7__cxx1112basic_stringIcSt11char_traitsIcESaIcEE7compareEmmPKc
FN:341,342,_ZNKSt7__cxx1112basic_stringIcSt11char_traitsIcESaIcEE16_M_get_allocatorEv
FN:3528,3541,_ZSt12__str_concatINSt7__cxx1112basic_stringIcSt11char_traitsIcESaIcEEEET_PKNS6_10value_typeENS6_9size_typeES9_SA_RKNS6_14allocator_typeE
FN:3571,3579,_ZStplIcSt11char_traitsIcESaIcEENSt7__cxx1112basic_stringIT_T0_T1_EEPKS5_RKS8_
FN:3651,3669,_ZStplIcSt11char_traitsIcESaIcEENSt7__cxx1112basic_stringIT_T0_T1_EEOS8_S9_
FN:3674,3676,_ZStplIcSt11char_traitsIcESaIcEENSt7__cxx1112basic_stringIT_T0_T1_EEPKS5_OS8_
FN:3688,3690,_ZStplIcSt11char_traitsIcESaIcEENSt7__cxx1112basic_stringIT_T0_T1_EEOS8_PKS5_
FN:386,393,_ZNKSt7__cxx1112basic_stringIcSt11char_traitsIcESaIcEE8_M_checkEmPKc
FN:397,401,_ZNKSt7__cxx1112basic_stringIcSt11char_traitsIcESaIcEE15_M_check_lengthEmmPKc
FN:407,411,_ZNKSt7__cxx1112basic_stringIcSt11char_traitsIcESaIcEE8_M_limitEmm
FN:415,419,_ZNKSt7__cxx1112basic_stringIcSt11char_traitsIcESaIcEE11_M_disjunctEPKc
FN:4162,4173,_ZNSt7__cxx119to_stringEi
FN:4204,4212,_ZNSt7__cxx119to_stringEm
FN:425,431,_ZNSt7__cxx1112basic_stringIcSt11char_traitsIcESaIcEE7_S_copyEPcPKcm
FN:435,441,_ZNSt7__cxx1112basic_stringIcSt11char_traitsIcESaIcEE7_S_moveEPcPKcm
FN:445,451,_ZNSt7__cxx1112basic_stringIcSt11char_traitsIcESaIcEE9_S_assignEPcmc
FN:477,478,_ZNSt7__cxx1112basic_stringIcSt11char_traitsIcESaIcEE13_S_copy_charsEPcS5_S5_
FN:482,484,_ZNSt7__cxx1112basic_stringIcSt11char_traitsIcESaIcEE13_S_copy_charsEPcPKcS7_
FN:488,498,_ZNSt7__cxx1112basic_stringIcSt11char_traitsIcESaIcEE10_S_compareEmm
FN:522,528,_ZNSt7__cxx1112basic_stringIcSt11char_traitsIcESaIcEEC1Ev
FN:535,540,_ZNSt7__cxx1112basic_stringIcSt11char_traitsIcESaIcEEC2ERKS3_
FN:547,553,_ZNSt7__cxx1112basic_stringIcSt11char_traitsIcESaIcEEC2ERKS4_
FN:619,628,_ZNSt7__cxx1112basic_stringIcSt11char_traitsIcESaIcEEC2EPKcmRKS3_
FN:641,650,_ZNSt7__cxx1112basic_stringIcSt11char_traitsIcESaIcEEC1IS3_EEPKcRKS3_
FN:641,650,_ZNSt7__cxx1112basic_stringIcSt11char_traitsIcESaIcEEC2IS3_EEPKcRKS3_
FN:664,666,_ZNSt7__cxx1112basic_stringIcSt11char_traitsIcESaIcEEC2IS3_EEmcRKS3_
FN:677,698,_ZNSt7__cxx1112basic_stringIcSt11char_traitsIcESaIcEEC2EOS4_
FN:795,796,_ZNSt7__cxx1112basic_stringIcSt11char_traitsIcESaIcEEC2ISt17basic_string_viewIcS2_EvEERKT_RKS3_
FN:803,804,_ZNSt7__cxx1112basic_stringIcSt11char_traitsIcESaIcEED2Ev
FN:823,824,_ZNSt7__cxx1112basic_stringIcSt11char_traitsIcESaIcEEaSEPKc
FN:944,945,_ZNKSt7__cxx1112basic_stringIcSt11char_traitsIcESaIcEEcvSt17basic_string_viewIcS2_EEv
FNDA:17075,_ZNKSt7__cxx1112basic_stringIcSt11char_traitsIcESaIcEE4sizeEv
FNDA:9809,_ZNKSt7__cxx1112basic_stringIcSt11char_traitsIcESaIcEE6lengthEv
FNDA:9457,_ZNKSt7__cxx1112basic_stringIcSt11char_traitsIcESaIcEE8max_sizeEv
FNDA:8014,_ZNKSt7__cxx1112basic_stringIcSt11char_traitsIcESaIcEE8capacityEv
FNDA:3250,_ZNSt7__cxx1112basic_stringIcSt11char_traitsIcESaIcEE11_S_allocateERS3_m
FNDA:2631,_ZNSt7__cxx1112basic_stringIcSt11char_traitsIcESaIcEEixEm
FNDA:0,_ZNSt7__cxx1112basic_stringIcSt11char_traitsIcESaIcEEpLERKS4_
FNDA:0,_ZNSt7__cxx1112basic_stringIcSt11char_traitsIcESaIcEEpLEPKc
FNDA:719,_ZNSt7__cxx1112basic_stringIcSt11char_traitsIcESaIcEE6appendERKS4_
FNDA:775,_ZNSt7__cxx1112basic_stringIcSt11char_traitsIcESaIcEE6appendEPKcm
FNDA:1189,_ZNSt7__cxx1112basic_stringIcSt11char_traitsIcESaIcEE6appendEPKc
FNDA:15,_ZNSt7__cxx1112basic_stringIcSt11char_traitsIcESaIcEE17_S_to_string_viewESt17basic_string_viewIcS2_E
FNDA:15,_ZNSt7__cxx1112basic_stringIcSt11char_traitsIcESaIcEE12__sv_wrapperC2ESt17basic_string_viewIcS2_E
FNDA:76,_ZNSt7__cxx1112basic_stringIcSt11char_traitsIcESaIcEE6assignEPKc
FNDA:15,_ZNSt7__cxx1112basic_stringIcSt11char_traitsIcESaIcEEC2ENS4_12__sv_wrapperERKS3_
FNDA:0,_ZNSt7__cxx1112basic_stringIcSt11char_traitsIcESaIcEE12_Alloc_hiderC1EPcRKS3_
FNDA:3023,_ZNSt7__cxx1112basic_stringIcSt11char_traitsIcESaIcEE12_Alloc_hiderC2EPcRKS3_
FNDA:0,_ZNSt7__cxx1112basic_stringIcSt11char_traitsIcESaIcEE6insertEmRKS4_
FNDA:3931,_ZNSt7__cxx1112basic_stringIcSt11char_traitsIcESaIcEE12_Alloc_hiderC1EPcOS3_
FNDA:1912,_ZNSt7__cxx1112basic_stringIcSt11char_traitsIcESaIcEE6insertEmPKc
FNDA:0,_ZNSt7__cxx1112basic_stringIcSt11char_traitsIcESaIcEE5eraseEmm
FNDA:10304,_ZNSt7__cxx1112basic_stringIcSt11char_traitsIcESaIcEE7_M_dataEPc
FNDA:15018,_ZNSt7__cxx1112basic_stringIcSt11char_traitsIcESaIcEE9_M_lengthEm
FNDA:1912,_ZNSt7__cxx1112basic_stringIcSt11char_traitsIcESaIcEE7replaceEmmPKcm
FNDA:51206,_ZNKSt7__cxx1112basic_stringIcSt11char_traitsIcESaIcEE7_M_dataEv
FNDA:0,_ZNSt7__cxx1112basic_stringIcSt11char_traitsIcESaIcEE7replaceEmmPKc
FNDA:10793,_ZNSt7__cxx1112basic_stringIcSt11char_traitsIcESaIcEE13_M_local_dataEv
FNDA:21790,_ZNKSt7__cxx1112basic_stringIcSt11char_traitsIcESaIcEE13_M_local_dataEv
FNDA:6465,_ZNSt7__cxx1112basic_stringIcSt11char_traitsIcESaIcEE11_M_capacityEm
FNDA:11179,_ZNSt7__cxx1112basic_stringIcSt11char_traitsIcESaIcEE13_M_set_lengthEm
FNDA:28,_ZNKSt7__cxx1112basic_stringIcSt11char_traitsIcESaIcEE5c_strEv
FNDA:15,_ZNKSt7__cxx1112basic_stringIcSt11char_traitsIcESaIcEE4dataEv
FNDA:21790,_ZNKSt7__cxx1112basic_stringIcSt11char_traitsIcESaIcEE11_M_is_localEv
FNDA:28,_ZNKSt7__cxx1112basic_stringIcSt11char_traitsIcESaIcEE13get_allocatorEv
FNDA:0,_ZNKSt7__cxx1112basic_stringIcSt11char_traitsIcESaIcEE4findEPKcm
FNDA:9937,_ZNSt7__cxx1112basic_stringIcSt11char_traitsIcESaIcEE10_M_disposeEv
FNDA:3079,_ZNSt7__cxx1112basic_stringIcSt11char_traitsIcESaIcEE10_M_destroyEm
FNDA:10168,_ZNSt7__cxx1112basic_stringIcSt11char_traitsIcESaIcEE16_M_get_allocatorEv
FNDA:0,_ZNKSt7__cxx1112basic_stringIcSt11char_traitsIcESaIcEE7compareEmmPKc
FNDA:9499,_ZNKSt7__cxx1112basic_stringIcSt11char_traitsIcESaIcEE16_M_get_allocatorEv
FNDA:28,_ZSt12__str_concatINSt7__cxx1112basic_stringIcSt11char_traitsIcESaIcEEEET_PKNS6_10value_typeENS6_9size_typeES9_SA_RKNS6_14allocator_typeE
FNDA:28,_ZStplIcSt11char_traitsIcESaIcEENSt7__cxx1112basic_stringIT_T0_T1_EEPKS5_RKS8_
FNDA:719,_ZStplIcSt11char_traitsIcESaIcEENSt7__cxx1112basic_stringIT_T0_T1_EEOS8_S9_
FNDA:1912,_ZStplIcSt11char_traitsIcESaIcEENSt7__cxx1112basic_stringIT_T0_T1_EEPKS5_OS8_
FNDA:1189,_ZStplIcSt11char_traitsIcESaIcEENSt7__cxx1112basic_stringIT_T0_T1_EEOS8_PKS5_
FNDA:1912,_ZNKSt7__cxx1112basic_stringIcSt11char_traitsIcESaIcEE8_M_checkEmPKc
FNDA:4190,_ZNKSt7__cxx1112basic_stringIcSt11char_traitsIcESaIcEE15_M_check_lengthEmmPKc
FNDA:1912,_ZNKSt7__cxx1112basic_stringIcSt11char_traitsIcESaIcEE8_M_limitEmm
FNDA:835,_ZNKSt7__cxx1112basic_stringIcSt11char_traitsIcESaIcEE11_M_disjunctEPKc
FNDA:2222,_ZNSt7__cxx119to_stringEi
FNDA:409,_ZNSt7__cxx119to_stringEm
FNDA:7406,_ZNSt7__cxx1112basic_stringIcSt11char_traitsIcESaIcEE7_S_copyEPcPKcm
FNDA:548,_ZNSt7__cxx1112basic_stringIcSt11char_traitsIcESaIcEE7_S_moveEPcPKcm
FNDA:2631,_ZNSt7__cxx1112basic_stringIcSt11char_traitsIcESaIcEE9_S_assignEPcmc
FNDA:14,_ZNSt7__cxx1112basic_stringIcSt11char_traitsIcESaIcEE13_S_copy_charsEPcS5_S5_
FNDA:364,_ZNSt7__cxx1112basic_stringIcSt11char_traitsIcESaIcEE13_S_copy_charsEPcPKcS7_
FNDA:0,_ZNSt7__cxx1112basic_stringIcSt11char_traitsIcESaIcEE10_S_compareEmm
FNDA:78,_ZNSt7__cxx1112basic_stringIcSt11char_traitsIcESaIcEEC1Ev
FNDA:28,_ZNSt7__cxx1112basic_stringIcSt11char_traitsIcESaIcEEC2ERKS3_
FNDA:14,_ZNSt7__cxx1112basic_stringIcSt11char_traitsIcESaIcEEC2ERKS4_
FNDA:15,_ZNSt7__cxx1112basic_stringIcSt11char_traitsIcESaIcEEC2EPKcmRKS3_
FNDA:0,_ZNSt7__cxx1112basic_stringIcSt11char_traitsIcESaIcEEC1IS3_EEPKcRKS3_
FNDA:349,_ZNSt7__cxx1112basic_stringIcSt11char_traitsIcESaIcEEC2IS3_EEPKcRKS3_
FNDA:2631,_ZNSt7__cxx1112basic_stringIcSt11char_traitsIcESaIcEEC2IS3_EEmcRKS3_
FNDA:3839,_ZNSt7__cxx1112basic_stringIcSt11char_traitsIcESaIcEEC2EOS4_
FNDA:15,_ZNSt7__cxx1112basic_stringIcSt11char_traitsIcESaIcEEC2ISt17basic_string_viewIcS2_EvEERKT_RKS3_
FNDA:7095,_ZNSt7__cxx1112basic_stringIcSt11char_traitsIcESaIcEED2Ev
FNDA:76,_ZNSt7__cxx1112basic_stringIcSt11char_traitsIcESaIcEEaSEPKc
FNDA:15,_ZNKSt7__cxx1112basic_stringIcSt11char_traitsIcESaIcEEcvSt17basic_string_viewIcS2_EEv
FNF:69
FNH:59
DA:124,3250
DA:126,3250
DA:136,3250
DA:153,15
DA:154,15
DA:163,15
DA:176,15
DA:177,15
DA:188,3023
DA:189,3023
DA:192,3931
DA:193,3931
DA:212,10304
DA:213,10304
DA:217,15018
DA:218,15018
DA:222,51206
DA:223,51206
DA:227,10793
DA:230,10793
DA:238,21790
DA:241,21790
DA:249,6465
DA:250,6465
DA:254,11179
DA:256,11179
DA:257,11179
DA:258,11179
DA:262,21790
DA:264,21790
DA:266,12456
DA:267,0
DA:268,12456
DA:270,9334
DA:280,9937
DA:282,9937
DA:283,3079
DA:284,9937
DA:288,3079
DA:289,3079
DA:336,10168
DA:337,10168
DA:341,9499
DA:342,9499
DA:351,7158
DA:352,0
DA:353,0
DA:355,7158
DA:365,3839
DA:386,1912
DA:388,1912
DA:389,0
DA:392,1912
DA:397,4190
DA:399,4190
DA:400,0
DA:401,4190
DA:407,1912
DA:409,1912
DA:410,1912
DA:415,835
DA:417,835
DA:418,835
DA:425,7406
DA:427,7406
DA:428,1109
DA:430,6297
DA:431,7406
DA:435,548
DA:437,548
DA:438,93
DA:440,455
DA:441,548
DA:445,2631
DA:447,2631
DA:448,915
DA:450,1716
DA:451,2631
DA:477,14
DA:478,14
DA:482,364
DA:484,364
DA:488,0
DA:490,0
DA:492,0
DA:493,0
DA:494,0
DA:495,0
DA:497,0
DA:522,78
DA:524,234
DA:527,78
DA:528,78
DA:535,28
DA:536,28
DA:539,28
DA:540,28
DA:547,14
DA:548,14
DA:549,14
DA:551,14
DA:553,14
DA:619,15
DA:621,15
DA:624,15
DA:625,0
DA:627,15
DA:628,15
DA:641,349
DA:642,349
DA:645,349
DA:646,0
DA:648,349
DA:649,349
DA:650,349
DA:664,2631
DA:665,2631
DA:666,2631
DA:677,3839
DA:678,3839
DA:680,3839
DA:683,553
DA:684,553
DA:688,3286
DA:689,3286
DA:695,3839
DA:696,3839
DA:697,3839
DA:698,3839
DA:795,15
DA:796,15
DA:803,7095
DA:804,7095
DA:823,76
DA:824,76
DA:944,15
DA:945,15
DA:1071,17075
DA:1072,17075
DA:1078,9809
DA:1079,9809
DA:1084,9457
DA:1085,18914
DA:1169,8014
DA:1171,8014
DA:1172,8014
DA:1254,2631
DA:1258,2631
DA:1261,2631
DA:1366,0
DA:1367,0
DA:1376,0
DA:1377,0
DA:1424,719
DA:1425,719
DA:1455,775
DA:1458,775
DA:1459,775
DA:1469,1189
DA:1472,1189
DA:1473,1189
DA:1474,1189
DA:1681,76
DA:1684,76
DA:1685,76
DA:1894,0
DA:1895,0
DA:1896,0
DA:1962,1912
DA:1965,1912
DA:1966,1912
DA:2069,0
DA:2071,0
DA:2072,0
DA:2073,0
DA:2074,0
DA:2075,0
DA:2076,0
DA:2204,1912
DA:2208,1912
DA:2209,1912
DA:2230,0
DA:2233,0
DA:2595,28
DA:2596,28
DA:2608,15
DA:2609,15
DA:2629,28
DA:2630,56
DA:2695,0
DA:2698,0
DA:3383,0
DA:3386,0
DA:3387,0
DA:3388,0
DA:3389,0
DA:3390,0
DA:3391,0
DA:3392,0
DA:3393,0
DA:3528,28
DA:3536,28
DA:3537,28
DA:3538,28
DA:3539,28
DA:3540,28
DA:3541,0
DA:3571,28
DA:3578,56
DA:3651,719
DA:3656,719
DA:3658,719
DA:3661,719
DA:3664,719
DA:3665,719
DA:3666,0
DA:3668,719
DA:3674,1912
DA:3676,1912
DA:3688,1189
DA:3690,1189
DA:4162,2222
DA:4167,2222
DA:4168,2222
DA:4169,2222
DA:4170,2222
DA:4171,2222
DA:4172,2222
DA:4204,409
DA:4209,409
DA:4210,409
DA:4211,409
DA:4212,0
LF:233
LH:189
end_of_record
TN:
SF:/usr/include/c++/13/bits/basic_string.tcc
FN:138,160,_ZNSt7__cxx1112basic_stringIcSt11char_traitsIcESaIcEE9_M_createERmm
FN:221,252,_ZNSt7__cxx1112basic_stringIcSt11char_traitsIcESaIcEE12_M_constructIPKcEEvT_S8_St20forward_iterator_tag
FN:221,252,_ZNSt7__cxx1112basic_stringIcSt11char_traitsIcESaIcEE12_M_constructIPcEEvT_S7_St20forward_iterator_tag
FN:239,239,_ZZNSt7__cxx1112basic_stringIcSt11char_traitsIcESaIcEE12_M_constructIPKcEEvT_S8_St20forward_iterator_tagEN6_GuardC2EPS4_
FN:239,239,_ZZNSt7__cxx1112basic_stringIcSt11char_traitsIcESaIcEE12_M_constructIPcEEvT_S7_St20forward_iterator_tagEN6_GuardC2EPS4_
FN:242,242,_ZZNSt7__cxx1112basic_stringIcSt11char_traitsIcESaIcEE12_M_constructIPKcEEvT_S8_St20forward_iterator_tagEN6_GuardD2Ev
FN:242,242,_ZZNSt7__cxx1112basic_stringIcSt11char_traitsIcESaIcEE12_M_constructIPcEEvT_S7_St20forward_iterator_tagEN6_GuardD2Ev
FN:257,272,_ZNSt7__cxx1112basic_stringIcSt11char_traitsIcESaIcEE12_M_constructEmc
FN:304,320,_ZNSt7__cxx1112basic_stringIcSt11char_traitsIcESaIcEE7reserveEm
FN:325,345,_ZNSt7__cxx1112basic_stringIcSt11char_traitsIcESaIcEE9_M_mutateEmmPKcm
FN:350,359,_ZNSt7__cxx1112basic_stringIcSt11char_traitsIcESaIcEE8_M_eraseEmm
FN:413,428,_ZNSt7__cxx1112basic_stringIcSt11char_traitsIcESaIcEE9_M_appendEPKcm
FN:511,552,_ZNSt7__cxx1112basic_stringIcSt11char_traitsIcESaIcEE10_M_replaceEmmPKcm
FN:618,650,_ZNKSt7__cxx1112basic_stringIcSt11char_traitsIcESaIcEE4findEPKcmm
FNDA:3250,_ZNSt7__cxx1112basic_stringIcSt11char_traitsIcESaIcEE9_M_createERmm
FNDA:364,_ZNSt7__cxx1112basic_stringIcSt11char_traitsIcESaIcEE12_M_constructIPKcEEvT_S8_St20forward_iterator_tag
FNDA:14,_ZNSt7__cxx1112basic_stringIcSt11char_traitsIcESaIcEE12_M_constructIPcEEvT_S7_St20forward_iterator_tag
FNDA:364,_ZZNSt7__cxx1112basic_stringIcSt11char_traitsIcESaIcEE12_M_constructIPKcEEvT_S8_St20forward_iterator_tagEN6_GuardC2EPS4_
FNDA:14,_ZZNSt7__cxx1112basic_stringIcSt11char_traitsIcESaIcEE12_M_constructIPcEEvT_S7_St20forward_iterator_tagEN6_GuardC2EPS4_
FNDA:364,_ZZNSt7__cxx1112basic_stringIcSt11char_traitsIcESaIcEE12_M_constructIPKcEEvT_S8_St20forward_iterator_tagEN6_GuardD2Ev
FNDA:14,_ZZNSt7__cxx1112basic_stringIcSt11char_traitsIcESaIcEE12_M_constructIPcEEvT_S7_St20forward_iterator_tagEN6_GuardD2Ev
FNDA:2631,_ZNSt7__cxx1112basic_stringIcSt11char_traitsIcESaIcEE12_M_constructEmc
FNDA:273,_ZNSt7__cxx1112basic_stringIcSt11char_traitsIcESaIcEE7reserveEm
FNDA:2573,_ZNSt7__cxx1112basic_stringIcSt11char_traitsIcESaIcEE9_M_mutateEmmPKcm
FNDA:0,_ZNSt7__cxx1112basic_stringIcSt11char_traitsIcESaIcEE8_M_eraseEmm
FNDA:1999,_ZNSt7__cxx1112basic_stringIcSt11char_traitsIcESaIcEE9_M_appendEPKcm
FNDA:2226,_ZNSt7__cxx1112basic_stringIcSt11char_traitsIcESaIcEE10_M_replaceEmmPKcm
FNDA:0,_ZNKSt7__cxx1112basic_stringIcSt11char_traitsIcESaIcEE4findEPKcmm
FNF:14
FNH:12
DA:138,3250
DA:143,3250
DA:144,0
DA:149,3250
DA:151,2017
DA:153,2017
DA:154,0
DA:159,3250
DA:221,378
DA:225,378
DA:227,378
DA:229,349
DA:230,349
DA:239,378
DA:242,378
DA:245,378
DA:247,378
DA:249,378
DA:251,378
DA:252,378
DA:257,2631
DA:260,2631
DA:262,0
DA:263,0
DA:268,2631
DA:269,2631
DA:271,2631
DA:272,2631
DA:304,273
DA:307,273
DA:312,273
DA:313,16
DA:315,257
DA:316,257
DA:317,257
DA:318,257
DA:319,257
DA:325,2573
DA:329,2573
DA:331,2573
DA:332,2573
DA:334,2573
DA:335,1182
DA:336,2573
DA:337,2573
DA:338,2573
DA:339,1364
DA:340,1364
DA:342,2573
DA:343,2573
DA:344,2573
DA:345,2573
DA:350,0
DA:353,0
DA:355,0
DA:356,0
DA:358,0
DA:359,0
DA:413,1999
DA:416,1999
DA:418,1999
DA:420,817
DA:421,817
DA:424,1182
DA:426,1999
DA:427,1999
DA:511,2226
DA:515,2226
DA:517,2226
DA:518,2226
DA:520,2226
DA:522,835
DA:524,835
DA:526,835
DA:528,0
DA:529,0
DA:530,0
DA:531,0
DA:532,0
DA:533,0
DA:537,835
DA:539,835
DA:540,548
DA:541,835
DA:542,835
DA:545,0
DA:548,1391
DA:550,2226
DA:551,2226
DA:618,0
DA:623,0
DA:625,0
DA:626,0
DA:627,0
DA:628,0
DA:630,0
DA:631,0
DA:632,0
DA:633,0
DA:634,0
DA:636,0
DA:639,0
DA:640,0
DA:641,0
DA:645,0
DA:646,0
DA:647,0
DA:649,0
LF:108
LH:72
end_of_record
TN:
SF:/usr/include/c++/13/bits/char_traits.h
FN:136,137,_ZN9__gnu_cxx11char_traitsIcE2eqERKcS3_
FN:199,206,_ZN9__gnu_cxx11char_traitsIcE6lengthEPKc
FN:210,217,_ZN9__gnu_cxx11char_traitsIcE4findEPKcmRS2_
FN:222,248,_ZN9__gnu_cxx11char_traitsIcE4moveEPcPKcm
FN:253,268,_ZN9__gnu_cxx11char_traitsIcE4copyEPcPKcm
FN:273,300,_ZN9__gnu_cxx11char_traitsIcE6assignEPcmc
FN:351,359,_ZNSt11char_traitsIcE6assignERcRKc
FN:366,371,_ZNSt11char_traitsIcE2ltERKcS2_
FN:374,390,_ZNSt11char_traitsIcE7compareEPKcS2_m
FN:393,400,_ZNSt11char_traitsIcE6lengthEPKc
FN:403,412,_ZNSt11char_traitsIcE4findEPKcmRS1_
FN:415,424,_ZNSt11char_traitsIcE4moveEPcPKcm
FN:427,436,_ZNSt11char_traitsIcE4copyEPcPKcm
FN:439,448,_ZNSt11char_traitsIcE6assignEPcmc
FNDA:0,_ZN9__gnu_cxx11char_traitsIcE2eqERKcS3_
FNDA:0,_ZN9__gnu_cxx11char_traitsIcE6lengthEPKc
FNDA:0,_ZN9__gnu_cxx11char_traitsIcE4findEPKcmRS2_
FNDA:0,_ZN9__gnu_cxx11char_traitsIcE4moveEPcPKcm
FNDA:0,_ZN9__gnu_cxx11char_traitsIcE4copyEPcPKcm
FNDA:0,_ZN9__gnu_cxx11char_traitsIcE6assignEPcmc
FNDA:13296,_ZNSt11char_traitsIcE6assignERcRKc
FNDA:0,_ZNSt11char_traitsIcE2ltERKcS2_
FNDA:0,_ZNSt11char_traitsIcE7compareEPKcS2_m
FNDA:3630,_ZNSt11char_traitsIcE6lengthEPKc
FNDA:0,_ZNSt11char_traitsIcE4findEPKcmRS1_
FNDA:455,_ZNSt11char_traitsIcE4moveEPcPKcm
FNDA:6850,_ZNSt11char_traitsIcE4copyEPcPKcm
FNDA:1716,_ZNSt11char_traitsIcE6assignEPcmc
FNF:14
FNH:5
DA:136,0
DA:137,0
DA:199,0
DA:202,0
DA:203,0
DA:204,0
DA:205,0
DA:210,0
DA:213,0
DA:214,0
DA:215,0
DA:216,0
DA:222,0
DA:225,0
DA:226,0
DA:228,0
DA:242,0
DA:243,0
DA:246,0
DA:247,0
DA:253,0
DA:256,0
DA:257,0
DA:259,0
DA:261,0
DA:262,0
DA:263,0
DA:266,0
DA:267,0
DA:273,0
DA:277,0
DA:279,0
DA:280,0
DA:281,0
DA:287,0
DA:290,0
DA:291,0
DA:299,0
DA:351,13296
DA:354,13296
DA:355,0
DA:358,13296
DA:359,13296
DA:366,0
DA:369,0
DA:370,0
DA:374,0
DA:376,0
DA:377,0
DA:379,0
DA:381,0
DA:382,0
DA:383,0
DA:384,0
DA:385,0
DA:386,0
DA:389,0
DA:393,3630
DA:396,3630
DA:397,0
DA:399,3630
DA:403,0
DA:405,0
DA:406,0
DA:408,0
DA:409,0
DA:411,0
DA:415,455
DA:417,455
DA:418,0
DA:420,455
DA:421,0
DA:423,455
DA:427,6850
DA:429,6850
DA:430,0
DA:432,6850
DA:433,0
DA:435,6850
DA:439,1716
DA:441,1716
DA:442,0
DA:444,1716
DA:445,0
DA:447,1716
LF:85
LH:19
end_of_record
TN:
SF:/usr/include/c++/13/bits/charconv.h
FN:55,74,_ZNSt8__detail14__to_chars_lenIjEEjT_i
FN:55,74,_ZNSt8__detail14__to_chars_lenImEEjT_i
FN:81,110,_ZNSt8__detail18__to_chars_10_implIjEEvPcjT_
FN:81,110,_ZNSt8__detail18__to_chars_10_implImEEvPcjT_
FNDA:2222,_ZNSt8__detail14__to_chars_lenIjEEjT_i
FNDA:409,_ZNSt8__detail14__to_chars_lenImEEjT_i
FNDA:2222,_ZNSt8__detail18__to_chars_10_implIjEEvPcjT_
FNDA:409,_ZNSt8__detail18__to_chars_10_implImEEvPcjT_
FNF:4
FNH:4
DA:55,2631
DA:61,2631
DA:62,2631
DA:63,2631
DA:64,2631
DA:67,2775
DA:68,1834
DA:69,150
DA:70,150
DA:71,144
DA:72,144
DA:81,2631
DA:87,2631
DA:93,2631
DA:94,2925
DA:96,294
DA:97,294
DA:98,294
DA:99,294
DA:100,294
DA:102,2631
DA:104,1690
DA:105,1690
DA:106,1690
DA:109,941
DA:110,2631
LF:26
LH:26
end_of_record
TN:
SF:/usr/include/c++/13/bits/chrono.h
FN:1244,1248,_ZNSt6chrono3_V212system_clock9to_time_tERKNS_10time_pointIS1_NS_8durationIlSt5ratioILl1ELl1000000000EEEEEE
FN:208,213,_ZNSt6chrono20__duration_cast_implINS_8durationIlSt5ratioILl1ELl1000EEEES2_ILl1ELl1000000EElLb1ELb0EE6__castIlS2_ILl1ELl1000000000EEEES4_RKNS1_IT_T0_EE
FN:208,213,_ZNSt6chrono20__duration_cast_implINS_8durationIlSt5ratioILl1ELl1EEEES2_ILl1ELl1000000000EElLb1ELb0EE6__castIlS5_EES4_RKNS1_IT_T0_EE
FN:273,291,_ZNSt6chrono13duration_castINS_8durationIlSt5ratioILl1ELl1000EEEElS2_ILl1ELl1000000000EEEENSt9enable_ifIXsrNS_13__is_durationIT_EE5valueES8_E4typeERKNS1_IT0_T1_EE
FN:273,291,_ZNSt6chrono13duration_castINS_8durationIlSt5ratioILl1ELl1EEEElS2_ILl1ELl1000000000EEEENSt9enable_ifIXsrNS_13__is_durationIT_EE5valueES8_E4typeERKNS1_IT0_T1_EE
FN:573,574,_ZNSt6chrono8durationIlSt5ratioILl1ELl1000EEEC2IlvEERKT_
FN:573,574,_ZNSt6chrono8durationIlSt5ratioILl1ELl1EEEC1IlvEERKT_
FN:589,590,_ZNKSt6chrono8durationIlSt5ratioILl1ELl1000000000EEE5countEv
FN:589,590,_ZNKSt6chrono8durationIlSt5ratioILl1ELl1000EEE5countEv
FN:589,590,_ZNKSt6chrono8durationIlSt5ratioILl1ELl1EEE5countEv
FN:779,784,_ZNSt6chronormIlSt5ratioILl1ELl1000EEiEENS_8durationINSt9enable_ifIXsrSt14is_convertibleIRKNS4_IXntsrNS_13__is_durationIT1_EE5valueES7_E4typeENSt11common_typeIJT_SA_EE4typeEE5valueESG_E4typeET0_EERKNS3_ISE_SK_EERKS7_
FN:949,950,_ZNKSt6chrono10time_pointINS_3_V212system_clockENS_8durationIlSt5ratioILl1ELl1000000000EEEEE16time_since_epochEv
FNDA:76,_ZNSt6chrono3_V212system_clock9to_time_tERKNS_10time_pointIS1_NS_8durationIlSt5ratioILl1ELl1000000000EEEEEE
FNDA:76,_ZNSt6chrono20__duration_cast_implINS_8durationIlSt5ratioILl1ELl1000EEEES2_ILl1ELl1000000EElLb1ELb0EE6__castIlS2_ILl1ELl1000000000EEEES4_RKNS1_IT_T0_EE
FNDA:76,_ZNSt6chrono20__duration_cast_implINS_8durationIlSt5ratioILl1ELl1EEEES2_ILl1ELl1000000000EElLb1ELb0EE6__castIlS5_EES4_RKNS1_IT_T0_EE
FNDA:76,_ZNSt6chrono13duration_castINS_8durationIlSt5ratioILl1ELl1000EEEElS2_ILl1ELl1000000000EEEENSt9enable_ifIXsrNS_13__is_durationIT_EE5valueES8_E4typeERKNS1_IT0_T1_EE
FNDA:76,_ZNSt6chrono13duration_castINS_8durationIlSt5ratioILl1ELl1EEEElS2_ILl1ELl1000000000EEEENSt9enable_ifIXsrNS_13__is_durationIT_EE5valueES8_E4typeERKNS1_IT0_T1_EE
FNDA:152,_ZNSt6chrono8durationIlSt5ratioILl1ELl1000EEEC2IlvEERKT_
FNDA:76,_ZNSt6chrono8durationIlSt5ratioILl1ELl1EEEC1IlvEERKT_
FNDA:152,_ZNKSt6chrono8durationIlSt5ratioILl1ELl1000000000EEE5countEv
FNDA:152,_ZNKSt6chrono8durationIlSt5ratioILl1ELl1000EEE5countEv
FNDA:76,_ZNKSt6chrono8durationIlSt5ratioILl1ELl1EEE5countEv
FNDA:76,_ZNSt6chronormIlSt5ratioILl1ELl1000EEiEENS_8durationINSt9enable_ifIXsrSt14is_convertibleIRKNS4_IXntsrNS_13__is_durationIT1_EE5valueES7_E4typeENSt11common_typeIJT_SA_EE4typeEE5valueESG_E4typeET0_EERKNS3_ISE_SK_EERKS7_
FNDA:152,_ZNKSt6chrono10time_pointINS_3_V212system_clockENS_8durationIlSt5ratioILl1ELl1000000000EEEEE16time_since_epochEv
FNF:12
FNH:12
DA:208,152
DA:211,304
DA:212,152
DA:273,152
DA:287,152
DA:573,228
DA:574,228
DA:589,380
DA:590,380
DA:779,76
DA:783,76
DA:949,152
DA:950,152
DA:1244,76
DA:1247,76
LF:15
LH:15
end_of_record
TN:
SF:/usr/include/c++/13/bits/fs_dir.h
FN:77,77,_ZNKSt10filesystem11file_status4typeEv
FNDA:2,_ZNKSt10filesystem11file_status4typeEv
FNF:1
FNH:1
DA:77,2
LF:1
LH:1
end_of_record
TN:
SF:/usr/include/c++/13/bits/fs_ops.h
FN:128,129,_ZNSt10filesystem6existsENS_11file_statusE
FN:133,134,_ZNSt10filesystem6existsERKNS_7__cxx114pathE
FN:363,364,_ZNSt10filesystem12status_knownENS_11file_statusE
FNDA:1,_ZNSt10filesystem6existsENS_11file_statusE
FNDA:1,_ZNSt10filesystem6existsERKNS_7__cxx114pathE
FNDA:1,_ZNSt10filesystem12status_knownENS_11file_statusE
FNF:3
FNH:3
DA:128,1
DA:129,1
DA:133,1
DA:134,1
DA:363,1
DA:364,1
LF:6
LH:6
end_of_record
TN:
SF:/usr/include/c++/13/bits/fs_path.h
FN:183,185,_ZNSt10filesystem7__cxx118__detail17__effective_rangeIcSt11char_traitsIcESaIcEEESt17basic_string_viewIT_S3_IS7_EERKNSt7__cxx1112basic_stringIS7_T0_T1_EE
FN:330,332,_ZNSt10filesystem7__cxx114pathC2INSt7__cxx1112basic_stringIcSt11char_traitsIcESaIcEEES1_EERKT_NS1_6formatE
FN:355,355,_ZNSt10filesystem7__cxx114pathD2Ev
FN:618,633,_ZNSt10filesystem7__cxx114path10_S_convertISt17basic_string_viewIcSt11char_traitsIcEEEEDaT_
FN:689,689,_ZNSt10filesystem7__cxx114path5_ListD2Ev
FNDA:15,_ZNSt10filesystem7__cxx118__detail17__effective_rangeIcSt11char_traitsIcESaIcEEESt17basic_string_viewIT_S3_IS7_EERKNSt7__cxx1112basic_stringIS7_T0_T1_EE
FNDA:15,_ZNSt10filesystem7__cxx114pathC2INSt7__cxx1112basic_stringIcSt11char_traitsIcESaIcEEES1_EERKT_NS1_6formatE
FNDA:15,_ZNSt10filesystem7__cxx114pathD2Ev
FNDA:15,_ZNSt10filesystem7__cxx114path10_S_convertISt17basic_string_viewIcSt11char_traitsIcEEEEDaT_
FNDA:15,_ZNSt10filesystem7__cxx114path5_ListD2Ev
FNF:5
FNH:5
DA:183,15
DA:185,15
DA:330,15
DA:331,30
DA:332,15
DA:355,15
DA:618,15
DA:622,15
DA:689,15
LF:9
LH:9
end_of_record
TN:
SF:/usr/include/c++/13/bits/functional_hash.h
FN:154,154,_ZNKSt4hashIiEclEi
FNDA:2127,_ZNKSt4hashIiEclEi
FNF:1
FNH:1
DA:154,2127
LF:1
LH:1
end_of_record
TN:
SF:/usr/include/c++/13/bits/hashtable.h
FN:1595,1610,_ZNSt10_HashtableIiSt4pairIKiSt10unique_ptrIN5sqlcc4PageESt14default_deleteIS4_EEESaIS8_ENSt8__detail10_Select1stESt8equal_toIiESt4hashIiENSA_18_Mod_range_hashingENSA_20_Default_ranged_hashENSA_20_Prime_rehash_policyENSA_17_Hashtable_traitsILb0ELb0ELb1EEEED2Ev
FN:1595,1610,_ZNSt10_HashtableIiSt4pairIKiSt14_List_iteratorIiEESaIS4_ENSt8__detail10_Select1stESt8equal_toIiESt4hashIiENS6_18_Mod_range_hashingENS6_20_Default_ranged_hashENS6_20_Prime_rehash_policyENS6_17_Hashtable_traitsILb0ELb0ELb1EEEED2Ev
FN:1595,1610,_ZNSt10_HashtableIiSt4pairIKibESaIS2_ENSt8__detail10_Select1stESt8equal_toIiESt4hashIiENS4_18_Mod_range_hashingENS4_20_Default_ranged_hashENS4_20_Prime_rehash_policyENS4_17_Hashtable_traitsILb0ELb0ELb1EEEED2Ev
FN:1595,1610,_ZNSt10_HashtableIiSt4pairIKiiESaIS2_ENSt8__detail10_Select1stESt8equal_toIiESt4hashIiENS4_18_Mod_range_hashingENS4_20_Default_ranged_hashENS4_20_Prime_rehash_policyENS4_17_Hashtable_traitsILb0ELb0ELb1EEEED2Ev
FN:1664,1680,_ZNSt10_HashtableIiSt4pairIKiSt10unique_ptrIN5sqlcc4PageESt14default_deleteIS4_EEESaIS8_ENSt8__detail10_Select1stESt8equal_toIiESt4hashIiENSA_18_Mod_range_hashingENSA_20_Default_ranged_hashENSA_20_Prime_rehash_policyENSA_17_Hashtable_traitsILb0ELb0ELb1EEEE4findERS1_
FN:1664,1680,_ZNSt10_HashtableIiSt4pairIKiSt14_List_iteratorIiEESaIS4_ENSt8__detail10_Select1stESt8equal_toIiESt4hashIiENS6_18_Mod_range_hashingENS6_20_Default_ranged_hashENS6_20_Prime_rehash_policyENS6_17_Hashtable_traitsILb0ELb0ELb1EEEE4findERS1_
FN:1664,1680,_ZNSt10_HashtableIiSt4pairIKibESaIS2_ENSt8__detail10_Select1stESt8equal_toIiESt4hashIiENS4_18_Mod_range_hashingENS4_20_Default_ranged_hashENS4_20_Prime_rehash_policyENS4_17_Hashtable_traitsILb0ELb0ELb1EEEE4findERS1_
FN:1664,1680,_ZNSt10_HashtableIiSt4pairIKiiESaIS2_ENSt8__detail10_Select1stESt8equal_toIiESt4hashIiENS4_18_Mod_range_hashingENS4_20_Default_ranged_hashENS4_20_Prime_rehash_policyENS4_17_Hashtable_traitsILb0ELb0ELb1EEEE4findERS1_
FN:1919,1939,_ZNSt10_HashtableIiSt4pairIKiSt10unique_ptrIN5sqlcc4PageESt14default_deleteIS4_EEESaIS8_ENSt8__detail10_Select1stESt8equal_toIiESt4hashIiENSA_18_Mod_range_hashingENSA_20_Default_ranged_hashENSA_20_Prime_rehash_policyENSA_17_Hashtable_traitsILb0ELb0ELb1EEEE19_M_find_before_nodeERS1_
FN:1919,1939,_ZNSt10_HashtableIiSt4pairIKiSt14_List_iteratorIiEESaIS4_ENSt8__detail10_Select1stESt8equal_toIiESt4hashIiENS6_18_Mod_range_hashingENS6_20_Default_ranged_hashENS6_20_Prime_rehash_policyENS6_17_Hashtable_traitsILb0ELb0ELb1EEEE19_M_find_before_nodeERS1_
FN:1919,1939,_ZNSt10_HashtableIiSt4pairIKibESaIS2_ENSt8__detail10_Select1stESt8equal_toIiESt4hashIiENS4_18_Mod_range_hashingENS4_20_Default_ranged_hashENS4_20_Prime_rehash_policyENS4_17_Hashtable_traitsILb0ELb0ELb1EEEE19_M_find_before_nodeERS1_
FN:1919,1939,_ZNSt10_HashtableIiSt4pairIKiiESaIS2_ENSt8__detail10_Select1stESt8equal_toIiESt4hashIiENS4_18_Mod_range_hashingENS4_20_Default_ranged_hashENS4_20_Prime_rehash_policyENS4_17_Hashtable_traitsILb0ELb0ELb1EEEE19_M_find_before_nodeERS1_
FN:1948,1970,_ZNKSt10_HashtableIiSt4pairIKiSt10unique_ptrIN5sqlcc4PageESt14default_deleteIS4_EEESaIS8_ENSt8__detail10_Select1stESt8equal_toIiESt4hashIiENSA_18_Mod_range_hashingENSA_20_Default_ranged_hashENSA_20_Prime_rehash_policyENSA_17_Hashtable_traitsILb0ELb0ELb1EEEE19_M_find_before_nodeEmRS1_m
FN:1948,1970,_ZNKSt10_HashtableIiSt4pairIKiSt14_List_iteratorIiEESaIS4_ENSt8__detail10_Select1stESt8equal_toIiESt4hashIiENS6_18_Mod_range_hashingENS6_20_Default_ranged_hashENS6_20_Prime_rehash_policyENS6_17_Hashtable_traitsILb0ELb0ELb1EEEE19_M_find_before_nodeEmRS1_m
FN:1948,1970,_ZNKSt10_HashtableIiSt4pairIKibESaIS2_ENSt8__detail10_Select1stESt8equal_toIiESt4hashIiENS4_18_Mod_range_hashingENS4_20_Default_ranged_hashENS4_20_Prime_rehash_policyENS4_17_Hashtable_traitsILb0ELb0ELb1EEEE19_M_find_before_nodeEmRS1_m
FN:1948,1970,_ZNKSt10_HashtableIiSt4pairIKiiESaIS2_ENSt8__detail10_Select1stESt8equal_toIiESt4hashIiENS4_18_Mod_range_hashingENS4_20_Default_ranged_hashENS4_20_Prime_rehash_policyENS4_17_Hashtable_traitsILb0ELb0ELb1EEEE19_M_find_before_nodeEmRS1_m
FN:2007,2033,_ZNSt10_HashtableIiSt4pairIKiSt10unique_ptrIN5sqlcc4PageESt14default_deleteIS4_EEESaIS8_ENSt8__detail10_Select1stESt8equal_toIiESt4hashIiENSA_18_Mod_range_hashingENSA_20_Default_ranged_hashENSA_20_Prime_rehash_policyENSA_17_Hashtable_traitsILb0ELb0ELb1EEEE22_M_insert_bucket_beginEmPNSA_10_Hash_nodeIS8_Lb0EEE
FN:2007,2033,_ZNSt10_HashtableIiSt4pairIKiSt14_List_iteratorIiEESaIS4_ENSt8__detail10_Select1stESt8equal_toIiESt4hashIiENS6_18_Mod_range_hashingENS6_20_Default_ranged_hashENS6_20_Prime_rehash_policyENS6_17_Hashtable_traitsILb0ELb0ELb1EEEE22_M_insert_bucket_beginEmPNS6_10_Hash_nodeIS4_Lb0EEE
FN:2007,2033,_ZNSt10_HashtableIiSt4pairIKibESaIS2_ENSt8__detail10_Select1stESt8equal_toIiESt4hashIiENS4_18_Mod_range_hashingENS4_20_Default_ranged_hashENS4_20_Prime_rehash_policyENS4_17_Hashtable_traitsILb0ELb0ELb1EEEE22_M_insert_bucket_beginEmPNS4_10_Hash_nodeIS2_Lb0EEE
FN:2007,2033,_ZNSt10_HashtableIiSt4pairIKiiESaIS2_ENSt8__detail10_Select1stESt8equal_toIiESt4hashIiENS4_18_Mod_range_hashingENS4_20_Default_ranged_hashENS4_20_Prime_rehash_policyENS4_17_Hashtable_traitsILb0ELb0ELb1EEEE22_M_insert_bucket_beginEmPNS4_10_Hash_nodeIS2_Lb0EEE
FN:2040,2057,_ZNSt10_HashtableIiSt4pairIKiSt10unique_ptrIN5sqlcc4PageESt14default_deleteIS4_EEESaIS8_ENSt8__detail10_Select1stESt8equal_toIiESt4hashIiENSA_18_Mod_range_hashingENSA_20_Default_ranged_hashENSA_20_Prime_rehash_policyENSA_17_Hashtable_traitsILb0ELb0ELb1EEEE22_M_remove_bucket_beginEmPNSA_10_Hash_nodeIS8_Lb0EEEm
FN:2040,2057,_ZNSt10_HashtableIiSt4pairIKiSt14_List_iteratorIiEESaIS4_ENSt8__detail10_Select1stESt8equal_toIiESt4hashIiENS6_18_Mod_range_hashingENS6_20_Default_ranged_hashENS6_20_Prime_rehash_policyENS6_17_Hashtable_traitsILb0ELb0ELb1EEEE22_M_remove_bucket_beginEmPNS6_10_Hash_nodeIS4_Lb0EEEm
FN:2040,2057,_ZNSt10_HashtableIiSt4pairIKibESaIS2_ENSt8__detail10_Select1stESt8equal_toIiESt4hashIiENS4_18_Mod_range_hashingENS4_20_Default_ranged_hashENS4_20_Prime_rehash_policyENS4_17_Hashtable_traitsILb0ELb0ELb1EEEE22_M_remove_bucket_beginEmPNS4_10_Hash_nodeIS2_Lb0EEEm
FN:2040,2057,_ZNSt10_HashtableIiSt4pairIKiiESaIS2_ENSt8__detail10_Select1stESt8equal_toIiESt4hashIiENS4_18_Mod_range_hashingENS4_20_Default_ranged_hashENS4_20_Prime_rehash_policyENS4_17_Hashtable_traitsILb0ELb0ELb1EEEE22_M_remove_bucket_beginEmPNS4_10_Hash_nodeIS2_Lb0EEEm
FN:2064,2073,_ZNSt10_HashtableIiSt4pairIKiSt10unique_ptrIN5sqlcc4PageESt14default_deleteIS4_EEESaIS8_ENSt8__detail10_Select1stESt8equal_toIiESt4hashIiENSA_18_Mod_range_hashingENSA_20_Default_ranged_hashENSA_20_Prime_rehash_policyENSA_17_Hashtable_traitsILb0ELb0ELb1EEEE20_M_get_previous_nodeEmPNSA_10_Hash_nodeIS8_Lb0EEE
FN:2064,2073,_ZNSt10_HashtableIiSt4pairIKiSt14_List_iteratorIiEESaIS4_ENSt8__detail10_Select1stESt8equal_toIiESt4hashIiENS6_18_Mod_range_hashingENS6_20_Default_ranged_hashENS6_20_Prime_rehash_policyENS6_17_Hashtable_traitsILb0ELb0ELb1EEEE20_M_get_previous_nodeEmPNS6_10_Hash_nodeIS4_Lb0EEE
FN:2064,2073,_ZNSt10_HashtableIiSt4pairIKibESaIS2_ENSt8__detail10_Select1stESt8equal_toIiESt4hashIiENS4_18_Mod_range_hashingENS4_20_Default_ranged_hashENS4_20_Prime_rehash_policyENS4_17_Hashtable_traitsILb0ELb0ELb1EEEE20_M_get_previous_nodeEmPNS4_10_Hash_nodeIS2_Lb0EEE
FN:2064,2073,_ZNSt10_HashtableIiSt4pairIKiiESaIS2_ENSt8__detail10_Select1stESt8equal_toIiESt4hashIiENS4_18_Mod_range_hashingENS4_20_Default_ranged_hashENS4_20_Prime_rehash_policyENS4_17_Hashtable_traitsILb0ELb0ELb1EEEE20_M_get_previous_nodeEmPNS4_10_Hash_nodeIS2_Lb0EEE
FN:2166,2189,_ZNSt10_HashtableIiSt4pairIKiSt10unique_ptrIN5sqlcc4PageESt14default_deleteIS4_EEESaIS8_ENSt8__detail10_Select1stESt8equal_toIiESt4hashIiENSA_18_Mod_range_hashingENSA_20_Default_ranged_hashENSA_20_Prime_rehash_policyENSA_17_Hashtable_traitsILb0ELb0ELb1EEEE21_M_insert_unique_nodeEmmPNSA_10_Hash_nodeIS8_Lb0EEEm
FN:2166,2189,_ZNSt10_HashtableIiSt4pairIKiSt14_List_iteratorIiEESaIS4_ENSt8__detail10_Select1stESt8equal_toIiESt4hashIiENS6_18_Mod_range_hashingENS6_20_Default_ranged_hashENS6_20_Prime_rehash_policyENS6_17_Hashtable_traitsILb0ELb0ELb1EEEE21_M_insert_unique_nodeEmmPNS6_10_Hash_nodeIS4_Lb0EEEm
FN:2166,2189,_ZNSt10_HashtableIiSt4pairIKibESaIS2_ENSt8__detail10_Select1stESt8equal_toIiESt4hashIiENS4_18_Mod_range_hashingENS4_20_Default_ranged_hashENS4_20_Prime_rehash_policyENS4_17_Hashtable_traitsILb0ELb0ELb1EEEE21_M_insert_unique_nodeEmmPNS4_10_Hash_nodeIS2_Lb0EEEm
FN:2166,2189,_ZNSt10_HashtableIiSt4pairIKiiESaIS2_ENSt8__detail10_Select1stESt8equal_toIiESt4hashIiENS4_18_Mod_range_hashingENS4_20_Default_ranged_hashENS4_20_Prime_rehash_policyENS4_17_Hashtable_traitsILb0ELb0ELb1EEEE21_M_insert_unique_nodeEmmPNS4_10_Hash_nodeIS2_Lb0EEEm
FN:2316,2329,_ZNSt10_HashtableIiSt4pairIKiSt10unique_ptrIN5sqlcc4PageESt14default_deleteIS4_EEESaIS8_ENSt8__detail10_Select1stESt8equal_toIiESt4hashIiENSA_18_Mod_range_hashingENSA_20_Default_ranged_hashENSA_20_Prime_rehash_policyENSA_17_Hashtable_traitsILb0ELb0ELb1EEEE5eraseENSA_20_Node_const_iteratorIS8_Lb0ELb0EEE
FN:2316,2329,_ZNSt10_HashtableIiSt4pairIKiSt14_List_iteratorIiEESaIS4_ENSt8__detail10_Select1stESt8equal_toIiESt4hashIiENS6_18_Mod_range_hashingENS6_20_Default_ranged_hashENS6_20_Prime_rehash_policyENS6_17_Hashtable_traitsILb0ELb0ELb1EEEE5eraseENS6_20_Node_const_iteratorIS4_Lb0ELb0EEE
FN:2316,2329,_ZNSt10_HashtableIiSt4pairIKibESaIS2_ENSt8__detail10_Select1stESt8equal_toIiESt4hashIiENS4_18_Mod_range_hashingENS4_20_Default_ranged_hashENS4_20_Prime_rehash_policyENS4_17_Hashtable_traitsILb0ELb0ELb1EEEE5eraseENS4_20_Node_const_iteratorIS2_Lb0ELb0EEE
FN:2316,2329,_ZNSt10_HashtableIiSt4pairIKiiESaIS2_ENSt8__detail10_Select1stESt8equal_toIiESt4hashIiENS4_18_Mod_range_hashingENS4_20_Default_ranged_hashENS4_20_Prime_rehash_policyENS4_17_Hashtable_traitsILb0ELb0ELb1EEEE5eraseENS4_20_Node_const_iteratorIS2_Lb0ELb0EEE
FN:2336,2357,_ZNSt10_HashtableIiSt4pairIKiSt10unique_ptrIN5sqlcc4PageESt14default_deleteIS4_EEESaIS8_ENSt8__detail10_Select1stESt8equal_toIiESt4hashIiENSA_18_Mod_range_hashingENSA_20_Default_ranged_hashENSA_20_Prime_rehash_policyENSA_17_Hashtable_traitsILb0ELb0ELb1EEEE8_M_eraseEmPNSA_15_Hash_node_baseEPNSA_10_Hash_nodeIS8_Lb0EEE
FN:2336,2357,_ZNSt10_HashtableIiSt4pairIKiSt14_List_iteratorIiEESaIS4_ENSt8__detail10_Select1stESt8equal_toIiESt4hashIiENS6_18_Mod_range_hashingENS6_20_Default_ranged_hashENS6_20_Prime_rehash_policyENS6_17_Hashtable_traitsILb0ELb0ELb1EEEE8_M_eraseEmPNS6_15_Hash_node_baseEPNS6_10_Hash_nodeIS4_Lb0EEE
FN:2336,2357,_ZNSt10_HashtableIiSt4pairIKibESaIS2_ENSt8__detail10_Select1stESt8equal_toIiESt4hashIiENS4_18_Mod_range_hashingENS4_20_Default_ranged_hashENS4_20_Prime_rehash_policyENS4_17_Hashtable_traitsILb0ELb0ELb1EEEE8_M_eraseEmPNS4_15_Hash_node_baseEPNS4_10_Hash_nodeIS2_Lb0EEE
FN:2336,2357,_ZNSt10_HashtableIiSt4pairIKiiESaIS2_ENSt8__detail10_Select1stESt8equal_toIiESt4hashIiENS4_18_Mod_range_hashingENS4_20_Default_ranged_hashENS4_20_Prime_rehash_policyENS4_17_Hashtable_traitsILb0ELb0ELb1EEEE8_M_eraseEmPNS4_15_Hash_node_baseEPNS4_10_Hash_nodeIS2_Lb0EEE
FN:2364,2398,_ZNSt10_HashtableIiSt4pairIKiSt10unique_ptrIN5sqlcc4PageESt14default_deleteIS4_EEESaIS8_ENSt8__detail10_Select1stESt8equal_toIiESt4hashIiENSA_18_Mod_range_hashingENSA_20_Default_ranged_hashENSA_20_Prime_rehash_policyENSA_17_Hashtable_traitsILb0ELb0ELb1EEEE8_M_eraseESt17integral_constantIbLb1EERS1_
FN:2364,2398,_ZNSt10_HashtableIiSt4pairIKiSt14_List_iteratorIiEESaIS4_ENSt8__detail10_Select1stESt8equal_toIiESt4hashIiENS6_18_Mod_range_hashingENS6_20_Default_ranged_hashENS6_20_Prime_rehash_policyENS6_17_Hashtable_traitsILb0ELb0ELb1EEEE8_M_eraseESt17integral_constantIbLb1EERS1_
FN:2364,2398,_ZNSt10_HashtableIiSt4pairIKibESaIS2_ENSt8__detail10_Select1stESt8equal_toIiESt4hashIiENS4_18_Mod_range_hashingENS4_20_Default_ranged_hashENS4_20_Prime_rehash_policyENS4_17_Hashtable_traitsILb0ELb0ELb1EEEE8_M_eraseESt17integral_constantIbLb1EERS1_
FN:2364,2398,_ZNSt10_HashtableIiSt4pairIKiiESaIS2_ENSt8__detail10_Select1stESt8equal_toIiESt4hashIiENS4_18_Mod_range_hashingENS4_20_Default_ranged_hashENS4_20_Prime_rehash_policyENS4_17_Hashtable_traitsILb0ELb0ELb1EEEE8_M_eraseESt17integral_constantIbLb1EERS1_
FN:2520,2529,_ZNSt10_HashtableIiSt4pairIKiSt10unique_ptrIN5sqlcc4PageESt14default_deleteIS4_EEESaIS8_ENSt8__detail10_Select1stESt8equal_toIiESt4hashIiENSA_18_Mod_range_hashingENSA_20_Default_ranged_hashENSA_20_Prime_rehash_policyENSA_17_Hashtable_traitsILb0ELb0ELb1EEEE5clearEv
FN:2520,2529,_ZNSt10_HashtableIiSt4pairIKiSt14_List_iteratorIiEESaIS4_ENSt8__detail10_Select1stESt8equal_toIiESt4hashIiENS6_18_Mod_range_hashingENS6_20_Default_ranged_hashENS6_20_Prime_rehash_policyENS6_17_Hashtable_traitsILb0ELb0ELb1EEEE5clearEv
FN:2520,2529,_ZNSt10_HashtableIiSt4pairIKibESaIS2_ENSt8__detail10_Select1stESt8equal_toIiESt4hashIiENS4_18_Mod_range_hashingENS4_20_Default_ranged_hashENS4_20_Prime_rehash_policyENS4_17_Hashtable_traitsILb0ELb0ELb1EEEE5clearEv
FN:2520,2529,_ZNSt10_HashtableIiSt4pairIKiiESaIS2_ENSt8__detail10_Select1stESt8equal_toIiESt4hashIiENS4_18_Mod_range_hashingENS4_20_Default_ranged_hashENS4_20_Prime_rehash_policyENS4_17_Hashtable_traitsILb0ELb0ELb1EEEE5clearEv
FN:2559,2574,_ZNSt10_HashtableIiSt4pairIKiSt10unique_ptrIN5sqlcc4PageESt14default_deleteIS4_EEESaIS8_ENSt8__detail10_Select1stESt8equal_toIiESt4hashIiENSA_18_Mod_range_hashingENSA_20_Default_ranged_hashENSA_20_Prime_rehash_policyENSA_17_Hashtable_traitsILb0ELb0ELb1EEEE9_M_rehashEmRKm
FN:2559,2574,_ZNSt10_HashtableIiSt4pairIKiSt14_List_iteratorIiEESaIS4_ENSt8__detail10_Select1stESt8equal_toIiESt4hashIiENS6_18_Mod_range_hashingENS6_20_Default_ranged_hashENS6_20_Prime_rehash_policyENS6_17_Hashtable_traitsILb0ELb0ELb1EEEE9_M_rehashEmRKm
FN:2559,2574,_ZNSt10_HashtableIiSt4pairIKibESaIS2_ENSt8__detail10_Select1stESt8equal_toIiESt4hashIiENS4_18_Mod_range_hashingENS4_20_Default_ranged_hashENS4_20_Prime_rehash_policyENS4_17_Hashtable_traitsILb0ELb0ELb1EEEE9_M_rehashEmRKm
FN:2559,2574,_ZNSt10_HashtableIiSt4pairIKiiESaIS2_ENSt8__detail10_Select1stESt8equal_toIiESt4hashIiENS4_18_Mod_range_hashingENS4_20_Default_ranged_hashENS4_20_Prime_rehash_policyENS4_17_Hashtable_traitsILb0ELb0ELb1EEEE9_M_rehashEmRKm
FN:2582,2616,_ZNSt10_HashtableIiSt4pairIKiSt10unique_ptrIN5sqlcc4PageESt14default_deleteIS4_EEESaIS8_ENSt8__detail10_Select1stESt8equal_toIiESt4hashIiENSA_18_Mod_range_hashingENSA_20_Default_ranged_hashENSA_20_Prime_rehash_policyENSA_17_Hashtable_traitsILb0ELb0ELb1EEEE13_M_rehash_auxEmSt17integral_constantIbLb1EE
FN:2582,2616,_ZNSt10_HashtableIiSt4pairIKiSt14_List_iteratorIiEESaIS4_ENSt8__detail10_Select1stESt8equal_toIiESt4hashIiENS6_18_Mod_range_hashingENS6_20_Default_ranged_hashENS6_20_Prime_rehash_policyENS6_17_Hashtable_traitsILb0ELb0ELb1EEEE13_M_rehash_auxEmSt17integral_constantIbLb1EE
FN:2582,2616,_ZNSt10_HashtableIiSt4pairIKibESaIS2_ENSt8__detail10_Select1stESt8equal_toIiESt4hashIiENS4_18_Mod_range_hashingENS4_20_Default_ranged_hashENS4_20_Prime_rehash_policyENS4_17_Hashtable_traitsILb0ELb0ELb1EEEE13_M_rehash_auxEmSt17integral_constantIbLb1EE
FN:2582,2616,_ZNSt10_HashtableIiSt4pairIKiiESaIS2_ENSt8__detail10_Select1stESt8equal_toIiESt4hashIiENS4_18_Mod_range_hashingENS4_20_Default_ranged_hashENS4_20_Prime_rehash_policyENS4_17_Hashtable_traitsILb0ELb0ELb1EEEE13_M_rehash_auxEmSt17integral_constantIbLb1EE
FN:305,308,_ZNSt10_HashtableIiSt4pairIKiSt10unique_ptrIN5sqlcc4PageESt14default_deleteIS4_EEESaIS8_ENSt8__detail10_Select1stESt8equal_toIiESt4hashIiENSA_18_Mod_range_hashingENSA_20_Default_ranged_hashENSA_20_Prime_rehash_policyENSA_17_Hashtable_traitsILb0ELb0ELb1EEEE12_Scoped_nodeC2IJRKSt21piecewise_construct_tSt5tupleIJRS1_EESR_IJEEEEEPNSA_16_Hashtable_allocISaINSA_10_Hash_nodeIS8_Lb0EEEEEEDpOT_
FN:305,308,_ZNSt10_HashtableIiSt4pairIKiSt14_List_iteratorIiEESaIS4_ENSt8__detail10_Select1stESt8equal_toIiESt4hashIiENS6_18_Mod_range_hashingENS6_20_Default_ranged_hashENS6_20_Prime_rehash_policyENS6_17_Hashtable_traitsILb0ELb0ELb1EEEE12_Scoped_nodeC2IJRKSt21piecewise_construct_tSt5tupleIJRS1_EESN_IJEEEEEPNS6_16_Hashtable_allocISaINS6_10_Hash_nodeIS4_Lb0EEEEEEDpOT_
FN:305,308,_ZNSt10_HashtableIiSt4pairIKibESaIS2_ENSt8__detail10_Select1stESt8equal_toIiESt4hashIiENS4_18_Mod_range_hashingENS4_20_Default_ranged_hashENS4_20_Prime_rehash_policyENS4_17_Hashtable_traitsILb0ELb0ELb1EEEE12_Scoped_nodeC2IJRKSt21piecewise_construct_tSt5tupleIJRS1_EESL_IJEEEEEPNS4_16_Hashtable_allocISaINS4_10_Hash_nodeIS2_Lb0EEEEEEDpOT_
FN:305,308,_ZNSt10_HashtableIiSt4pairIKiiESaIS2_ENSt8__detail10_Select1stESt8equal_toIiESt4hashIiENS4_18_Mod_range_hashingENS4_20_Default_ranged_hashENS4_20_Prime_rehash_policyENS4_17_Hashtable_traitsILb0ELb0ELb1EEEE12_Scoped_nodeC2IJRKSt21piecewise_construct_tSt5tupleIJRS1_EESL_IJEEEEEPNS4_16_Hashtable_allocISaINS4_10_Hash_nodeIS2_Lb0EEEEEEDpOT_
FN:311,311,_ZNSt10_HashtableIiSt4pairIKiSt10unique_ptrIN5sqlcc4PageESt14default_deleteIS4_EEESaIS8_ENSt8__detail10_Select1stESt8equal_toIiESt4hashIiENSA_18_Mod_range_hashingENSA_20_Default_ranged_hashENSA_20_Prime_rehash_policyENSA_17_Hashtable_traitsILb0ELb0ELb1EEEE12_Scoped_nodeD2Ev
FN:311,311,_ZNSt10_HashtableIiSt4pairIKiSt14_List_iteratorIiEESaIS4_ENSt8__detail10_Select1stESt8equal_toIiESt4hashIiENS6_18_Mod_range_hashingENS6_20_Default_ranged_hashENS6_20_Prime_rehash_policyENS6_17_Hashtable_traitsILb0ELb0ELb1EEEE12_Scoped_nodeD2Ev
FN:311,311,_ZNSt10_HashtableIiSt4pairIKibESaIS2_ENSt8__detail10_Select1stESt8equal_toIiESt4hashIiENS4_18_Mod_range_hashingENS4_20_Default_ranged_hashENS4_20_Prime_rehash_policyENS4_17_Hashtable_traitsILb0ELb0ELb1EEEE12_Scoped_nodeD2Ev
FN:311,311,_ZNSt10_HashtableIiSt4pairIKiiESaIS2_ENSt8__detail10_Select1stESt8equal_toIiESt4hashIiENS4_18_Mod_range_hashingENS4_20_Default_ranged_hashENS4_20_Prime_rehash_policyENS4_17_Hashtable_traitsILb0ELb0ELb1EEEE12_Scoped_nodeD2Ev
FN:416,417,_ZNKSt10_HashtableIiSt4pairIKiSt10unique_ptrIN5sqlcc4PageESt14default_deleteIS4_EEESaIS8_ENSt8__detail10_Select1stESt8equal_toIiESt4hashIiENSA_18_Mod_range_hashingENSA_20_Default_ranged_hashENSA_20_Prime_rehash_policyENSA_17_Hashtable_traitsILb0ELb0ELb1EEEE21_M_uses_single_bucketEPPNSA_15_Hash_node_baseE
FN:416,417,_ZNKSt10_HashtableIiSt4pairIKiSt14_List_iteratorIiEESaIS4_ENSt8__detail10_Select1stESt8equal_toIiESt4hashIiENS6_18_Mod_range_hashingENS6_20_Default_ranged_hashENS6_20_Prime_rehash_policyENS6_17_Hashtable_traitsILb0ELb0ELb1EEEE21_M_uses_single_bucketEPPNS6_15_Hash_node_baseE
FN:416,417,_ZNKSt10_HashtableIiSt4pairIKibESaIS2_ENSt8__detail10_Select1stESt8equal_toIiESt4hashIiENS4_18_Mod_range_hashingENS4_20_Default_ranged_hashENS4_20_Prime_rehash_policyENS4_17_Hashtable_traitsILb0ELb0ELb1EEEE21_M_uses_single_bucketEPPNS4_15_Hash_node_baseE
FN:416,417,_ZNKSt10_HashtableIiSt4pairIKiiESaIS2_ENSt8__detail10_Select1stESt8equal_toIiESt4hashIiENS4_18_Mod_range_hashingENS4_20_Default_ranged_hashENS4_20_Prime_rehash_policyENS4_17_Hashtable_traitsILb0ELb0ELb1EEEE21_M_uses_single_bucketEPPNS4_15_Hash_node_baseE
FN:424,428,_ZNSt10_HashtableIiSt4pairIKiSt10unique_ptrIN5sqlcc4PageESt14default_deleteIS4_EEESaIS8_ENSt8__detail10_Select1stESt8equal_toIiESt4hashIiENSA_18_Mod_range_hashingENSA_20_Default_ranged_hashENSA_20_Prime_rehash_policyENSA_17_Hashtable_traitsILb0ELb0ELb1EEEE22__small_size_thresholdEv
FN:424,428,_ZNSt10_HashtableIiSt4pairIKiSt14_List_iteratorIiEESaIS4_ENSt8__detail10_Select1stESt8equal_toIiESt4hashIiENS6_18_Mod_range_hashingENS6_20_Default_ranged_hashENS6_20_Prime_rehash_policyENS6_17_Hashtable_traitsILb0ELb0ELb1EEEE22__small_size_thresholdEv
FN:424,428,_ZNSt10_HashtableIiSt4pairIKibESaIS2_ENSt8__detail10_Select1stESt8equal_toIiESt4hashIiENS4_18_Mod_range_hashingENS4_20_Default_ranged_hashENS4_20_Prime_rehash_policyENS4_17_Hashtable_traitsILb0ELb0ELb1EEEE22__small_size_thresholdEv
FN:424,428,_ZNSt10_HashtableIiSt4pairIKiiESaIS2_ENSt8__detail10_Select1stESt8equal_toIiESt4hashIiENS4_18_Mod_range_hashingENS4_20_Default_ranged_hashENS4_20_Prime_rehash_policyENS4_17_Hashtable_traitsILb0ELb0ELb1EEEE22__small_size_thresholdEv
FN:434,443,_ZNSt10_HashtableIiSt4pairIKiSt10unique_ptrIN5sqlcc4PageESt14default_deleteIS4_EEESaIS8_ENSt8__detail10_Select1stESt8equal_toIiESt4hashIiENSA_18_Mod_range_hashingENSA_20_Default_ranged_hashENSA_20_Prime_rehash_policyENSA_17_Hashtable_traitsILb0ELb0ELb1EEEE19_M_allocate_bucketsEm
FN:434,443,_ZNSt10_HashtableIiSt4pairIKiSt14_List_iteratorIiEESaIS4_ENSt8__detail10_Select1stESt8equal_toIiESt4hashIiENS6_18_Mod_range_hashingENS6_20_Default_ranged_hashENS6_20_Prime_rehash_policyENS6_17_Hashtable_traitsILb0ELb0ELb1EEEE19_M_allocate_bucketsEm
FN:434,443,_ZNSt10_HashtableIiSt4pairIKibESaIS2_ENSt8__detail10_Select1stESt8equal_toIiESt4hashIiENS4_18_Mod_range_hashingENS4_20_Default_ranged_hashENS4_20_Prime_rehash_policyENS4_17_Hashtable_traitsILb0ELb0ELb1EEEE19_M_allocate_bucketsEm
FN:434,443,_ZNSt10_HashtableIiSt4pairIKiiESaIS2_ENSt8__detail10_Select1stESt8equal_toIiESt4hashIiENS4_18_Mod_range_hashingENS4_20_Default_ranged_hashENS4_20_Prime_rehash_policyENS4_17_Hashtable_traitsILb0ELb0ELb1EEEE19_M_allocate_bucketsEm
FN:446,452,_ZNSt10_HashtableIiSt4pairIKiSt10unique_ptrIN5sqlcc4PageESt14default_deleteIS4_EEESaIS8_ENSt8__detail10_Select1stESt8equal_toIiESt4hashIiENSA_18_Mod_range_hashingENSA_20_Default_ranged_hashENSA_20_Prime_rehash_policyENSA_17_Hashtable_traitsILb0ELb0ELb1EEEE21_M_deallocate_bucketsEPPNSA_15_Hash_node_baseEm
FN:446,452,_ZNSt10_HashtableIiSt4pairIKiSt14_List_iteratorIiEESaIS4_ENSt8__detail10_Select1stESt8equal_toIiESt4hashIiENS6_18_Mod_range_hashingENS6_20_Default_ranged_hashENS6_20_Prime_rehash_policyENS6_17_Hashtable_traitsILb0ELb0ELb1EEEE21_M_deallocate_bucketsEPPNS6_15_Hash_node_baseEm
FN:446,452,_ZNSt10_HashtableIiSt4pairIKibESaIS2_ENSt8__detail10_Select1stESt8equal_toIiESt4hashIiENS4_18_Mod_range_hashingENS4_20_Default_ranged_hashENS4_20_Prime_rehash_policyENS4_17_Hashtable_traitsILb0ELb0ELb1EEEE21_M_deallocate_bucketsEPPNS4_15_Hash_node_baseEm
FN:446,452,_ZNSt10_HashtableIiSt4pairIKiiESaIS2_ENSt8__detail10_Select1stESt8equal_toIiESt4hashIiENS4_18_Mod_range_hashingENS4_20_Default_ranged_hashENS4_20_Prime_rehash_policyENS4_17_Hashtable_traitsILb0ELb0ELb1EEEE21_M_deallocate_bucketsEPPNS4_15_Hash_node_baseEm
FN:455,456,_ZNSt10_HashtableIiSt4pairIKiSt10unique_ptrIN5sqlcc4PageESt14default_deleteIS4_EEESaIS8_ENSt8__detail10_Select1stESt8equal_toIiESt4hashIiENSA_18_Mod_range_hashingENSA_20_Default_ranged_hashENSA_20_Prime_rehash_policyENSA_17_Hashtable_traitsILb0ELb0ELb1EEEE21_M_deallocate_bucketsEv
FN:455,456,_ZNSt10_HashtableIiSt4pairIKiSt14_List_iteratorIiEESaIS4_ENSt8__detail10_Select1stESt8equal_toIiESt4hashIiENS6_18_Mod_range_hashingENS6_20_Default_ranged_hashENS6_20_Prime_rehash_policyENS6_17_Hashtable_traitsILb0ELb0ELb1EEEE21_M_deallocate_bucketsEv
FN:455,456,_ZNSt10_HashtableIiSt4pairIKibESaIS2_ENSt8__detail10_Select1stESt8equal_toIiESt4hashIiENS4_18_Mod_range_hashingENS4_20_Default_ranged_hashENS4_20_Prime_rehash_policyENS4_17_Hashtable_traitsILb0ELb0ELb1EEEE21_M_deallocate_bucketsEv
FN:455,456,_ZNSt10_HashtableIiSt4pairIKiiESaIS2_ENSt8__detail10_Select1stESt8equal_toIiESt4hashIiENS4_18_Mod_range_hashingENS4_20_Default_ranged_hashENS4_20_Prime_rehash_policyENS4_17_Hashtable_traitsILb0ELb0ELb1EEEE21_M_deallocate_bucketsEv
FN:464,465,_ZNKSt10_HashtableIiSt4pairIKiSt10unique_ptrIN5sqlcc4PageESt14default_deleteIS4_EEESaIS8_ENSt8__detail10_Select1stESt8equal_toIiESt4hashIiENSA_18_Mod_range_hashingENSA_20_Default_ranged_hashENSA_20_Prime_rehash_policyENSA_17_Hashtable_traitsILb0ELb0ELb1EEEE8_M_beginEv
FN:464,465,_ZNKSt10_HashtableIiSt4pairIKiSt14_List_iteratorIiEESaIS4_ENSt8__detail10_Select1stESt8equal_toIiESt4hashIiENS6_18_Mod_range_hashingENS6_20_Default_ranged_hashENS6_20_Prime_rehash_policyENS6_17_Hashtable_traitsILb0ELb0ELb1EEEE8_M_beginEv
FN:464,465,_ZNKSt10_HashtableIiSt4pairIKibESaIS2_ENSt8__detail10_Select1stESt8equal_toIiESt4hashIiENS4_18_Mod_range_hashingENS4_20_Default_ranged_hashENS4_20_Prime_rehash_policyENS4_17_Hashtable_traitsILb0ELb0ELb1EEEE8_M_beginEv
FN:464,465,_ZNKSt10_HashtableIiSt4pairIKiiESaIS2_ENSt8__detail10_Select1stESt8equal_toIiESt4hashIiENS4_18_Mod_range_hashingENS4_20_Default_ranged_hashENS4_20_Prime_rehash_policyENS4_17_Hashtable_traitsILb0ELb0ELb1EEEE8_M_beginEv
FN:530,530,_ZNSt10_HashtableIiSt4pairIKiSt10unique_ptrIN5sqlcc4PageESt14default_deleteIS4_EEESaIS8_ENSt8__detail10_Select1stESt8equal_toIiESt4hashIiENSA_18_Mod_range_hashingENSA_20_Default_ranged_hashENSA_20_Prime_rehash_policyENSA_17_Hashtable_traitsILb0ELb0ELb1EEEEC2Ev
FN:530,530,_ZNSt10_HashtableIiSt4pairIKiSt14_List_iteratorIiEESaIS4_ENSt8__detail10_Select1stESt8equal_toIiESt4hashIiENS6_18_Mod_range_hashingENS6_20_Default_ranged_hashENS6_20_Prime_rehash_policyENS6_17_Hashtable_traitsILb0ELb0ELb1EEEEC2Ev
FN:530,530,_ZNSt10_HashtableIiSt4pairIKibESaIS2_ENSt8__detail10_Select1stESt8equal_toIiESt4hashIiENS4_18_Mod_range_hashingENS4_20_Default_ranged_hashENS4_20_Prime_rehash_policyENS4_17_Hashtable_traitsILb0ELb0ELb1EEEEC2Ev
FN:530,530,_ZNSt10_HashtableIiSt4pairIKiiESaIS2_ENSt8__detail10_Select1stESt8equal_toIiESt4hashIiENS4_18_Mod_range_hashingENS4_20_Default_ranged_hashENS4_20_Prime_rehash_policyENS4_17_Hashtable_traitsILb0ELb0ELb1EEEEC2Ev
FN:623,624,_ZNSt10_HashtableIiSt4pairIKiSt10unique_ptrIN5sqlcc4PageESt14default_deleteIS4_EEESaIS8_ENSt8__detail10_Select1stESt8equal_toIiESt4hashIiENSA_18_Mod_range_hashingENSA_20_Default_ranged_hashENSA_20_Prime_rehash_policyENSA_17_Hashtable_traitsILb0ELb0ELb1EEEE5beginEv
FN:623,624,_ZNSt10_HashtableIiSt4pairIKiSt14_List_iteratorIiEESaIS4_ENSt8__detail10_Select1stESt8equal_toIiESt4hashIiENS6_18_Mod_range_hashingENS6_20_Default_ranged_hashENS6_20_Prime_rehash_policyENS6_17_Hashtable_traitsILb0ELb0ELb1EEEE5beginEv
FN:623,624,_ZNSt10_HashtableIiSt4pairIKibESaIS2_ENSt8__detail10_Select1stESt8equal_toIiESt4hashIiENS4_18_Mod_range_hashingENS4_20_Default_ranged_hashENS4_20_Prime_rehash_policyENS4_17_Hashtable_traitsILb0ELb0ELb1EEEE5beginEv
FN:623,624,_ZNSt10_HashtableIiSt4pairIKiiESaIS2_ENSt8__detail10_Select1stESt8equal_toIiESt4hashIiENS4_18_Mod_range_hashingENS4_20_Default_ranged_hashENS4_20_Prime_rehash_policyENS4_17_Hashtable_traitsILb0ELb0ELb1EEEE5beginEv
FN:631,632,_ZNSt10_HashtableIiSt4pairIKiSt10unique_ptrIN5sqlcc4PageESt14default_deleteIS4_EEESaIS8_ENSt8__detail10_Select1stESt8equal_toIiESt4hashIiENSA_18_Mod_range_hashingENSA_20_Default_ranged_hashENSA_20_Prime_rehash_policyENSA_17_Hashtable_traitsILb0ELb0ELb1EEEE3endEv
FN:631,632,_ZNSt10_HashtableIiSt4pairIKiSt14_List_iteratorIiEESaIS4_ENSt8__detail10_Select1stESt8equal_toIiESt4hashIiENS6_18_Mod_range_hashingENS6_20_Default_ranged_hashENS6_20_Prime_rehash_policyENS6_17_Hashtable_traitsILb0ELb0ELb1EEEE3endEv
FN:631,632,_ZNSt10_HashtableIiSt4pairIKibESaIS2_ENSt8__detail10_Select1stESt8equal_toIiESt4hashIiENS4_18_Mod_range_hashingENS4_20_Default_ranged_hashENS4_20_Prime_rehash_policyENS4_17_Hashtable_traitsILb0ELb0ELb1EEEE3endEv
FN:631,632,_ZNSt10_HashtableIiSt4pairIKiiESaIS2_ENSt8__detail10_Select1stESt8equal_toIiESt4hashIiENS4_18_Mod_range_hashingENS4_20_Default_ranged_hashENS4_20_Prime_rehash_policyENS4_17_Hashtable_traitsILb0ELb0ELb1EEEE3endEv
FN:647,648,_ZNKSt10_HashtableIiSt4pairIKiSt10unique_ptrIN5sqlcc4PageESt14default_deleteIS4_EEESaIS8_ENSt8__detail10_Select1stESt8equal_toIiESt4hashIiENSA_18_Mod_range_hashingENSA_20_Default_ranged_hashENSA_20_Prime_rehash_policyENSA_17_Hashtable_traitsILb0ELb0ELb1EEEE4sizeEv
FN:647,648,_ZNKSt10_HashtableIiSt4pairIKiSt14_List_iteratorIiEESaIS4_ENSt8__detail10_Select1stESt8equal_toIiESt4hashIiENS6_18_Mod_range_hashingENS6_20_Default_ranged_hashENS6_20_Prime_rehash_policyENS6_17_Hashtable_traitsILb0ELb0ELb1EEEE4sizeEv
FN:647,648,_ZNKSt10_HashtableIiSt4pairIKibESaIS2_ENSt8__detail10_Select1stESt8equal_toIiESt4hashIiENS4_18_Mod_range_hashingENS4_20_Default_ranged_hashENS4_20_Prime_rehash_policyENS4_17_Hashtable_traitsILb0ELb0ELb1EEEE4sizeEv
FN:647,648,_ZNKSt10_HashtableIiSt4pairIKiiESaIS2_ENSt8__detail10_Select1stESt8equal_toIiESt4hashIiENS4_18_Mod_range_hashingENS4_20_Default_ranged_hashENS4_20_Prime_rehash_policyENS4_17_Hashtable_traitsILb0ELb0ELb1EEEE4sizeEv
FN:792,793,_ZNKSt10_HashtableIiSt4pairIKiSt10unique_ptrIN5sqlcc4PageESt14default_deleteIS4_EEESaIS8_ENSt8__detail10_Select1stESt8equal_toIiESt4hashIiENSA_18_Mod_range_hashingENSA_20_Default_ranged_hashENSA_20_Prime_rehash_policyENSA_17_Hashtable_traitsILb0ELb0ELb1EEEE15_M_bucket_indexERKNSA_16_Hash_node_valueIS8_Lb0EEE
FN:792,793,_ZNKSt10_HashtableIiSt4pairIKiSt14_List_iteratorIiEESaIS4_ENSt8__detail10_Select1stESt8equal_toIiESt4hashIiENS6_18_Mod_range_hashingENS6_20_Default_ranged_hashENS6_20_Prime_rehash_policyENS6_17_Hashtable_traitsILb0ELb0ELb1EEEE15_M_bucket_indexERKNS6_16_Hash_node_valueIS4_Lb0EEE
FN:792,793,_ZNKSt10_HashtableIiSt4pairIKibESaIS2_ENSt8__detail10_Select1stESt8equal_toIiESt4hashIiENS4_18_Mod_range_hashingENS4_20_Default_ranged_hashENS4_20_Prime_rehash_policyENS4_17_Hashtable_traitsILb0ELb0ELb1EEEE15_M_bucket_indexERKNS4_16_Hash_node_valueIS2_Lb0EEE
FN:792,793,_ZNKSt10_HashtableIiSt4pairIKiiESaIS2_ENSt8__detail10_Select1stESt8equal_toIiESt4hashIiENS4_18_Mod_range_hashingENS4_20_Default_ranged_hashENS4_20_Prime_rehash_policyENS4_17_Hashtable_traitsILb0ELb0ELb1EEEE15_M_bucket_indexERKNS4_16_Hash_node_valueIS2_Lb0EEE
FN:796,797,_ZNKSt10_HashtableIiSt4pairIKiSt10unique_ptrIN5sqlcc4PageESt14default_deleteIS4_EEESaIS8_ENSt8__detail10_Select1stESt8equal_toIiESt4hashIiENSA_18_Mod_range_hashingENSA_20_Default_ranged_hashENSA_20_Prime_rehash_policyENSA_17_Hashtable_traitsILb0ELb0ELb1EEEE15_M_bucket_indexEm
FN:796,797,_ZNKSt10_HashtableIiSt4pairIKiSt14_List_iteratorIiEESaIS4_ENSt8__detail10_Select1stESt8equal_toIiESt4hashIiENS6_18_Mod_range_hashingENS6_20_Default_ranged_hashENS6_20_Prime_rehash_policyENS6_17_Hashtable_traitsILb0ELb0ELb1EEEE15_M_bucket_indexEm
FN:796,797,_ZNKSt10_HashtableIiSt4pairIKibESaIS2_ENSt8__detail10_Select1stESt8equal_toIiESt4hashIiENS4_18_Mod_range_hashingENS4_20_Default_ranged_hashENS4_20_Prime_rehash_policyENS4_17_Hashtable_traitsILb0ELb0ELb1EEEE15_M_bucket_indexEm
FN:796,797,_ZNKSt10_HashtableIiSt4pairIKiiESaIS2_ENSt8__detail10_Select1stESt8equal_toIiESt4hashIiENS4_18_Mod_range_hashingENS4_20_Default_ranged_hashENS4_20_Prime_rehash_policyENS4_17_Hashtable_traitsILb0ELb0ELb1EEEE15_M_bucket_indexEm
FN:812,819,_ZNKSt10_HashtableIiSt4pairIKiSt10unique_ptrIN5sqlcc4PageESt14default_deleteIS4_EEESaIS8_ENSt8__detail10_Select1stESt8equal_toIiESt4hashIiENSA_18_Mod_range_hashingENSA_20_Default_ranged_hashENSA_20_Prime_rehash_policyENSA_17_Hashtable_traitsILb0ELb0ELb1EEEE12_M_find_nodeEmRS1_m
FN:812,819,_ZNKSt10_HashtableIiSt4pairIKiSt14_List_iteratorIiEESaIS4_ENSt8__detail10_Select1stESt8equal_toIiESt4hashIiENS6_18_Mod_range_hashingENS6_20_Default_ranged_hashENS6_20_Prime_rehash_policyENS6_17_Hashtable_traitsILb0ELb0ELb1EEEE12_M_find_nodeEmRS1_m
FN:812,819,_ZNKSt10_HashtableIiSt4pairIKibESaIS2_ENSt8__detail10_Select1stESt8equal_toIiESt4hashIiENS4_18_Mod_range_hashingENS4_20_Default_ranged_hashENS4_20_Prime_rehash_policyENS4_17_Hashtable_traitsILb0ELb0ELb1EEEE12_M_find_nodeEmRS1_m
FN:812,819,_ZNKSt10_HashtableIiSt4pairIKiiESaIS2_ENSt8__detail10_Select1stESt8equal_toIiESt4hashIiENS4_18_Mod_range_hashingENS4_20_Default_ranged_hashENS4_20_Prime_rehash_policyENS4_17_Hashtable_traitsILb0ELb0ELb1EEEE12_M_find_nodeEmRS1_m
FN:979,980,_ZNSt10_HashtableIiSt4pairIKiSt10unique_ptrIN5sqlcc4PageESt14default_deleteIS4_EEESaIS8_ENSt8__detail10_Select1stESt8equal_toIiESt4hashIiENSA_18_Mod_range_hashingENSA_20_Default_ranged_hashENSA_20_Prime_rehash_policyENSA_17_Hashtable_traitsILb0ELb0ELb1EEEE5eraseENSA_14_Node_iteratorIS8_Lb0ELb0EEE
FN:979,980,_ZNSt10_HashtableIiSt4pairIKiSt14_List_iteratorIiEESaIS4_ENSt8__detail10_Select1stESt8equal_toIiESt4hashIiENS6_18_Mod_range_hashingENS6_20_Default_ranged_hashENS6_20_Prime_rehash_policyENS6_17_Hashtable_traitsILb0ELb0ELb1EEEE5eraseENS6_14_Node_iteratorIS4_Lb0ELb0EEE
FN:979,980,_ZNSt10_HashtableIiSt4pairIKibESaIS2_ENSt8__detail10_Select1stESt8equal_toIiESt4hashIiENS4_18_Mod_range_hashingENS4_20_Default_ranged_hashENS4_20_Prime_rehash_policyENS4_17_Hashtable_traitsILb0ELb0ELb1EEEE5eraseENS4_14_Node_iteratorIS2_Lb0ELb0EEE
FN:979,980,_ZNSt10_HashtableIiSt4pairIKiiESaIS2_ENSt8__detail10_Select1stESt8equal_toIiESt4hashIiENS4_18_Mod_range_hashingENS4_20_Default_ranged_hashENS4_20_Prime_rehash_policyENS4_17_Hashtable_traitsILb0ELb0ELb1EEEE5eraseENS4_14_Node_iteratorIS2_Lb0ELb0EEE
FN:983,984,_ZNSt10_HashtableIiSt4pairIKiSt10unique_ptrIN5sqlcc4PageESt14default_deleteIS4_EEESaIS8_ENSt8__detail10_Select1stESt8equal_toIiESt4hashIiENSA_18_Mod_range_hashingENSA_20_Default_ranged_hashENSA_20_Prime_rehash_policyENSA_17_Hashtable_traitsILb0ELb0ELb1EEEE5eraseERS1_
FN:983,984,_ZNSt10_HashtableIiSt4pairIKiSt14_List_iteratorIiEESaIS4_ENSt8__detail10_Select1stESt8equal_toIiESt4hashIiENS6_18_Mod_range_hashingENS6_20_Default_ranged_hashENS6_20_Prime_rehash_policyENS6_17_Hashtable_traitsILb0ELb0ELb1EEEE5eraseERS1_
FN:983,984,_ZNSt10_HashtableIiSt4pairIKibESaIS2_ENSt8__detail10_Select1stESt8equal_toIiESt4hashIiENS4_18_Mod_range_hashingENS4_20_Default_ranged_hashENS4_20_Prime_rehash_policyENS4_17_Hashtable_traitsILb0ELb0ELb1EEEE5eraseERS1_
FN:983,984,_ZNSt10_HashtableIiSt4pairIKiiESaIS2_ENSt8__detail10_Select1stESt8equal_toIiESt4hashIiENS4_18_Mod_range_hashingENS4_20_Default_ranged_hashENS4_20_Prime_rehash_policyENS4_17_Hashtable_traitsILb0ELb0ELb1EEEE5eraseERS1_
FNDA:7,_ZNSt10_HashtableIiSt4pairIKiSt10unique_ptrIN5sqlcc4PageESt14default_deleteIS4_EEESaIS8_ENSt8__detail10_Select1stESt8equal_toIiESt4hashIiENSA_18_Mod_range_hashingENSA_20_Default_ranged_hashENSA_20_Prime_rehash_policyENSA_17_Hashtable_traitsILb0ELb0ELb1EEEED2Ev
FNDA:7,_ZNSt10_HashtableIiSt4pairIKiSt14_List_iteratorIiEESaIS4_ENSt8__detail10_Select1stESt8equal_toIiESt4hashIiENS6_18_Mod_range_hashingENS6_20_Default_ranged_hashENS6_20_Prime_rehash_policyENS6_17_Hashtable_traitsILb0ELb0ELb1EEEED2Ev
FNDA:7,_ZNSt10_HashtableIiSt4pairIKibESaIS2_ENSt8__detail10_Select1stESt8equal_toIiESt4hashIiENS4_18_Mod_range_hashingENS4_20_Default_ranged_hashENS4_20_Prime_rehash_policyENS4_17_Hashtable_traitsILb0ELb0ELb1EEEED2Ev
FNDA:7,_ZNSt10_HashtableIiSt4pairIKiiESaIS2_ENSt8__detail10_Select1stESt8equal_toIiESt4hashIiENS4_18_Mod_range_hashingENS4_20_Default_ranged_hashENS4_20_Prime_rehash_policyENS4_17_Hashtable_traitsILb0ELb0ELb1EEEED2Ev
FNDA:171,_ZNSt10_HashtableIiSt4pairIKiSt10unique_ptrIN5sqlcc4PageESt14default_deleteIS4_EEESaIS8_ENSt8__detail10_Select1stESt8equal_toIiESt4hashIiENSA_18_Mod_range_hashingENSA_20_Default_ranged_hashENSA_20_Prime_rehash_policyENSA_17_Hashtable_traitsILb0ELb0ELb1EEEE4findERS1_
FNDA:9,_ZNSt10_HashtableIiSt4pairIKiSt14_List_iteratorIiEESaIS4_ENSt8__detail10_Select1stESt8equal_toIiESt4hashIiENS6_18_Mod_range_hashingENS6_20_Default_ranged_hashENS6_20_Prime_rehash_policyENS6_17_Hashtable_traitsILb0ELb0ELb1EEEE4findERS1_
FNDA:117,_ZNSt10_HashtableIiSt4pairIKibESaIS2_ENSt8__detail10_Select1stESt8equal_toIiESt4hashIiENS4_18_Mod_range_hashingENS4_20_Default_ranged_hashENS4_20_Prime_rehash_policyENS4_17_Hashtable_traitsILb0ELb0ELb1EEEE4findERS1_
FNDA:158,_ZNSt10_HashtableIiSt4pairIKiiESaIS2_ENSt8__detail10_Select1stESt8equal_toIiESt4hashIiENS4_18_Mod_range_hashingENS4_20_Default_ranged_hashENS4_20_Prime_rehash_policyENS4_17_Hashtable_traitsILb0ELb0ELb1EEEE4findERS1_
FNDA:0,_ZNSt10_HashtableIiSt4pairIKiSt10unique_ptrIN5sqlcc4PageESt14default_deleteIS4_EEESaIS8_ENSt8__detail10_Select1stESt8equal_toIiESt4hashIiENSA_18_Mod_range_hashingENSA_20_Default_ranged_hashENSA_20_Prime_rehash_policyENSA_17_Hashtable_traitsILb0ELb0ELb1EEEE19_M_find_before_nodeERS1_
FNDA:0,_ZNSt10_HashtableIiSt4pairIKiSt14_List_iteratorIiEESaIS4_ENSt8__detail10_Select1stESt8equal_toIiESt4hashIiENS6_18_Mod_range_hashingENS6_20_Default_ranged_hashENS6_20_Prime_rehash_policyENS6_17_Hashtable_traitsILb0ELb0ELb1EEEE19_M_find_before_nodeERS1_
FNDA:0,_ZNSt10_HashtableIiSt4pairIKibESaIS2_ENSt8__detail10_Select1stESt8equal_toIiESt4hashIiENS4_18_Mod_range_hashingENS4_20_Default_ranged_hashENS4_20_Prime_rehash_policyENS4_17_Hashtable_traitsILb0ELb0ELb1EEEE19_M_find_before_nodeERS1_
FNDA:0,_ZNSt10_HashtableIiSt4pairIKiiESaIS2_ENSt8__detail10_Select1stESt8equal_toIiESt4hashIiENS4_18_Mod_range_hashingENS4_20_Default_ranged_hashENS4_20_Prime_rehash_policyENS4_17_Hashtable_traitsILb0ELb0ELb1EEEE19_M_find_before_nodeERS1_
FNDA:321,_ZNKSt10_HashtableIiSt4pairIKiSt10unique_ptrIN5sqlcc4PageESt14default_deleteIS4_EEESaIS8_ENSt8__detail10_Select1stESt8equal_toIiESt4hashIiENSA_18_Mod_range_hashingENSA_20_Default_ranged_hashENSA_20_Prime_rehash_policyENSA_17_Hashtable_traitsILb0ELb0ELb1EEEE19_M_find_before_nodeEmRS1_m
FNDA:168,_ZNKSt10_HashtableIiSt4pairIKiSt14_List_iteratorIiEESaIS4_ENSt8__detail10_Select1stESt8equal_toIiESt4hashIiENS6_18_Mod_range_hashingENS6_20_Default_ranged_hashENS6_20_Prime_rehash_policyENS6_17_Hashtable_traitsILb0ELb0ELb1EEEE19_M_find_before_nodeEmRS1_m
FNDA:287,_ZNKSt10_HashtableIiSt4pairIKibESaIS2_ENSt8__detail10_Select1stESt8equal_toIiESt4hashIiENS4_18_Mod_range_hashingENS4_20_Default_ranged_hashENS4_20_Prime_rehash_policyENS4_17_Hashtable_traitsILb0ELb0ELb1EEEE19_M_find_before_nodeEmRS1_m
FNDA:279,_ZNKSt10_HashtableIiSt4pairIKiiESaIS2_ENSt8__detail10_Select1stESt8equal_toIiESt4hashIiENS4_18_Mod_range_hashingENS4_20_Default_ranged_hashENS4_20_Prime_rehash_policyENS4_17_Hashtable_traitsILb0ELb0ELb1EEEE19_M_find_before_nodeEmRS1_m
FNDA:112,_ZNSt10_HashtableIiSt4pairIKiSt10unique_ptrIN5sqlcc4PageESt14default_deleteIS4_EEESaIS8_ENSt8__detail10_Select1stESt8equal_toIiESt4hashIiENSA_18_Mod_range_hashingENSA_20_Default_ranged_hashENSA_20_Prime_rehash_policyENSA_17_Hashtable_traitsILb0ELb0ELb1EEEE22_M_insert_bucket_beginEmPNSA_10_Hash_nodeIS8_Lb0EEE
FNDA:112,_ZNSt10_HashtableIiSt4pairIKiSt14_List_iteratorIiEESaIS4_ENSt8__detail10_Select1stESt8equal_toIiESt4hashIiENS6_18_Mod_range_hashingENS6_20_Default_ranged_hashENS6_20_Prime_rehash_policyENS6_17_Hashtable_traitsILb0ELb0ELb1EEEE22_M_insert_bucket_beginEmPNS6_10_Hash_nodeIS4_Lb0EEE
FNDA:112,_ZNSt10_HashtableIiSt4pairIKibESaIS2_ENSt8__detail10_Select1stESt8equal_toIiESt4hashIiENS4_18_Mod_range_hashingENS4_20_Default_ranged_hashENS4_20_Prime_rehash_policyENS4_17_Hashtable_traitsILb0ELb0ELb1EEEE22_M_insert_bucket_beginEmPNS4_10_Hash_nodeIS2_Lb0EEE
FNDA:112,_ZNSt10_HashtableIiSt4pairIKiiESaIS2_ENSt8__detail10_Select1stESt8equal_toIiESt4hashIiENS4_18_Mod_range_hashingENS4_20_Default_ranged_hashENS4_20_Prime_rehash_policyENS4_17_Hashtable_traitsILb0ELb0ELb1EEEE22_M_insert_bucket_beginEmPNS4_10_Hash_nodeIS2_Lb0EEE
FNDA:40,_ZNSt10_HashtableIiSt4pairIKiSt10unique_ptrIN5sqlcc4PageESt14default_deleteIS4_EEESaIS8_ENSt8__detail10_Select1stESt8equal_toIiESt4hashIiENSA_18_Mod_range_hashingENSA_20_Default_ranged_hashENSA_20_Prime_rehash_policyENSA_17_Hashtable_traitsILb0ELb0ELb1EEEE22_M_remove_bucket_beginEmPNSA_10_Hash_nodeIS8_Lb0EEEm
FNDA:40,_ZNSt10_HashtableIiSt4pairIKiSt14_List_iteratorIiEESaIS4_ENSt8__detail10_Select1stESt8equal_toIiESt4hashIiENS6_18_Mod_range_hashingENS6_20_Default_ranged_hashENS6_20_Prime_rehash_policyENS6_17_Hashtable_traitsILb0ELb0ELb1EEEE22_M_remove_bucket_beginEmPNS6_10_Hash_nodeIS4_Lb0EEEm
FNDA:40,_ZNSt10_HashtableIiSt4pairIKibESaIS2_ENSt8__detail10_Select1stESt8equal_toIiESt4hashIiENS4_18_Mod_range_hashingENS4_20_Default_ranged_hashENS4_20_Prime_rehash_policyENS4_17_Hashtable_traitsILb0ELb0ELb1EEEE22_M_remove_bucket_beginEmPNS4_10_Hash_nodeIS2_Lb0EEEm
FNDA:40,_ZNSt10_HashtableIiSt4pairIKiiESaIS2_ENSt8__detail10_Select1stESt8equal_toIiESt4hashIiENS4_18_Mod_range_hashingENS4_20_Default_ranged_hashENS4_20_Prime_rehash_policyENS4_17_Hashtable_traitsILb0ELb0ELb1EEEE22_M_remove_bucket_beginEmPNS4_10_Hash_nodeIS2_Lb0EEEm
FNDA:1,_ZNSt10_HashtableIiSt4pairIKiSt10unique_ptrIN5sqlcc4PageESt14default_deleteIS4_EEESaIS8_ENSt8__detail10_Select1stESt8equal_toIiESt4hashIiENSA_18_Mod_range_hashingENSA_20_Default_ranged_hashENSA_20_Prime_rehash_policyENSA_17_Hashtable_traitsILb0ELb0ELb1EEEE20_M_get_previous_nodeEmPNSA_10_Hash_nodeIS8_Lb0EEE
FNDA:1,_ZNSt10_HashtableIiSt4pairIKiSt14_List_iteratorIiEESaIS4_ENSt8__detail10_Select1stESt8equal_toIiESt4hashIiENS6_18_Mod_range_hashingENS6_20_Default_ranged_hashENS6_20_Prime_rehash_policyENS6_17_Hashtable_traitsILb0ELb0ELb1EEEE20_M_get_previous_nodeEmPNS6_10_Hash_nodeIS4_Lb0EEE
FNDA:39,_ZNSt10_HashtableIiSt4pairIKibESaIS2_ENSt8__detail10_Select1stESt8equal_toIiESt4hashIiENS4_18_Mod_range_hashingENS4_20_Default_ranged_hashENS4_20_Prime_rehash_policyENS4_17_Hashtable_traitsILb0ELb0ELb1EEEE20_M_get_previous_nodeEmPNS4_10_Hash_nodeIS2_Lb0EEE
FNDA:39,_ZNSt10_HashtableIiSt4pairIKiiESaIS2_ENSt8__detail10_Select1stESt8equal_toIiESt4hashIiENS4_18_Mod_range_hashingENS4_20_Default_ranged_hashENS4_20_Prime_rehash_policyENS4_17_Hashtable_traitsILb0ELb0ELb1EEEE20_M_get_previous_nodeEmPNS4_10_Hash_nodeIS2_Lb0EEE
FNDA:112,_ZNSt10_HashtableIiSt4pairIKiSt10unique_ptrIN5sqlcc4PageESt14default_deleteIS4_EEESaIS8_ENSt8__detail10_Select1stESt8equal_toIiESt4hashIiENSA_18_Mod_range_hashingENSA_20_Default_ranged_hashENSA_20_Prime_rehash_policyENSA_17_Hashtable_traitsILb0ELb0ELb1EEEE21_M_insert_unique_nodeEmmPNSA_10_Hash_nodeIS8_Lb0EEEm
FNDA:112,_ZNSt10_HashtableIiSt4pairIKiSt14_List_iteratorIiEESaIS4_ENSt8__detail10_Select1stESt8equal_toIiESt4hashIiENS6_18_Mod_range_hashingENS6_20_Default_ranged_hashENS6_20_Prime_rehash_policyENS6_17_Hashtable_traitsILb0ELb0ELb1EEEE21_M_insert_unique_nodeEmmPNS6_10_Hash_nodeIS4_Lb0EEEm
FNDA:112,_ZNSt10_HashtableIiSt4pairIKibESaIS2_ENSt8__detail10_Select1stESt8equal_toIiESt4hashIiENS4_18_Mod_range_hashingENS4_20_Default_ranged_hashENS4_20_Prime_rehash_policyENS4_17_Hashtable_traitsILb0ELb0ELb1EEEE21_M_insert_unique_nodeEmmPNS4_10_Hash_nodeIS2_Lb0EEEm
FNDA:112,_ZNSt10_HashtableIiSt4pairIKiiESaIS2_ENSt8__detail10_Select1stESt8equal_toIiESt4hashIiENS4_18_Mod_range_hashingENS4_20_Default_ranged_hashENS4_20_Prime_rehash_policyENS4_17_Hashtable_traitsILb0ELb0ELb1EEEE21_M_insert_unique_nodeEmmPNS4_10_Hash_nodeIS2_Lb0EEEm
FNDA:1,_ZNSt10_HashtableIiSt4pairIKiSt10unique_ptrIN5sqlcc4PageESt14default_deleteIS4_EEESaIS8_ENSt8__detail10_Select1stESt8equal_toIiESt4hashIiENSA_18_Mod_range_hashingENSA_20_Default_ranged_hashENSA_20_Prime_rehash_policyENSA_17_Hashtable_traitsILb0ELb0ELb1EEEE5eraseENSA_20_Node_const_iteratorIS8_Lb0ELb0EEE
FNDA:1,_ZNSt10_HashtableIiSt4pairIKiSt14_List_iteratorIiEESaIS4_ENSt8__detail10_Select1stESt8equal_toIiESt4hashIiENS6_18_Mod_range_hashingENS6_20_Default_ranged_hashENS6_20_Prime_rehash_policyENS6_17_Hashtable_traitsILb0ELb0ELb1EEEE5eraseENS6_20_Node_const_iteratorIS4_Lb0ELb0EEE
FNDA:39,_ZNSt10_HashtableIiSt4pairIKibESaIS2_ENSt8__detail10_Select1stESt8equal_toIiESt4hashIiENS4_18_Mod_range_hashingENS4_20_Default_ranged_hashENS4_20_Prime_rehash_policyENS4_17_Hashtable_traitsILb0ELb0ELb1EEEE5eraseENS4_20_Node_const_iteratorIS2_Lb0ELb0EEE
FNDA:39,_ZNSt10_HashtableIiSt4pairIKiiESaIS2_ENSt8__detail10_Select1stESt8equal_toIiESt4hashIiENS4_18_Mod_range_hashingENS4_20_Default_ranged_hashENS4_20_Prime_rehash_policyENS4_17_Hashtable_traitsILb0ELb0ELb1EEEE5eraseENS4_20_Node_const_iteratorIS2_Lb0ELb0EEE
FNDA:40,_ZNSt10_HashtableIiSt4pairIKiSt10unique_ptrIN5sqlcc4PageESt14default_deleteIS4_EEESaIS8_ENSt8__detail10_Select1stESt8equal_toIiESt4hashIiENSA_18_Mod_range_hashingENSA_20_Default_ranged_hashENSA_20_Prime_rehash_policyENSA_17_Hashtable_traitsILb0ELb0ELb1EEEE8_M_eraseEmPNSA_15_Hash_node_baseEPNSA_10_Hash_nodeIS8_Lb0EEE
FNDA:40,_ZNSt10_HashtableIiSt4pairIKiSt14_List_iteratorIiEESaIS4_ENSt8__detail10_Select1stESt8equal_toIiESt4hashIiENS6_18_Mod_range_hashingENS6_20_Default_ranged_hashENS6_20_Prime_rehash_policyENS6_17_Hashtable_traitsILb0ELb0ELb1EEEE8_M_eraseEmPNS6_15_Hash_node_baseEPNS6_10_Hash_nodeIS4_Lb0EEE
FNDA:40,_ZNSt10_HashtableIiSt4pairIKibESaIS2_ENSt8__detail10_Select1stESt8equal_toIiESt4hashIiENS4_18_Mod_range_hashingENS4_20_Default_ranged_hashENS4_20_Prime_rehash_policyENS4_17_Hashtable_traitsILb0ELb0ELb1EEEE8_M_eraseEmPNS4_15_Hash_node_baseEPNS4_10_Hash_nodeIS2_Lb0EEE
FNDA:40,_ZNSt10_HashtableIiSt4pairIKiiESaIS2_ENSt8__detail10_Select1stESt8equal_toIiESt4hashIiENS4_18_Mod_range_hashingENS4_20_Default_ranged_hashENS4_20_Prime_rehash_policyENS4_17_Hashtable_traitsILb0ELb0ELb1EEEE8_M_eraseEmPNS4_15_Hash_node_baseEPNS4_10_Hash_nodeIS2_Lb0EEE
FNDA:39,_ZNSt10_HashtableIiSt4pairIKiSt10unique_ptrIN5sqlcc4PageESt14default_deleteIS4_EEESaIS8_ENSt8__detail10_Select1stESt8equal_toIiESt4hashIiENSA_18_Mod_range_hashingENSA_20_Default_ranged_hashENSA_20_Prime_rehash_policyENSA_17_Hashtable_traitsILb0ELb0ELb1EEEE8_M_eraseESt17integral_constantIbLb1EERS1_
FNDA:39,_ZNSt10_HashtableIiSt4pairIKiSt14_List_iteratorIiEESaIS4_ENSt8__detail10_Select1stESt8equal_toIiESt4hashIiENS6_18_Mod_range_hashingENS6_20_Default_ranged_hashENS6_20_Prime_rehash_policyENS6_17_Hashtable_traitsILb0ELb0ELb1EEEE8_M_eraseESt17integral_constantIbLb1EERS1_
FNDA:1,_ZNSt10_HashtableIiSt4pairIKibESaIS2_ENSt8__detail10_Select1stESt8equal_toIiESt4hashIiENS4_18_Mod_range_hashingENS4_20_Default_ranged_hashENS4_20_Prime_rehash_policyENS4_17_Hashtable_traitsILb0ELb0ELb1EEEE8_M_eraseESt17integral_constantIbLb1EERS1_
FNDA:1,_ZNSt10_HashtableIiSt4pairIKiiESaIS2_ENSt8__detail10_Select1stESt8equal_toIiESt4hashIiENS4_18_Mod_range_hashingENS4_20_Default_ranged_hashENS4_20_Prime_rehash_policyENS4_17_Hashtable_traitsILb0ELb0ELb1EEEE8_M_eraseESt17integral_constantIbLb1EERS1_
FNDA:7,_ZNSt10_HashtableIiSt4pairIKiSt10unique_ptrIN5sqlcc4PageESt14default_deleteIS4_EEESaIS8_ENSt8__detail10_Select1stESt8equal_toIiESt4hashIiENSA_18_Mod_range_hashingENSA_20_Default_ranged_hashENSA_20_Prime_rehash_policyENSA_17_Hashtable_traitsILb0ELb0ELb1EEEE5clearEv
FNDA:7,_ZNSt10_HashtableIiSt4pairIKiSt14_List_iteratorIiEESaIS4_ENSt8__detail10_Select1stESt8equal_toIiESt4hashIiENS6_18_Mod_range_hashingENS6_20_Default_ranged_hashENS6_20_Prime_rehash_policyENS6_17_Hashtable_traitsILb0ELb0ELb1EEEE5clearEv
FNDA:7,_ZNSt10_HashtableIiSt4pairIKibESaIS2_ENSt8__detail10_Select1stESt8equal_toIiESt4hashIiENS4_18_Mod_range_hashingENS4_20_Default_ranged_hashENS4_20_Prime_rehash_policyENS4_17_Hashtable_traitsILb0ELb0ELb1EEEE5clearEv
FNDA:7,_ZNSt10_HashtableIiSt4pairIKiiESaIS2_ENSt8__detail10_Select1stESt8equal_toIiESt4hashIiENS4_18_Mod_range_hashingENS4_20_Default_ranged_hashENS4_20_Prime_rehash_policyENS4_17_Hashtable_traitsILb0ELb0ELb1EEEE5clearEv
FNDA:9,_ZNSt10_HashtableIiSt4pairIKiSt10unique_ptrIN5sqlcc4PageESt14default_deleteIS4_EEESaIS8_ENSt8__detail10_Select1stESt8equal_toIiESt4hashIiENSA_18_Mod_range_hashingENSA_20_Default_ranged_hashENSA_20_Prime_rehash_policyENSA_17_Hashtable_traitsILb0ELb0ELb1EEEE9_M_rehashEmRKm
FNDA:9,_ZNSt10_HashtableIiSt4pairIKiSt14_List_iteratorIiEESaIS4_ENSt8__detail10_Select1stESt8equal_toIiESt4hashIiENS6_18_Mod_range_hashingENS6_20_Default_ranged_hashENS6_20_Prime_rehash_policyENS6_17_Hashtable_traitsILb0ELb0ELb1EEEE9_M_rehashEmRKm
FNDA:9,_ZNSt10_HashtableIiSt4pairIKibESaIS2_ENSt8__detail10_Select1stESt8equal_toIiESt4hashIiENS4_18_Mod_range_hashingENS4_20_Default_ranged_hashENS4_20_Prime_rehash_policyENS4_17_Hashtable_traitsILb0ELb0ELb1EEEE9_M_rehashEmRKm
FNDA:9,_ZNSt10_HashtableIiSt4pairIKiiESaIS2_ENSt8__detail10_Select1stESt8equal_toIiESt4hashIiENS4_18_Mod_range_hashingENS4_20_Default_ranged_hashENS4_20_Prime_rehash_policyENS4_17_Hashtable_traitsILb0ELb0ELb1EEEE9_M_rehashEmRKm
FNDA:9,_ZNSt10_HashtableIiSt4pairIKiSt10unique_ptrIN5sqlcc4PageESt14default_deleteIS4_EEESaIS8_ENSt8__detail10_Select1stESt8equal_toIiESt4hashIiENSA_18_Mod_range_hashingENSA_20_Default_ranged_hashENSA_20_Prime_rehash_policyENSA_17_Hashtable_traitsILb0ELb0ELb1EEEE13_M_rehash_auxEmSt17integral_constantIbLb1EE
FNDA:9,_ZNSt10_HashtableIiSt4pairIKiSt14_List_iteratorIiEESaIS4_ENSt8__detail10_Select1stESt8equal_toIiESt4hashIiENS6_18_Mod_range_hashingENS6_20_Default_ranged_hashENS6_20_Prime_rehash_policyENS6_17_Hashtable_traitsILb0ELb0ELb1EEEE13_M_rehash_auxEmSt17integral_constantIbLb1EE
FNDA:9,_ZNSt10_HashtableIiSt4pairIKibESaIS2_ENSt8__detail10_Select1stESt8equal_toIiESt4hashIiENS4_18_Mod_range_hashingENS4_20_Default_ranged_hashENS4_20_Prime_rehash_policyENS4_17_Hashtable_traitsILb0ELb0ELb1EEEE13_M_rehash_auxEmSt17integral_constantIbLb1EE
FNDA:9,_ZNSt10_HashtableIiSt4pairIKiiESaIS2_ENSt8__detail10_Select1stESt8equal_toIiESt4hashIiENS4_18_Mod_range_hashingENS4_20_Default_ranged_hashENS4_20_Prime_rehash_policyENS4_17_Hashtable_traitsILb0ELb0ELb1EEEE13_M_rehash_auxEmSt17integral_constantIbLb1EE
FNDA:112,_ZNSt10_HashtableIiSt4pairIKiSt10unique_ptrIN5sqlcc4PageESt14default_deleteIS4_EEESaIS8_ENSt8__detail10_Select1stESt8equal_toIiESt4hashIiENSA_18_Mod_range_hashingENSA_20_Default_ranged_hashENSA_20_Prime_rehash_policyENSA_17_Hashtable_traitsILb0ELb0ELb1EEEE12_Scoped_nodeC2IJRKSt21piecewise_construct_tSt5tupleIJRS1_EESR_IJEEEEEPNSA_16_Hashtable_allocISaINSA_10_Hash_nodeIS8_Lb0EEEEEEDpOT_
FNDA:112,_ZNSt10_HashtableIiSt4pairIKiSt14_List_iteratorIiEESaIS4_ENSt8__detail10_Select1stESt8equal_toIiESt4hashIiENS6_18_Mod_range_hashingENS6_20_Default_ranged_hashENS6_20_Prime_rehash_policyENS6_17_Hashtable_traitsILb0ELb0ELb1EEEE12_Scoped_nodeC2IJRKSt21piecewise_construct_tSt5tupleIJRS1_EESN_IJEEEEEPNS6_16_Hashtable_allocISaINS6_10_Hash_nodeIS4_Lb0EEEEEEDpOT_
FNDA:112,_ZNSt10_HashtableIiSt4pairIKibESaIS2_ENSt8__detail10_Select1stESt8equal_toIiESt4hashIiENS4_18_Mod_range_hashingENS4_20_Default_ranged_hashENS4_20_Prime_rehash_policyENS4_17_Hashtable_traitsILb0ELb0ELb1EEEE12_Scoped_nodeC2IJRKSt21piecewise_construct_tSt5tupleIJRS1_EESL_IJEEEEEPNS4_16_Hashtable_allocISaINS4_10_Hash_nodeIS2_Lb0EEEEEEDpOT_
FNDA:112,_ZNSt10_HashtableIiSt4pairIKiiESaIS2_ENSt8__detail10_Select1stESt8equal_toIiESt4hashIiENS4_18_Mod_range_hashingENS4_20_Default_ranged_hashENS4_20_Prime_rehash_policyENS4_17_Hashtable_traitsILb0ELb0ELb1EEEE12_Scoped_nodeC2IJRKSt21piecewise_construct_tSt5tupleIJRS1_EESL_IJEEEEEPNS4_16_Hashtable_allocISaINS4_10_Hash_nodeIS2_Lb0EEEEEEDpOT_
FNDA:112,_ZNSt10_HashtableIiSt4pairIKiSt10unique_ptrIN5sqlcc4PageESt14default_deleteIS4_EEESaIS8_ENSt8__detail10_Select1stESt8equal_toIiESt4hashIiENSA_18_Mod_range_hashingENSA_20_Default_ranged_hashENSA_20_Prime_rehash_policyENSA_17_Hashtable_traitsILb0ELb0ELb1EEEE12_Scoped_nodeD2Ev
FNDA:112,_ZNSt10_HashtableIiSt4pairIKiSt14_List_iteratorIiEESaIS4_ENSt8__detail10_Select1stESt8equal_toIiESt4hashIiENS6_18_Mod_range_hashingENS6_20_Default_ranged_hashENS6_20_Prime_rehash_policyENS6_17_Hashtable_traitsILb0ELb0ELb1EEEE12_Scoped_nodeD2Ev
FNDA:112,_ZNSt10_HashtableIiSt4pairIKibESaIS2_ENSt8__detail10_Select1stESt8equal_toIiESt4hashIiENS4_18_Mod_range_hashingENS4_20_Default_ranged_hashENS4_20_Prime_rehash_policyENS4_17_Hashtable_traitsILb0ELb0ELb1EEEE12_Scoped_nodeD2Ev
FNDA:112,_ZNSt10_HashtableIiSt4pairIKiiESaIS2_ENSt8__detail10_Select1stESt8equal_toIiESt4hashIiENS4_18_Mod_range_hashingENS4_20_Default_ranged_hashENS4_20_Prime_rehash_policyENS4_17_Hashtable_traitsILb0ELb0ELb1EEEE12_Scoped_nodeD2Ev
FNDA:16,_ZNKSt10_HashtableIiSt4pairIKiSt10unique_ptrIN5sqlcc4PageESt14default_deleteIS4_EEESaIS8_ENSt8__detail10_Select1stESt8equal_toIiESt4hashIiENSA_18_Mod_range_hashingENSA_20_Default_ranged_hashENSA_20_Prime_rehash_policyENSA_17_Hashtable_traitsILb0ELb0ELb1EEEE21_M_uses_single_bucketEPPNSA_15_Hash_node_baseE
FNDA:16,_ZNKSt10_HashtableIiSt4pairIKiSt14_List_iteratorIiEESaIS4_ENSt8__detail10_Select1stESt8equal_toIiESt4hashIiENS6_18_Mod_range_hashingENS6_20_Default_ranged_hashENS6_20_Prime_rehash_policyENS6_17_Hashtable_traitsILb0ELb0ELb1EEEE21_M_uses_single_bucketEPPNS6_15_Hash_node_baseE
FNDA:16,_ZNKSt10_HashtableIiSt4pairIKibESaIS2_ENSt8__detail10_Select1stESt8equal_toIiESt4hashIiENS4_18_Mod_range_hashingENS4_20_Default_ranged_hashENS4_20_Prime_rehash_policyENS4_17_Hashtable_traitsILb0ELb0ELb1EEEE21_M_uses_single_bucketEPPNS4_15_Hash_node_baseE
FNDA:16,_ZNKSt10_HashtableIiSt4pairIKiiESaIS2_ENSt8__detail10_Select1stESt8equal_toIiESt4hashIiENS4_18_Mod_range_hashingENS4_20_Default_ranged_hashENS4_20_Prime_rehash_policyENS4_17_Hashtable_traitsILb0ELb0ELb1EEEE21_M_uses_single_bucketEPPNS4_15_Hash_node_baseE
FNDA:210,_ZNSt10_HashtableIiSt4pairIKiSt10unique_ptrIN5sqlcc4PageESt14default_deleteIS4_EEESaIS8_ENSt8__detail10_Select1stESt8equal_toIiESt4hashIiENSA_18_Mod_range_hashingENSA_20_Default_ranged_hashENSA_20_Prime_rehash_policyENSA_17_Hashtable_traitsILb0ELb0ELb1EEEE22__small_size_thresholdEv
FNDA:48,_ZNSt10_HashtableIiSt4pairIKiSt14_List_iteratorIiEESaIS4_ENSt8__detail10_Select1stESt8equal_toIiESt4hashIiENS6_18_Mod_range_hashingENS6_20_Default_ranged_hashENS6_20_Prime_rehash_policyENS6_17_Hashtable_traitsILb0ELb0ELb1EEEE22__small_size_thresholdEv
FNDA:118,_ZNSt10_HashtableIiSt4pairIKibESaIS2_ENSt8__detail10_Select1stESt8equal_toIiESt4hashIiENS4_18_Mod_range_hashingENS4_20_Default_ranged_hashENS4_20_Prime_rehash_policyENS4_17_Hashtable_traitsILb0ELb0ELb1EEEE22__small_size_thresholdEv
FNDA:159,_ZNSt10_HashtableIiSt4pairIKiiESaIS2_ENSt8__detail10_Select1stESt8equal_toIiESt4hashIiENS4_18_Mod_range_hashingENS4_20_Default_ranged_hashENS4_20_Prime_rehash_policyENS4_17_Hashtable_traitsILb0ELb0ELb1EEEE22__small_size_thresholdEv
FNDA:9,_ZNSt10_HashtableIiSt4pairIKiSt10unique_ptrIN5sqlcc4PageESt14default_deleteIS4_EEESaIS8_ENSt8__detail10_Select1stESt8equal_toIiESt4hashIiENSA_18_Mod_range_hashingENSA_20_Default_ranged_hashENSA_20_Prime_rehash_policyENSA_17_Hashtable_traitsILb0ELb0ELb1EEEE19_M_allocate_bucketsEm
FNDA:9,_ZNSt10_HashtableIiSt4pairIKiSt14_List_iteratorIiEESaIS4_ENSt8__detail10_Select1stESt8equal_toIiESt4hashIiENS6_18_Mod_range_hashingENS6_20_Default_ranged_hashENS6_20_Prime_rehash_policyENS6_17_Hashtable_traitsILb0ELb0ELb1EEEE19_M_allocate_bucketsEm
FNDA:9,_ZNSt10_HashtableIiSt4pairIKibESaIS2_ENSt8__detail10_Select1stESt8equal_toIiESt4hashIiENS4_18_Mod_range_hashingENS4_20_Default_ranged_hashENS4_20_Prime_rehash_policyENS4_17_Hashtable_traitsILb0ELb0ELb1EEEE19_M_allocate_bucketsEm
FNDA:9,_ZNSt10_HashtableIiSt4pairIKiiESaIS2_ENSt8__detail10_Select1stESt8equal_toIiESt4hashIiENS4_18_Mod_range_hashingENS4_20_Default_ranged_hashENS4_20_Prime_rehash_policyENS4_17_Hashtable_traitsILb0ELb0ELb1EEEE19_M_allocate_bucketsEm
FNDA:16,_ZNSt10_HashtableIiSt4pairIKiSt10unique_ptrIN5sqlcc4PageESt14default_deleteIS4_EEESaIS8_ENSt8__detail10_Select1stESt8equal_toIiESt4hashIiENSA_18_Mod_range_hashingENSA_20_Default_ranged_hashENSA_20_Prime_rehash_policyENSA_17_Hashtable_traitsILb0ELb0ELb1EEEE21_M_deallocate_bucketsEPPNSA_15_Hash_node_baseEm
FNDA:16,_ZNSt10_HashtableIiSt4pairIKiSt14_List_iteratorIiEESaIS4_ENSt8__detail10_Select1stESt8equal_toIiESt4hashIiENS6_18_Mod_range_hashingENS6_20_Default_ranged_hashENS6_20_Prime_rehash_policyENS6_17_Hashtable_traitsILb0ELb0ELb1EEEE21_M_deallocate_bucketsEPPNS6_15_Hash_node_baseEm
FNDA:16,_ZNSt10_HashtableIiSt4pairIKibESaIS2_ENSt8__detail10_Select1stESt8equal_toIiESt4hashIiENS4_18_Mod_range_hashingENS4_20_Default_ranged_hashENS4_20_Prime_rehash_policyENS4_17_Hashtable_traitsILb0ELb0ELb1EEEE21_M_deallocate_bucketsEPPNS4_15_Hash_node_baseEm
FNDA:16,_ZNSt10_HashtableIiSt4pairIKiiESaIS2_ENSt8__detail10_Select1stESt8equal_toIiESt4hashIiENS4_18_Mod_range_hashingENS4_20_Default_ranged_hashENS4_20_Prime_rehash_policyENS4_17_Hashtable_traitsILb0ELb0ELb1EEEE21_M_deallocate_bucketsEPPNS4_15_Hash_node_baseEm
FNDA:16,_ZNSt10_HashtableIiSt4pairIKiSt10unique_ptrIN5sqlcc4PageESt14default_deleteIS4_EEESaIS8_ENSt8__detail10_Select1stESt8equal_toIiESt4hashIiENSA_18_Mod_range_hashingENSA_20_Default_ranged_hashENSA_20_Prime_rehash_policyENSA_17_Hashtable_traitsILb0ELb0ELb1EEEE21_M_deallocate_bucketsEv
FNDA:16,_ZNSt10_HashtableIiSt4pairIKiSt14_List_iteratorIiEESaIS4_ENSt8__detail10_Select1stESt8equal_toIiESt4hashIiENS6_18_Mod_range_hashingENS6_20_Default_ranged_hashENS6_20_Prime_rehash_policyENS6_17_Hashtable_traitsILb0ELb0ELb1EEEE21_M_deallocate_bucketsEv
FNDA:16,_ZNSt10_HashtableIiSt4pairIKibESaIS2_ENSt8__detail10_Select1stESt8equal_toIiESt4hashIiENS4_18_Mod_range_hashingENS4_20_Default_ranged_hashENS4_20_Prime_rehash_policyENS4_17_Hashtable_traitsILb0ELb0ELb1EEEE21_M_deallocate_bucketsEv
FNDA:16,_ZNSt10_HashtableIiSt4pairIKiiESaIS2_ENSt8__detail10_Select1stESt8equal_toIiESt4hashIiENS4_18_Mod_range_hashingENS4_20_Default_ranged_hashENS4_20_Prime_rehash_policyENS4_17_Hashtable_traitsILb0ELb0ELb1EEEE21_M_deallocate_bucketsEv
FNDA:25,_ZNKSt10_HashtableIiSt4pairIKiSt10unique_ptrIN5sqlcc4PageESt14default_deleteIS4_EEESaIS8_ENSt8__detail10_Select1stESt8equal_toIiESt4hashIiENSA_18_Mod_range_hashingENSA_20_Default_ranged_hashENSA_20_Prime_rehash_policyENSA_17_Hashtable_traitsILb0ELb0ELb1EEEE8_M_beginEv
FNDA:16,_ZNKSt10_HashtableIiSt4pairIKiSt14_List_iteratorIiEESaIS4_ENSt8__detail10_Select1stESt8equal_toIiESt4hashIiENS6_18_Mod_range_hashingENS6_20_Default_ranged_hashENS6_20_Prime_rehash_policyENS6_17_Hashtable_traitsILb0ELb0ELb1EEEE8_M_beginEv
FNDA:16,_ZNKSt10_HashtableIiSt4pairIKibESaIS2_ENSt8__detail10_Select1stESt8equal_toIiESt4hashIiENS4_18_Mod_range_hashingENS4_20_Default_ranged_hashENS4_20_Prime_rehash_policyENS4_17_Hashtable_traitsILb0ELb0ELb1EEEE8_M_beginEv
FNDA:16,_ZNKSt10_HashtableIiSt4pairIKiiESaIS2_ENSt8__detail10_Select1stESt8equal_toIiESt4hashIiENS4_18_Mod_range_hashingENS4_20_Default_ranged_hashENS4_20_Prime_rehash_policyENS4_17_Hashtable_traitsILb0ELb0ELb1EEEE8_M_beginEv
FNDA:7,_ZNSt10_HashtableIiSt4pairIKiSt10unique_ptrIN5sqlcc4PageESt14default_deleteIS4_EEESaIS8_ENSt8__detail10_Select1stESt8equal_toIiESt4hashIiENSA_18_Mod_range_hashingENSA_20_Default_ranged_hashENSA_20_Prime_rehash_policyENSA_17_Hashtable_traitsILb0ELb0ELb1EEEEC2Ev
FNDA:7,_ZNSt10_HashtableIiSt4pairIKiSt14_List_iteratorIiEESaIS4_ENSt8__detail10_Select1stESt8equal_toIiESt4hashIiENS6_18_Mod_range_hashingENS6_20_Default_ranged_hashENS6_20_Prime_rehash_policyENS6_17_Hashtable_traitsILb0ELb0ELb1EEEEC2Ev
FNDA:7,_ZNSt10_HashtableIiSt4pairIKibESaIS2_ENSt8__detail10_Select1stESt8equal_toIiESt4hashIiENS4_18_Mod_range_hashingENS4_20_Default_ranged_hashENS4_20_Prime_rehash_policyENS4_17_Hashtable_traitsILb0ELb0ELb1EEEEC2Ev
FNDA:7,_ZNSt10_HashtableIiSt4pairIKiiESaIS2_ENSt8__detail10_Select1stESt8equal_toIiESt4hashIiENS4_18_Mod_range_hashingENS4_20_Default_ranged_hashENS4_20_Prime_rehash_policyENS4_17_Hashtable_traitsILb0ELb0ELb1EEEEC2Ev
FNDA:9,_ZNSt10_HashtableIiSt4pairIKiSt10unique_ptrIN5sqlcc4PageESt14default_deleteIS4_EEESaIS8_ENSt8__detail10_Select1stESt8equal_toIiESt4hashIiENSA_18_Mod_range_hashingENSA_20_Default_ranged_hashENSA_20_Prime_rehash_policyENSA_17_Hashtable_traitsILb0ELb0ELb1EEEE5beginEv
FNDA:0,_ZNSt10_HashtableIiSt4pairIKiSt14_List_iteratorIiEESaIS4_ENSt8__detail10_Select1stESt8equal_toIiESt4hashIiENS6_18_Mod_range_hashingENS6_20_Default_ranged_hashENS6_20_Prime_rehash_policyENS6_17_Hashtable_traitsILb0ELb0ELb1EEEE5beginEv
FNDA:0,_ZNSt10_HashtableIiSt4pairIKibESaIS2_ENSt8__detail10_Select1stESt8equal_toIiESt4hashIiENS4_18_Mod_range_hashingENS4_20_Default_ranged_hashENS4_20_Prime_rehash_policyENS4_17_Hashtable_traitsILb0ELb0ELb1EEEE5beginEv
FNDA:0,_ZNSt10_HashtableIiSt4pairIKiiESaIS2_ENSt8__detail10_Select1stESt8equal_toIiESt4hashIiENS4_18_Mod_range_hashingENS4_20_Default_ranged_hashENS4_20_Prime_rehash_policyENS4_17_Hashtable_traitsILb0ELb0ELb1EEEE5beginEv
FNDA:181,_ZNSt10_HashtableIiSt4pairIKiSt10unique_ptrIN5sqlcc4PageESt14default_deleteIS4_EEESaIS8_ENSt8__detail10_Select1stESt8equal_toIiESt4hashIiENSA_18_Mod_range_hashingENSA_20_Default_ranged_hashENSA_20_Prime_rehash_policyENSA_17_Hashtable_traitsILb0ELb0ELb1EEEE3endEv
FNDA:9,_ZNSt10_HashtableIiSt4pairIKiSt14_List_iteratorIiEESaIS4_ENSt8__detail10_Select1stESt8equal_toIiESt4hashIiENS6_18_Mod_range_hashingENS6_20_Default_ranged_hashENS6_20_Prime_rehash_policyENS6_17_Hashtable_traitsILb0ELb0ELb1EEEE3endEv
FNDA:156,_ZNSt10_HashtableIiSt4pairIKibESaIS2_ENSt8__detail10_Select1stESt8equal_toIiESt4hashIiENS4_18_Mod_range_hashingENS4_20_Default_ranged_hashENS4_20_Prime_rehash_policyENS4_17_Hashtable_traitsILb0ELb0ELb1EEEE3endEv
FNDA:197,_ZNSt10_HashtableIiSt4pairIKiiESaIS2_ENSt8__detail10_Select1stESt8equal_toIiESt4hashIiENS4_18_Mod_range_hashingENS4_20_Default_ranged_hashENS4_20_Prime_rehash_policyENS4_17_Hashtable_traitsILb0ELb0ELb1EEEE3endEv
FNDA:323,_ZNKSt10_HashtableIiSt4pairIKiSt10unique_ptrIN5sqlcc4PageESt14default_deleteIS4_EEESaIS8_ENSt8__detail10_Select1stESt8equal_toIiESt4hashIiENSA_18_Mod_range_hashingENSA_20_Default_ranged_hashENSA_20_Prime_rehash_policyENSA_17_Hashtable_traitsILb0ELb0ELb1EEEE4sizeEv
FNDA:48,_ZNKSt10_HashtableIiSt4pairIKiSt14_List_iteratorIiEESaIS4_ENSt8__detail10_Select1stESt8equal_toIiESt4hashIiENS6_18_Mod_range_hashingENS6_20_Default_ranged_hashENS6_20_Prime_rehash_policyENS6_17_Hashtable_traitsILb0ELb0ELb1EEEE4sizeEv
FNDA:118,_ZNKSt10_HashtableIiSt4pairIKibESaIS2_ENSt8__detail10_Select1stESt8equal_toIiESt4hashIiENS4_18_Mod_range_hashingENS4_20_Default_ranged_hashENS4_20_Prime_rehash_policyENS4_17_Hashtable_traitsILb0ELb0ELb1EEEE4sizeEv
FNDA:159,_ZNKSt10_HashtableIiSt4pairIKiiESaIS2_ENSt8__detail10_Select1stESt8equal_toIiESt4hashIiENS4_18_Mod_range_hashingENS4_20_Default_ranged_hashENS4_20_Prime_rehash_policyENS4_17_Hashtable_traitsILb0ELb0ELb1EEEE4sizeEv
FNDA:148,_ZNKSt10_HashtableIiSt4pairIKiSt10unique_ptrIN5sqlcc4PageESt14default_deleteIS4_EEESaIS8_ENSt8__detail10_Select1stESt8equal_toIiESt4hashIiENSA_18_Mod_range_hashingENSA_20_Default_ranged_hashENSA_20_Prime_rehash_policyENSA_17_Hashtable_traitsILb0ELb0ELb1EEEE15_M_bucket_indexERKNSA_16_Hash_node_valueIS8_Lb0EEE
FNDA:148,_ZNKSt10_HashtableIiSt4pairIKiSt14_List_iteratorIiEESaIS4_ENSt8__detail10_Select1stESt8equal_toIiESt4hashIiENS6_18_Mod_range_hashingENS6_20_Default_ranged_hashENS6_20_Prime_rehash_policyENS6_17_Hashtable_traitsILb0ELb0ELb1EEEE15_M_bucket_indexERKNS6_16_Hash_node_valueIS4_Lb0EEE
FNDA:186,_ZNKSt10_HashtableIiSt4pairIKibESaIS2_ENSt8__detail10_Select1stESt8equal_toIiESt4hashIiENS4_18_Mod_range_hashingENS4_20_Default_ranged_hashENS4_20_Prime_rehash_policyENS4_17_Hashtable_traitsILb0ELb0ELb1EEEE15_M_bucket_indexERKNS4_16_Hash_node_valueIS2_Lb0EEE
FNDA:186,_ZNKSt10_HashtableIiSt4pairIKiiESaIS2_ENSt8__detail10_Select1stESt8equal_toIiESt4hashIiENS4_18_Mod_range_hashingENS4_20_Default_ranged_hashENS4_20_Prime_rehash_policyENS4_17_Hashtable_traitsILb0ELb0ELb1EEEE15_M_bucket_indexERKNS4_16_Hash_node_valueIS2_Lb0EEE
FNDA:330,_ZNKSt10_HashtableIiSt4pairIKiSt10unique_ptrIN5sqlcc4PageESt14default_deleteIS4_EEESaIS8_ENSt8__detail10_Select1stESt8equal_toIiESt4hashIiENSA_18_Mod_range_hashingENSA_20_Default_ranged_hashENSA_20_Prime_rehash_policyENSA_17_Hashtable_traitsILb0ELb0ELb1EEEE15_M_bucket_indexEm
FNDA:177,_ZNKSt10_HashtableIiSt4pairIKiSt14_List_iteratorIiEESaIS4_ENSt8__detail10_Select1stESt8equal_toIiESt4hashIiENS6_18_Mod_range_hashingENS6_20_Default_ranged_hashENS6_20_Prime_rehash_policyENS6_17_Hashtable_traitsILb0ELb0ELb1EEEE15_M_bucket_indexEm
FNDA:296,_ZNKSt10_HashtableIiSt4pairIKibESaIS2_ENSt8__detail10_Select1stESt8equal_toIiESt4hashIiENS4_18_Mod_range_hashingENS4_20_Default_ranged_hashENS4_20_Prime_rehash_policyENS4_17_Hashtable_traitsILb0ELb0ELb1EEEE15_M_bucket_indexEm
FNDA:288,_ZNKSt10_HashtableIiSt4pairIKiiESaIS2_ENSt8__detail10_Select1stESt8equal_toIiESt4hashIiENS4_18_Mod_range_hashingENS4_20_Default_ranged_hashENS4_20_Prime_rehash_policyENS4_17_Hashtable_traitsILb0ELb0ELb1EEEE15_M_bucket_indexEm
FNDA:282,_ZNKSt10_HashtableIiSt4pairIKiSt10unique_ptrIN5sqlcc4PageESt14default_deleteIS4_EEESaIS8_ENSt8__detail10_Select1stESt8equal_toIiESt4hashIiENSA_18_Mod_range_hashingENSA_20_Default_ranged_hashENSA_20_Prime_rehash_policyENSA_17_Hashtable_traitsILb0ELb0ELb1EEEE12_M_find_nodeEmRS1_m
FNDA:129,_ZNKSt10_HashtableIiSt4pairIKiSt14_List_iteratorIiEESaIS4_ENSt8__detail10_Select1stESt8equal_toIiESt4hashIiENS6_18_Mod_range_hashingENS6_20_Default_ranged_hashENS6_20_Prime_rehash_policyENS6_17_Hashtable_traitsILb0ELb0ELb1EEEE12_M_find_nodeEmRS1_m
FNDA:286,_ZNKSt10_HashtableIiSt4pairIKibESaIS2_ENSt8__detail10_Select1stESt8equal_toIiESt4hashIiENS4_18_Mod_range_hashingENS4_20_Default_ranged_hashENS4_20_Prime_rehash_policyENS4_17_Hashtable_traitsILb0ELb0ELb1EEEE12_M_find_nodeEmRS1_m
FNDA:278,_ZNKSt10_HashtableIiSt4pairIKiiESaIS2_ENSt8__detail10_Select1stESt8equal_toIiESt4hashIiENS4_18_Mod_range_hashingENS4_20_Default_ranged_hashENS4_20_Prime_rehash_policyENS4_17_Hashtable_traitsILb0ELb0ELb1EEEE12_M_find_nodeEmRS1_m
FNDA:1,_ZNSt10_HashtableIiSt4pairIKiSt10unique_ptrIN5sqlcc4PageESt14default_deleteIS4_EEESaIS8_ENSt8__detail10_Select1stESt8equal_toIiESt4hashIiENSA_18_Mod_range_hashingENSA_20_Default_ranged_hashENSA_20_Prime_rehash_policyENSA_17_Hashtable_traitsILb0ELb0ELb1EEEE5eraseENSA_14_Node_iteratorIS8_Lb0ELb0EEE
FNDA:1,_ZNSt10_HashtableIiSt4pairIKiSt14_List_iteratorIiEESaIS4_ENSt8__detail10_Select1stESt8equal_toIiESt4hashIiENS6_18_Mod_range_hashingENS6_20_Default_ranged_hashENS6_20_Prime_rehash_policyENS6_17_Hashtable_traitsILb0ELb0ELb1EEEE5eraseENS6_14_Node_iteratorIS4_Lb0ELb0EEE
FNDA:39,_ZNSt10_HashtableIiSt4pairIKibESaIS2_ENSt8__detail10_Select1stESt8equal_toIiESt4hashIiENS4_18_Mod_range_hashingENS4_20_Default_ranged_hashENS4_20_Prime_rehash_policyENS4_17_Hashtable_traitsILb0ELb0ELb1EEEE5eraseENS4_14_Node_iteratorIS2_Lb0ELb0EEE
FNDA:39,_ZNSt10_HashtableIiSt4pairIKiiESaIS2_ENSt8__detail10_Select1stESt8equal_toIiESt4hashIiENS4_18_Mod_range_hashingENS4_20_Default_ranged_hashENS4_20_Prime_rehash_policyENS4_17_Hashtable_traitsILb0ELb0ELb1EEEE5eraseENS4_14_Node_iteratorIS2_Lb0ELb0EEE
FNDA:39,_ZNSt10_HashtableIiSt4pairIKiSt10unique_ptrIN5sqlcc4PageESt14default_deleteIS4_EEESaIS8_ENSt8__detail10_Select1stESt8equal_toIiESt4hashIiENSA_18_Mod_range_hashingENSA_20_Default_ranged_hashENSA_20_Prime_rehash_policyENSA_17_Hashtable_traitsILb0ELb0ELb1EEEE5eraseERS1_
FNDA:39,_ZNSt10_HashtableIiSt4pairIKiSt14_List_iteratorIiEESaIS4_ENSt8__detail10_Select1stESt8equal_toIiESt4hashIiENS6_18_Mod_range_hashingENS6_20_Default_ranged_hashENS6_20_Prime_rehash_policyENS6_17_Hashtable_traitsILb0ELb0ELb1EEEE5eraseERS1_
FNDA:1,_ZNSt10_HashtableIiSt4pairIKibESaIS2_ENSt8__detail10_Select1stESt8equal_toIiESt4hashIiENS4_18_Mod_range_hashingENS4_20_Default_ranged_hashENS4_20_Prime_rehash_policyENS4_17_Hashtable_traitsILb0ELb0ELb1EEEE5eraseERS1_
FNDA:1,_ZNSt10_HashtableIiSt4pairIKiiESaIS2_ENSt8__detail10_Select1stESt8equal_toIiESt4hashIiENS4_18_Mod_range_hashingENS4_20_Default_ranged_hashENS4_20_Prime_rehash_policyENS4_17_Hashtable_traitsILb0ELb0ELb1EEEE5eraseERS1_
FNF:124
FNH:117
DA:305,448
DA:306,448
DA:307,448
DA:308,448
DA:311,448
DA:416,64
DA:417,64
DA:424,535
DA:427,535
DA:434,36
DA:436,36
DA:438,0
DA:439,0
DA:442,36
DA:446,64
DA:448,64
DA:449,28
DA:451,36
DA:455,64
DA:456,64
DA:464,73
DA:465,73
DA:530,28
DA:623,9
DA:624,9
DA:631,543
DA:632,543
DA:647,648
DA:648,648
DA:792,668
DA:793,668
DA:796,1091
DA:797,1091
DA:812,975
DA:815,975
DA:816,975
DA:817,524
DA:818,451
DA:979,80
DA:980,80
DA:983,80
DA:984,80
DA:1595,28
DA:1608,28
DA:1609,28
DA:1610,28
DA:1664,455
DA:1669,455
DA:1671,1
DA:1672,0
DA:1673,0
DA:1674,1
DA:1677,454
DA:1678,454
DA:1679,454
DA:1919,0
DA:1924,0
DA:1925,0
DA:1926,0
DA:1928,0
DA:1929,0
DA:1930,0
DA:1932,0
DA:1933,0
DA:1935,0
DA:1938,0
DA:1948,1055
DA:1954,1055
DA:1955,1055
DA:1956,439
DA:1958,616
DA:1959,0
DA:1961,616
DA:1962,604
DA:1964,12
DA:1965,12
DA:1966,0
DA:1969,12
DA:2007,448
DA:2011,448
DA:2015,0
DA:2016,0
DA:2023,448
DA:2024,448
DA:2026,448
DA:2029,424
DA:2031,448
DA:2033,448
DA:2040,160
DA:2045,160
DA:2049,160
DA:2050,156
DA:2053,160
DA:2054,4
DA:2055,160
DA:2057,160
DA:2064,80
DA:2069,80
DA:2070,80
DA:2071,0
DA:2072,80
DA:2166,448
DA:2172,448
DA:2174,448
DA:2177,448
DA:2179,36
DA:2180,36
DA:2183,448
DA:2186,448
DA:2187,448
DA:2188,448
DA:2316,80
DA:2321,80
DA:2322,80
DA:2327,80
DA:2328,80
DA:2336,160
DA:2341,160
DA:2342,160
DA:2343,160
DA:2344,0
DA:2346,0
DA:2347,0
DA:2348,0
DA:2351,160
DA:2352,160
DA:2353,160
DA:2354,160
DA:2356,160
DA:2364,80
DA:2372,80
DA:2374,0
DA:2375,0
DA:2376,0
DA:2379,0
DA:2380,0
DA:2384,80
DA:2385,80
DA:2388,80
DA:2389,80
DA:2390,0
DA:2393,80
DA:2396,80
DA:2397,80
DA:2520,28
DA:2524,28
DA:2525,28
DA:2526,28
DA:2527,28
DA:2528,28
DA:2529,28
DA:2559,36
DA:2565,36
DA:2567,0
DA:2571,0
DA:2572,0
DA:2574,36
DA:2582,36
DA:2586,36
DA:2587,36
DA:2588,36
DA:2589,36
DA:2590,440
DA:2592,404
DA:2594,404
DA:2595,404
DA:2597,404
DA:2598,404
DA:2599,404
DA:2600,404
DA:2601,392
DA:2602,404
DA:2606,0
DA:2607,0
DA:2610,404
DA:2613,36
DA:2614,36
DA:2615,36
DA:2616,36
LF:179
LH:144
end_of_record
TN:
SF:/usr/include/c++/13/bits/hashtable_policy.h
FN:112,113,_ZNKSt8__detail10_Select1stclIRKSt4pairIKiSt10unique_ptrIN5sqlcc4PageESt14default_deleteIS6_EEEEEONS0_10__1st_typeIT_E4typeEOSE_
FN:112,113,_ZNKSt8__detail10_Select1stclIRKSt4pairIKiSt14_List_iteratorIiEEEEONS0_10__1st_typeIT_E4typeEOSA_
FN:112,113,_ZNKSt8__detail10_Select1stclIRKSt4pairIKibEEEONS0_10__1st_typeIT_E4typeEOS8_
FN:112,113,_ZNKSt8__detail10_Select1stclIRKSt4pairIKiiEEEONS0_10__1st_typeIT_E4typeEOS8_
FN:1218,1218,_ZNSt8__detail21_Hashtable_ebo_helperILi0ESaINS_10_Hash_nodeISt4pairIKiSt10unique_ptrIN5sqlcc4PageESt14default_deleteIS6_EEELb0EEEELb1EEC2Ev
FN:1218,1218,_ZNSt8__detail21_Hashtable_ebo_helperILi0ESaINS_10_Hash_nodeISt4pairIKiSt14_List_iteratorIiEELb0EEEELb1EEC2Ev
FN:1218,1218,_ZNSt8__detail21_Hashtable_ebo_helperILi0ESaINS_10_Hash_nodeISt4pairIKibELb0EEEELb1EEC2Ev
FN:1218,1218,_ZNSt8__detail21_Hashtable_ebo_helperILi0ESaINS_10_Hash_nodeISt4pairIKiiELb0EEEELb1EEC2Ev
FN:1218,1218,_ZNSt8__detail21_Hashtable_ebo_helperILi0ESt8equal_toIiELb1EEC2Ev
FN:1218,1218,_ZNSt8__detail21_Hashtable_ebo_helperILi1ESt4hashIiELb1EEC2Ev
FN:1225,1225,_ZNKSt8__detail21_Hashtable_ebo_helperILi0ESt8equal_toIiELb1EE7_M_cgetEv
FN:1225,1225,_ZNKSt8__detail21_Hashtable_ebo_helperILi1ESt4hashIiELb1EE7_M_cgetEv
FN:1226,1226,_ZNSt8__detail21_Hashtable_ebo_helperILi0ESaINS_10_Hash_nodeISt4pairIKiSt10unique_ptrIN5sqlcc4PageESt14default_deleteIS6_EEELb0EEEELb1EE6_M_getEv
FN:1226,1226,_ZNSt8__detail21_Hashtable_ebo_helperILi0ESaINS_10_Hash_nodeISt4pairIKiSt14_List_iteratorIiEELb0EEEELb1EE6_M_getEv
FN:1226,1226,_ZNSt8__detail21_Hashtable_ebo_helperILi0ESaINS_10_Hash_nodeISt4pairIKibELb0EEEELb1EE6_M_getEv
FN:1226,1226,_ZNSt8__detail21_Hashtable_ebo_helperILi0ESaINS_10_Hash_nodeISt4pairIKiiELb0EEEELb1EE6_M_getEv
FN:1301,1301,_ZNSt8__detail15_Hash_code_baseIiSt4pairIKiSt10unique_ptrIN5sqlcc4PageESt14default_deleteIS5_EEENS_10_Select1stESt4hashIiENS_18_Mod_range_hashingENS_20_Default_ranged_hashELb0EEC2Ev
FN:1301,1301,_ZNSt8__detail15_Hash_code_baseIiSt4pairIKiSt14_List_iteratorIiEENS_10_Select1stESt4hashIiENS_18_Mod_range_hashingENS_20_Default_ranged_hashELb0EEC2Ev
FN:1301,1301,_ZNSt8__detail15_Hash_code_baseIiSt4pairIKibENS_10_Select1stESt4hashIiENS_18_Mod_range_hashingENS_20_Default_ranged_hashELb0EEC2Ev
FN:1301,1301,_ZNSt8__detail15_Hash_code_baseIiSt4pairIKiiENS_10_Select1stESt4hashIiENS_18_Mod_range_hashingENS_20_Default_ranged_hashELb0EEC2Ev
FN:1306,1311,_ZNKSt8__detail15_Hash_code_baseIiSt4pairIKiSt10unique_ptrIN5sqlcc4PageESt14default_deleteIS5_EEENS_10_Select1stESt4hashIiENS_18_Mod_range_hashingENS_20_Default_ranged_hashELb0EE12_M_hash_codeERS2_
FN:1306,1311,_ZNKSt8__detail15_Hash_code_baseIiSt4pairIKiSt14_List_iteratorIiEENS_10_Select1stESt4hashIiENS_18_Mod_range_hashingENS_20_Default_ranged_hashELb0EE12_M_hash_codeERS2_
FN:1306,1311,_ZNKSt8__detail15_Hash_code_baseIiSt4pairIKibENS_10_Select1stESt4hashIiENS_18_Mod_range_hashingENS_20_Default_ranged_hashELb0EE12_M_hash_codeERS2_
FN:1306,1311,_ZNKSt8__detail15_Hash_code_baseIiSt4pairIKiiENS_10_Select1stESt4hashIiENS_18_Mod_range_hashingENS_20_Default_ranged_hashELb0EE12_M_hash_codeERS2_
FN:1331,1332,_ZNKSt8__detail15_Hash_code_baseIiSt4pairIKiSt10unique_ptrIN5sqlcc4PageESt14default_deleteIS5_EEENS_10_Select1stESt4hashIiENS_18_Mod_range_hashingENS_20_Default_ranged_hashELb0EE15_M_bucket_indexEmm
FN:1331,1332,_ZNKSt8__detail15_Hash_code_baseIiSt4pairIKiSt14_List_iteratorIiEENS_10_Select1stESt4hashIiENS_18_Mod_range_hashingENS_20_Default_ranged_hashELb0EE15_M_bucket_indexEmm
FN:1331,1332,_ZNKSt8__detail15_Hash_code_baseIiSt4pairIKibENS_10_Select1stESt4hashIiENS_18_Mod_range_hashingENS_20_Default_ranged_hashELb0EE15_M_bucket_indexEmm
FN:1331,1332,_ZNKSt8__detail15_Hash_code_baseIiSt4pairIKiiENS_10_Select1stESt4hashIiENS_18_Mod_range_hashingENS_20_Default_ranged_hashELb0EE15_M_bucket_indexEmm
FN:1335,1343,_ZNKSt8__detail15_Hash_code_baseIiSt4pairIKiSt10unique_ptrIN5sqlcc4PageESt14default_deleteIS5_EEENS_10_Select1stESt4hashIiENS_18_Mod_range_hashingENS_20_Default_ranged_hashELb0EE15_M_bucket_indexERKNS_16_Hash_node_valueIS9_Lb0EEEm
FN:1335,1343,_ZNKSt8__detail15_Hash_code_baseIiSt4pairIKiSt14_List_iteratorIiEENS_10_Select1stESt4hashIiENS_18_Mod_range_hashingENS_20_Default_ranged_hashELb0EE15_M_bucket_indexERKNS_16_Hash_node_valueIS5_Lb0EEEm
FN:1335,1343,_ZNKSt8__detail15_Hash_code_baseIiSt4pairIKibENS_10_Select1stESt4hashIiENS_18_Mod_range_hashingENS_20_Default_ranged_hashELb0EE15_M_bucket_indexERKNS_16_Hash_node_valueIS3_Lb0EEEm
FN:1335,1343,_ZNKSt8__detail15_Hash_code_baseIiSt4pairIKiiENS_10_Select1stESt4hashIiENS_18_Mod_range_hashingENS_20_Default_ranged_hashELb0EE15_M_bucket_indexERKNS_16_Hash_node_valueIS3_Lb0EEEm
FN:1353,1354,_ZNKSt8__detail15_Hash_code_baseIiSt4pairIKiSt10unique_ptrIN5sqlcc4PageESt14default_deleteIS5_EEENS_10_Select1stESt4hashIiENS_18_Mod_range_hashingENS_20_Default_ranged_hashELb0EE13_M_store_codeERNS_21_Hash_node_code_cacheILb0EEEm
FN:1353,1354,_ZNKSt8__detail15_Hash_code_baseIiSt4pairIKiSt14_List_iteratorIiEENS_10_Select1stESt4hashIiENS_18_Mod_range_hashingENS_20_Default_ranged_hashELb0EE13_M_store_codeERNS_21_Hash_node_code_cacheILb0EEEm
FN:1353,1354,_ZNKSt8__detail15_Hash_code_baseIiSt4pairIKibENS_10_Select1stESt4hashIiENS_18_Mod_range_hashingENS_20_Default_ranged_hashELb0EE13_M_store_codeERNS_21_Hash_node_code_cacheILb0EEEm
FN:1353,1354,_ZNKSt8__detail15_Hash_code_baseIiSt4pairIKiiENS_10_Select1stESt4hashIiENS_18_Mod_range_hashingENS_20_Default_ranged_hashELb0EE13_M_store_codeERNS_21_Hash_node_code_cacheILb0EEEm
FN:1375,1375,_ZNKSt8__detail15_Hash_code_baseIiSt4pairIKiSt10unique_ptrIN5sqlcc4PageESt14default_deleteIS5_EEENS_10_Select1stESt4hashIiENS_18_Mod_range_hashingENS_20_Default_ranged_hashELb0EE7_M_hashEv
FN:1375,1375,_ZNKSt8__detail15_Hash_code_baseIiSt4pairIKiSt14_List_iteratorIiEENS_10_Select1stESt4hashIiENS_18_Mod_range_hashingENS_20_Default_ranged_hashELb0EE7_M_hashEv
FN:1375,1375,_ZNKSt8__detail15_Hash_code_baseIiSt4pairIKibENS_10_Select1stESt4hashIiENS_18_Mod_range_hashingENS_20_Default_ranged_hashELb0EE7_M_hashEv
FN:1375,1375,_ZNKSt8__detail15_Hash_code_baseIiSt4pairIKiiENS_10_Select1stESt4hashIiENS_18_Mod_range_hashingENS_20_Default_ranged_hashELb0EE7_M_hashEv
FN:1683,1684,_ZNSt8__detail15_Hashtable_baseIiSt4pairIKiSt10unique_ptrIN5sqlcc4PageESt14default_deleteIS5_EEENS_10_Select1stESt8equal_toIiESt4hashIiENS_18_Mod_range_hashingENS_20_Default_ranged_hashENS_17_Hashtable_traitsILb0ELb0ELb1EEEE9_S_equalsEmRKNS_21_Hash_node_code_cacheILb0EEE
FN:1683,1684,_ZNSt8__detail15_Hashtable_baseIiSt4pairIKiSt14_List_iteratorIiEENS_10_Select1stESt8equal_toIiESt4hashIiENS_18_Mod_range_hashingENS_20_Default_ranged_hashENS_17_Hashtable_traitsILb0ELb0ELb1EEEE9_S_equalsEmRKNS_21_Hash_node_code_cacheILb0EEE
FN:1683,1684,_ZNSt8__detail15_Hashtable_baseIiSt4pairIKibENS_10_Select1stESt8equal_toIiESt4hashIiENS_18_Mod_range_hashingENS_20_Default_ranged_hashENS_17_Hashtable_traitsILb0ELb0ELb1EEEE9_S_equalsEmRKNS_21_Hash_node_code_cacheILb0EEE
FN:1683,1684,_ZNSt8__detail15_Hashtable_baseIiSt4pairIKiiENS_10_Select1stESt8equal_toIiESt4hashIiENS_18_Mod_range_hashingENS_20_Default_ranged_hashENS_17_Hashtable_traitsILb0ELb0ELb1EEEE9_S_equalsEmRKNS_21_Hash_node_code_cacheILb0EEE
FN:1701,1701,_ZNSt8__detail15_Hashtable_baseIiSt4pairIKiSt10unique_ptrIN5sqlcc4PageESt14default_deleteIS5_EEENS_10_Select1stESt8equal_toIiESt4hashIiENS_18_Mod_range_hashingENS_20_Default_ranged_hashENS_17_Hashtable_traitsILb0ELb0ELb1EEEEC2Ev
FN:1701,1701,_ZNSt8__detail15_Hashtable_baseIiSt4pairIKiSt14_List_iteratorIiEENS_10_Select1stESt8equal_toIiESt4hashIiENS_18_Mod_range_hashingENS_20_Default_ranged_hashENS_17_Hashtable_traitsILb0ELb0ELb1EEEEC2Ev
FN:1701,1701,_ZNSt8__detail15_Hashtable_baseIiSt4pairIKibENS_10_Select1stESt8equal_toIiESt4hashIiENS_18_Mod_range_hashingENS_20_Default_ranged_hashENS_17_Hashtable_traitsILb0ELb0ELb1EEEEC2Ev
FN:1701,1701,_ZNSt8__detail15_Hashtable_baseIiSt4pairIKiiENS_10_Select1stESt8equal_toIiESt4hashIiENS_18_Mod_range_hashingENS_20_Default_ranged_hashENS_17_Hashtable_traitsILb0ELb0ELb1EEEEC2Ev
FN:1708,1716,_ZNKSt8__detail15_Hashtable_baseIiSt4pairIKiSt10unique_ptrIN5sqlcc4PageESt14default_deleteIS5_EEENS_10_Select1stESt8equal_toIiESt4hashIiENS_18_Mod_range_hashingENS_20_Default_ranged_hashENS_17_Hashtable_traitsILb0ELb0ELb1EEEE13_M_key_equalsERS2_RKNS_16_Hash_node_valueIS9_Lb0EEE
FN:1708,1716,_ZNKSt8__detail15_Hashtable_baseIiSt4pairIKiSt14_List_iteratorIiEENS_10_Select1stESt8equal_toIiESt4hashIiENS_18_Mod_range_hashingENS_20_Default_ranged_hashENS_17_Hashtable_traitsILb0ELb0ELb1EEEE13_M_key_equalsERS2_RKNS_16_Hash_node_valueIS5_Lb0EEE
FN:1708,1716,_ZNKSt8__detail15_Hashtable_baseIiSt4pairIKibENS_10_Select1stESt8equal_toIiESt4hashIiENS_18_Mod_range_hashingENS_20_Default_ranged_hashENS_17_Hashtable_traitsILb0ELb0ELb1EEEE13_M_key_equalsERS2_RKNS_16_Hash_node_valueIS3_Lb0EEE
FN:1708,1716,_ZNKSt8__detail15_Hashtable_baseIiSt4pairIKiiENS_10_Select1stESt8equal_toIiESt4hashIiENS_18_Mod_range_hashingENS_20_Default_ranged_hashENS_17_Hashtable_traitsILb0ELb0ELb1EEEE13_M_key_equalsERS2_RKNS_16_Hash_node_valueIS3_Lb0EEE
FN:1732,1734,_ZNKSt8__detail15_Hashtable_baseIiSt4pairIKiSt10unique_ptrIN5sqlcc4PageESt14default_deleteIS5_EEENS_10_Select1stESt8equal_toIiESt4hashIiENS_18_Mod_range_hashingENS_20_Default_ranged_hashENS_17_Hashtable_traitsILb0ELb0ELb1EEEE9_M_equalsERS2_mRKNS_16_Hash_node_valueIS9_Lb0EEE
FN:1732,1734,_ZNKSt8__detail15_Hashtable_baseIiSt4pairIKiSt14_List_iteratorIiEENS_10_Select1stESt8equal_toIiESt4hashIiENS_18_Mod_range_hashingENS_20_Default_ranged_hashENS_17_Hashtable_traitsILb0ELb0ELb1EEEE9_M_equalsERS2_mRKNS_16_Hash_node_valueIS5_Lb0EEE
FN:1732,1734,_ZNKSt8__detail15_Hashtable_baseIiSt4pairIKibENS_10_Select1stESt8equal_toIiESt4hashIiENS_18_Mod_range_hashingENS_20_Default_ranged_hashENS_17_Hashtable_traitsILb0ELb0ELb1EEEE9_M_equalsERS2_mRKNS_16_Hash_node_valueIS3_Lb0EEE
FN:1732,1734,_ZNKSt8__detail15_Hashtable_baseIiSt4pairIKiiENS_10_Select1stESt8equal_toIiESt4hashIiENS_18_Mod_range_hashingENS_20_Default_ranged_hashENS_17_Hashtable_traitsILb0ELb0ELb1EEEE9_M_equalsERS2_mRKNS_16_Hash_node_valueIS3_Lb0EEE
FN:1760,1760,_ZNKSt8__detail15_Hashtable_baseIiSt4pairIKiSt10unique_ptrIN5sqlcc4PageESt14default_deleteIS5_EEENS_10_Select1stESt8equal_toIiESt4hashIiENS_18_Mod_range_hashingENS_20_Default_ranged_hashENS_17_Hashtable_traitsILb0ELb0ELb1EEEE5_M_eqEv
FN:1760,1760,_ZNKSt8__detail15_Hashtable_baseIiSt4pairIKiSt14_List_iteratorIiEENS_10_Select1stESt8equal_toIiESt4hashIiENS_18_Mod_range_hashingENS_20_Default_ranged_hashENS_17_Hashtable_traitsILb0ELb0ELb1EEEE5_M_eqEv
FN:1760,1760,_ZNKSt8__detail15_Hashtable_baseIiSt4pairIKibENS_10_Select1stESt8equal_toIiESt4hashIiENS_18_Mod_range_hashingENS_20_Default_ranged_hashENS_17_Hashtable_traitsILb0ELb0ELb1EEEE5_M_eqEv
FN:1760,1760,_ZNKSt8__detail15_Hashtable_baseIiSt4pairIKiiENS_10_Select1stESt8equal_toIiESt4hashIiENS_18_Mod_range_hashingENS_20_Default_ranged_hashENS_17_Hashtable_traitsILb0ELb0ELb1EEEE5_M_eqEv
FN:1940,1940,_ZNSt8__detail16_Hashtable_allocISaINS_10_Hash_nodeISt4pairIKiSt10unique_ptrIN5sqlcc4PageESt14default_deleteIS6_EEELb0EEEEEC2Ev
FN:1940,1940,_ZNSt8__detail16_Hashtable_allocISaINS_10_Hash_nodeISt4pairIKiSt14_List_iteratorIiEELb0EEEEEC2Ev
FN:1940,1940,_ZNSt8__detail16_Hashtable_allocISaINS_10_Hash_nodeISt4pairIKibELb0EEEEEC2Ev
FN:1940,1940,_ZNSt8__detail16_Hashtable_allocISaINS_10_Hash_nodeISt4pairIKiiELb0EEEEEC2Ev
FN:1950,1951,_ZNSt8__detail16_Hashtable_allocISaINS_10_Hash_nodeISt4pairIKiSt10unique_ptrIN5sqlcc4PageESt14default_deleteIS6_EEELb0EEEEE17_M_node_allocatorEv
FN:1950,1951,_ZNSt8__detail16_Hashtable_allocISaINS_10_Hash_nodeISt4pairIKiSt14_List_iteratorIiEELb0EEEEE17_M_node_allocatorEv
FN:1950,1951,_ZNSt8__detail16_Hashtable_allocISaINS_10_Hash_nodeISt4pairIKibELb0EEEEE17_M_node_allocatorEv
FN:1950,1951,_ZNSt8__detail16_Hashtable_allocISaINS_10_Hash_nodeISt4pairIKiiELb0EEEEE17_M_node_allocatorEv
FN:1987,2005,_ZNSt8__detail16_Hashtable_allocISaINS_10_Hash_nodeISt4pairIKiSt10unique_ptrIN5sqlcc4PageESt14default_deleteIS6_EEELb0EEEEE16_M_allocate_nodeIJRKSt21piecewise_construct_tSt5tupleIJRS3_EESI_IJEEEEEPSB_DpOT_
FN:1987,2005,_ZNSt8__detail16_Hashtable_allocISaINS_10_Hash_nodeISt4pairIKiSt14_List_iteratorIiEELb0EEEEE16_M_allocate_nodeIJRKSt21piecewise_construct_tSt5tupleIJRS3_EESE_IJEEEEEPS7_DpOT_
FN:1987,2005,_ZNSt8__detail16_Hashtable_allocISaINS_10_Hash_nodeISt4pairIKibELb0EEEEE16_M_allocate_nodeIJRKSt21piecewise_construct_tSt5tupleIJRS3_EESC_IJEEEEEPS5_DpOT_
FN:1987,2005,_ZNSt8__detail16_Hashtable_allocISaINS_10_Hash_nodeISt4pairIKiiELb0EEEEE16_M_allocate_nodeIJRKSt21piecewise_construct_tSt5tupleIJRS3_EESC_IJEEEEEPS5_DpOT_
FN:2009,2013,_ZNSt8__detail16_Hashtable_allocISaINS_10_Hash_nodeISt4pairIKiSt10unique_ptrIN5sqlcc4PageESt14default_deleteIS6_EEELb0EEEEE18_M_deallocate_nodeEPSB_
FN:2009,2013,_ZNSt8__detail16_Hashtable_allocISaINS_10_Hash_nodeISt4pairIKiSt14_List_iteratorIiEELb0EEEEE18_M_deallocate_nodeEPS7_
FN:2009,2013,_ZNSt8__detail16_Hashtable_allocISaINS_10_Hash_nodeISt4pairIKibELb0EEEEE18_M_deallocate_nodeEPS5_
FN:2009,2013,_ZNSt8__detail16_Hashtable_allocISaINS_10_Hash_nodeISt4pairIKiiELb0EEEEE18_M_deallocate_nodeEPS5_
FN:2017,2023,_ZNSt8__detail16_Hashtable_allocISaINS_10_Hash_nodeISt4pairIKiSt10unique_ptrIN5sqlcc4PageESt14default_deleteIS6_EEELb0EEEEE22_M_deallocate_node_ptrEPSB_
FN:2017,2023,_ZNSt8__detail16_Hashtable_allocISaINS_10_Hash_nodeISt4pairIKiSt14_List_iteratorIiEELb0EEEEE22_M_deallocate_node_ptrEPS7_
FN:2017,2023,_ZNSt8__detail16_Hashtable_allocISaINS_10_Hash_nodeISt4pairIKibELb0EEEEE22_M_deallocate_node_ptrEPS5_
FN:2017,2023,_ZNSt8__detail16_Hashtable_allocISaINS_10_Hash_nodeISt4pairIKiiELb0EEEEE22_M_deallocate_node_ptrEPS5_
FN:2027,2035,_ZNSt8__detail16_Hashtable_allocISaINS_10_Hash_nodeISt4pairIKiSt10unique_ptrIN5sqlcc4PageESt14default_deleteIS6_EEELb0EEEEE19_M_deallocate_nodesEPSB_
FN:2027,2035,_ZNSt8__detail16_Hashtable_allocISaINS_10_Hash_nodeISt4pairIKiSt14_List_iteratorIiEELb0EEEEE19_M_deallocate_nodesEPS7_
FN:2027,2035,_ZNSt8__detail16_Hashtable_allocISaINS_10_Hash_nodeISt4pairIKibELb0EEEEE19_M_deallocate_nodesEPS5_
FN:2027,2035,_ZNSt8__detail16_Hashtable_allocISaINS_10_Hash_nodeISt4pairIKiiELb0EEEEE19_M_deallocate_nodesEPS5_
FN:2039,2048,_ZNSt8__detail16_Hashtable_allocISaINS_10_Hash_nodeISt4pairIKiSt10unique_ptrIN5sqlcc4PageESt14default_deleteIS6_EEELb0EEEEE19_M_allocate_bucketsEm
FN:2039,2048,_ZNSt8__detail16_Hashtable_allocISaINS_10_Hash_nodeISt4pairIKiSt14_List_iteratorIiEELb0EEEEE19_M_allocate_bucketsEm
FN:2039,2048,_ZNSt8__detail16_Hashtable_allocISaINS_10_Hash_nodeISt4pairIKibELb0EEEEE19_M_allocate_bucketsEm
FN:2039,2048,_ZNSt8__detail16_Hashtable_allocISaINS_10_Hash_nodeISt4pairIKiiELb0EEEEE19_M_allocate_bucketsEm
FN:2052,2060,_ZNSt8__detail16_Hashtable_allocISaINS_10_Hash_nodeISt4pairIKiSt10unique_ptrIN5sqlcc4PageESt14default_deleteIS6_EEELb0EEEEE21_M_deallocate_bucketsEPPNS_15_Hash_node_baseEm
FN:2052,2060,_ZNSt8__detail16_Hashtable_allocISaINS_10_Hash_nodeISt4pairIKiSt14_List_iteratorIiEELb0EEEEE21_M_deallocate_bucketsEPPNS_15_Hash_node_baseEm
FN:2052,2060,_ZNSt8__detail16_Hashtable_allocISaINS_10_Hash_nodeISt4pairIKibELb0EEEEE21_M_deallocate_bucketsEPPNS_15_Hash_node_baseEm
FN:2052,2060,_ZNSt8__detail16_Hashtable_allocISaINS_10_Hash_nodeISt4pairIKiiELb0EEEEE21_M_deallocate_bucketsEPPNS_15_Hash_node_baseEm
FN:297,298,_ZNSt8__detail22_Hashtable_hash_traitsISt4hashIiEE22__small_size_thresholdEv
FN:313,313,_ZNSt8__detail15_Hash_node_baseC2Ev
FN:380,381,_ZNKSt8__detail10_Hash_nodeISt4pairIKiSt10unique_ptrIN5sqlcc4PageESt14default_deleteIS5_EEELb0EE7_M_nextEv
FN:380,381,_ZNKSt8__detail10_Hash_nodeISt4pairIKiSt14_List_iteratorIiEELb0EE7_M_nextEv
FN:380,381,_ZNKSt8__detail10_Hash_nodeISt4pairIKibELb0EE7_M_nextEv
FN:380,381,_ZNKSt8__detail10_Hash_nodeISt4pairIKiiELb0EE7_M_nextEv
FN:393,394,_ZNSt8__detail19_Node_iterator_baseISt4pairIKiSt10unique_ptrIN5sqlcc4PageESt14default_deleteIS5_EEELb0EEC2EPNS_10_Hash_nodeIS9_Lb0EEE
FN:393,394,_ZNSt8__detail19_Node_iterator_baseISt4pairIKiSt14_List_iteratorIiEELb0EEC2EPNS_10_Hash_nodeIS5_Lb0EEE
FN:393,394,_ZNSt8__detail19_Node_iterator_baseISt4pairIKibELb0EEC2EPNS_10_Hash_nodeIS3_Lb0EEE
FN:393,394,_ZNSt8__detail19_Node_iterator_baseISt4pairIKiiELb0EEC2EPNS_10_Hash_nodeIS3_Lb0EEE
FN:397,398,_ZNSt8__detail19_Node_iterator_baseISt4pairIKiSt10unique_ptrIN5sqlcc4PageESt14default_deleteIS5_EEELb0EE7_M_incrEv
FN:397,398,_ZNSt8__detail19_Node_iterator_baseISt4pairIKiSt14_List_iteratorIiEELb0EE7_M_incrEv
FN:397,398,_ZNSt8__detail19_Node_iterator_baseISt4pairIKibELb0EE7_M_incrEv
FN:397,398,_ZNSt8__detail19_Node_iterator_baseISt4pairIKiiELb0EE7_M_incrEv
FN:401,403,_ZNSt8__detaileqERKNS_19_Node_iterator_baseISt4pairIKiSt10unique_ptrIN5sqlcc4PageESt14default_deleteIS5_EEELb0EEESC_
FN:401,403,_ZNSt8__detaileqERKNS_19_Node_iterator_baseISt4pairIKiSt14_List_iteratorIiEELb0EEES8_
FN:401,403,_ZNSt8__detaileqERKNS_19_Node_iterator_baseISt4pairIKibELb0EEES6_
FN:401,403,_ZNSt8__detaileqERKNS_19_Node_iterator_baseISt4pairIKiiELb0EEES6_
FN:436,437,_ZNSt8__detail14_Node_iteratorISt4pairIKiSt10unique_ptrIN5sqlcc4PageESt14default_deleteIS5_EEELb0ELb0EEC2EPNS_10_Hash_nodeIS9_Lb0EEE
FN:436,437,_ZNSt8__detail14_Node_iteratorISt4pairIKiSt14_List_iteratorIiEELb0ELb0EEC2EPNS_10_Hash_nodeIS5_Lb0EEE
FN:436,437,_ZNSt8__detail14_Node_iteratorISt4pairIKibELb0ELb0EEC2EPNS_10_Hash_nodeIS3_Lb0EEE
FN:436,437,_ZNSt8__detail14_Node_iteratorISt4pairIKiiELb0ELb0EEC2EPNS_10_Hash_nodeIS3_Lb0EEE
FN:440,441,_ZNKSt8__detail14_Node_iteratorISt4pairIKiSt10unique_ptrIN5sqlcc4PageESt14default_deleteIS5_EEELb0ELb0EEdeEv
FN:444,445,_ZNKSt8__detail14_Node_iteratorISt4pairIKiSt10unique_ptrIN5sqlcc4PageESt14default_deleteIS5_EEELb0ELb0EEptEv
FN:444,445,_ZNKSt8__detail14_Node_iteratorISt4pairIKiSt14_List_iteratorIiEELb0ELb0EEptEv
FN:444,445,_ZNKSt8__detail14_Node_iteratorISt4pairIKibELb0ELb0EEptEv
FN:444,445,_ZNKSt8__detail14_Node_iteratorISt4pairIKiiELb0ELb0EEptEv
FN:448,452,_ZNSt8__detail14_Node_iteratorISt4pairIKiSt10unique_ptrIN5sqlcc4PageESt14default_deleteIS5_EEELb0ELb0EEppEv
FN:448,452,_ZNSt8__detail14_Node_iteratorISt4pairIKiSt14_List_iteratorIiEELb0ELb0EEppEv
FN:448,452,_ZNSt8__detail14_Node_iteratorISt4pairIKibELb0ELb0EEppEv
FN:448,452,_ZNSt8__detail14_Node_iteratorISt4pairIKiiELb0ELb0EEppEv
FN:486,488,_ZNSt8__detail20_Node_const_iteratorISt4pairIKiSt10unique_ptrIN5sqlcc4PageESt14default_deleteIS5_EEELb0ELb0EEC2ERKNS_14_Node_iteratorIS9_Lb0ELb0EEE
FN:486,488,_ZNSt8__detail20_Node_const_iteratorISt4pairIKiSt14_List_iteratorIiEELb0ELb0EEC2ERKNS_14_Node_iteratorIS5_Lb0ELb0EEE
FN:486,488,_ZNSt8__detail20_Node_const_iteratorISt4pairIKibELb0ELb0EEC2ERKNS_14_Node_iteratorIS3_Lb0ELb0EEE
FN:486,488,_ZNSt8__detail20_Node_const_iteratorISt4pairIKiiELb0ELb0EEC2ERKNS_14_Node_iteratorIS3_Lb0ELb0EEE
FN:526,528,_ZNKSt8__detail18_Mod_range_hashingclEmm
FN:544,545,_ZNSt8__detail20_Prime_rehash_policyC2Ef
FN:571,572,_ZNKSt8__detail20_Prime_rehash_policy8_M_stateEv
FN:579,580,_ZNSt8__detail20_Prime_rehash_policy8_M_resetEm
FN:807,828,_ZNSt8__detail9_Map_baseIiSt4pairIKiSt10unique_ptrIN5sqlcc4PageESt14default_deleteIS5_EEESaIS9_ENS_10_Select1stESt8equal_toIiESt4hashIiENS_18_Mod_range_hashingENS_20_Default_ranged_hashENS_20_Prime_rehash_policyENS_17_Hashtable_traitsILb0ELb0ELb1EEELb1EEixERS2_
FN:807,828,_ZNSt8__detail9_Map_baseIiSt4pairIKiSt14_List_iteratorIiEESaIS5_ENS_10_Select1stESt8equal_toIiESt4hashIiENS_18_Mod_range_hashingENS_20_Default_ranged_hashENS_20_Prime_rehash_policyENS_17_Hashtable_traitsILb0ELb0ELb1EEELb1EEixERS2_
FN:807,828,_ZNSt8__detail9_Map_baseIiSt4pairIKibESaIS3_ENS_10_Select1stESt8equal_toIiESt4hashIiENS_18_Mod_range_hashingENS_20_Default_ranged_hashENS_20_Prime_rehash_policyENS_17_Hashtable_traitsILb0ELb0ELb1EEELb1EEixERS2_
FN:807,828,_ZNSt8__detail9_Map_baseIiSt4pairIKiiESaIS3_ENS_10_Select1stESt8equal_toIiESt4hashIiENS_18_Mod_range_hashingENS_20_Default_ranged_hashENS_20_Prime_rehash_policyENS_17_Hashtable_traitsILb0ELb0ELb1EEELb1EEixERS2_
FNDA:458,_ZNKSt8__detail10_Select1stclIRKSt4pairIKiSt10unique_ptrIN5sqlcc4PageESt14default_deleteIS6_EEEEEONS0_10__1st_typeIT_E4typeEOSE_
FNDA:308,_ZNKSt8__detail10_Select1stclIRKSt4pairIKiSt14_List_iteratorIiEEEEONS0_10__1st_typeIT_E4typeEOSA_
FNDA:465,_ZNKSt8__detail10_Select1stclIRKSt4pairIKibEEEONS0_10__1st_typeIT_E4typeEOS8_
FNDA:457,_ZNKSt8__detail10_Select1stclIRKSt4pairIKiiEEEONS0_10__1st_typeIT_E4typeEOS8_
FNDA:7,_ZNSt8__detail21_Hashtable_ebo_helperILi0ESaINS_10_Hash_nodeISt4pairIKiSt10unique_ptrIN5sqlcc4PageESt14default_deleteIS6_EEELb0EEEELb1EEC2Ev
FNDA:7,_ZNSt8__detail21_Hashtable_ebo_helperILi0ESaINS_10_Hash_nodeISt4pairIKiSt14_List_iteratorIiEELb0EEEELb1EEC2Ev
FNDA:7,_ZNSt8__detail21_Hashtable_ebo_helperILi0ESaINS_10_Hash_nodeISt4pairIKibELb0EEEELb1EEC2Ev
FNDA:7,_ZNSt8__detail21_Hashtable_ebo_helperILi0ESaINS_10_Hash_nodeISt4pairIKiiELb0EEEELb1EEC2Ev
FNDA:28,_ZNSt8__detail21_Hashtable_ebo_helperILi0ESt8equal_toIiELb1EEC2Ev
FNDA:28,_ZNSt8__detail21_Hashtable_ebo_helperILi1ESt4hashIiELb1EEC2Ev
FNDA:616,_ZNKSt8__detail21_Hashtable_ebo_helperILi0ESt8equal_toIiELb1EE7_M_cgetEv
FNDA:2127,_ZNKSt8__detail21_Hashtable_ebo_helperILi1ESt4hashIiELb1EE7_M_cgetEv
FNDA:466,_ZNSt8__detail21_Hashtable_ebo_helperILi0ESaINS_10_Hash_nodeISt4pairIKiSt10unique_ptrIN5sqlcc4PageESt14default_deleteIS6_EEELb0EEEELb1EE6_M_getEv
FNDA:466,_ZNSt8__detail21_Hashtable_ebo_helperILi0ESaINS_10_Hash_nodeISt4pairIKiSt14_List_iteratorIiEELb0EEEELb1EE6_M_getEv
FNDA:466,_ZNSt8__detail21_Hashtable_ebo_helperILi0ESaINS_10_Hash_nodeISt4pairIKibELb0EEEELb1EE6_M_getEv
FNDA:466,_ZNSt8__detail21_Hashtable_ebo_helperILi0ESaINS_10_Hash_nodeISt4pairIKiiELb0EEEELb1EE6_M_getEv
FNDA:7,_ZNSt8__detail15_Hash_code_baseIiSt4pairIKiSt10unique_ptrIN5sqlcc4PageESt14default_deleteIS5_EEENS_10_Select1stESt4hashIiENS_18_Mod_range_hashingENS_20_Default_ranged_hashELb0EEC2Ev
FNDA:7,_ZNSt8__detail15_Hash_code_baseIiSt4pairIKiSt14_List_iteratorIiEENS_10_Select1stESt4hashIiENS_18_Mod_range_hashingENS_20_Default_ranged_hashELb0EEC2Ev
FNDA:7,_ZNSt8__detail15_Hash_code_baseIiSt4pairIKibENS_10_Select1stESt4hashIiENS_18_Mod_range_hashingENS_20_Default_ranged_hashELb0EEC2Ev
FNDA:7,_ZNSt8__detail15_Hash_code_baseIiSt4pairIKiiENS_10_Select1stESt4hashIiENS_18_Mod_range_hashingENS_20_Default_ranged_hashELb0EEC2Ev
FNDA:570,_ZNKSt8__detail15_Hash_code_baseIiSt4pairIKiSt10unique_ptrIN5sqlcc4PageESt14default_deleteIS5_EEENS_10_Select1stESt4hashIiENS_18_Mod_range_hashingENS_20_Default_ranged_hashELb0EE12_M_hash_codeERS2_
FNDA:417,_ZNKSt8__detail15_Hash_code_baseIiSt4pairIKiSt14_List_iteratorIiEENS_10_Select1stESt4hashIiENS_18_Mod_range_hashingENS_20_Default_ranged_hashELb0EE12_M_hash_codeERS2_
FNDA:574,_ZNKSt8__detail15_Hash_code_baseIiSt4pairIKibENS_10_Select1stESt4hashIiENS_18_Mod_range_hashingENS_20_Default_ranged_hashELb0EE12_M_hash_codeERS2_
FNDA:566,_ZNKSt8__detail15_Hash_code_baseIiSt4pairIKiiENS_10_Select1stESt4hashIiENS_18_Mod_range_hashingENS_20_Default_ranged_hashELb0EE12_M_hash_codeERS2_
FNDA:330,_ZNKSt8__detail15_Hash_code_baseIiSt4pairIKiSt10unique_ptrIN5sqlcc4PageESt14default_deleteIS5_EEENS_10_Select1stESt4hashIiENS_18_Mod_range_hashingENS_20_Default_ranged_hashELb0EE15_M_bucket_indexEmm
FNDA:177,_ZNKSt8__detail15_Hash_code_baseIiSt4pairIKiSt14_List_iteratorIiEENS_10_Select1stESt4hashIiENS_18_Mod_range_hashingENS_20_Default_ranged_hashELb0EE15_M_bucket_indexEmm
FNDA:296,_ZNKSt8__detail15_Hash_code_baseIiSt4pairIKibENS_10_Select1stESt4hashIiENS_18_Mod_range_hashingENS_20_Default_ranged_hashELb0EE15_M_bucket_indexEmm
FNDA:288,_ZNKSt8__detail15_Hash_code_baseIiSt4pairIKiiENS_10_Select1stESt4hashIiENS_18_Mod_range_hashingENS_20_Default_ranged_hashELb0EE15_M_bucket_indexEmm
FNDA:249,_ZNKSt8__detail15_Hash_code_baseIiSt4pairIKiSt10unique_ptrIN5sqlcc4PageESt14default_deleteIS5_EEENS_10_Select1stESt4hashIiENS_18_Mod_range_hashingENS_20_Default_ranged_hashELb0EE15_M_bucket_indexERKNS_16_Hash_node_valueIS9_Lb0EEEm
FNDA:249,_ZNKSt8__detail15_Hash_code_baseIiSt4pairIKiSt14_List_iteratorIiEENS_10_Select1stESt4hashIiENS_18_Mod_range_hashingENS_20_Default_ranged_hashELb0EE15_M_bucket_indexERKNS_16_Hash_node_valueIS5_Lb0EEEm
FNDA:287,_ZNKSt8__detail15_Hash_code_baseIiSt4pairIKibENS_10_Select1stESt4hashIiENS_18_Mod_range_hashingENS_20_Default_ranged_hashELb0EE15_M_bucket_indexERKNS_16_Hash_node_valueIS3_Lb0EEEm
FNDA:287,_ZNKSt8__detail15_Hash_code_baseIiSt4pairIKiiENS_10_Select1stESt4hashIiENS_18_Mod_range_hashingENS_20_Default_ranged_hashELb0EE15_M_bucket_indexERKNS_16_Hash_node_valueIS3_Lb0EEEm
FNDA:112,_ZNKSt8__detail15_Hash_code_baseIiSt4pairIKiSt10unique_ptrIN5sqlcc4PageESt14default_deleteIS5_EEENS_10_Select1stESt4hashIiENS_18_Mod_range_hashingENS_20_Default_ranged_hashELb0EE13_M_store_codeERNS_21_Hash_node_code_cacheILb0EEEm
FNDA:112,_ZNKSt8__detail15_Hash_code_baseIiSt4pairIKiSt14_List_iteratorIiEENS_10_Select1stESt4hashIiENS_18_Mod_range_hashingENS_20_Default_ranged_hashELb0EE13_M_store_codeERNS_21_Hash_node_code_cacheILb0EEEm
FNDA:112,_ZNKSt8__detail15_Hash_code_baseIiSt4pairIKibENS_10_Select1stESt4hashIiENS_18_Mod_range_hashingENS_20_Default_ranged_hashELb0EE13_M_store_codeERNS_21_Hash_node_code_cacheILb0EEEm
FNDA:112,_ZNKSt8__detail15_Hash_code_baseIiSt4pairIKiiENS_10_Select1stESt4hashIiENS_18_Mod_range_hashingENS_20_Default_ranged_hashELb0EE13_M_store_codeERNS_21_Hash_node_code_cacheILb0EEEm
FNDA:570,_ZNKSt8__detail15_Hash_code_baseIiSt4pairIKiSt10unique_ptrIN5sqlcc4PageESt14default_deleteIS5_EEENS_10_Select1stESt4hashIiENS_18_Mod_range_hashingENS_20_Default_ranged_hashELb0EE7_M_hashEv
FNDA:417,_ZNKSt8__detail15_Hash_code_baseIiSt4pairIKiSt14_List_iteratorIiEENS_10_Select1stESt4hashIiENS_18_Mod_range_hashingENS_20_Default_ranged_hashELb0EE7_M_hashEv
FNDA:574,_ZNKSt8__detail15_Hash_code_baseIiSt4pairIKibENS_10_Select1stESt4hashIiENS_18_Mod_range_hashingENS_20_Default_ranged_hashELb0EE7_M_hashEv
FNDA:566,_ZNKSt8__detail15_Hash_code_baseIiSt4pairIKiiENS_10_Select1stESt4hashIiENS_18_Mod_range_hashingENS_20_Default_ranged_hashELb0EE7_M_hashEv
FNDA:209,_ZNSt8__detail15_Hashtable_baseIiSt4pairIKiSt10unique_ptrIN5sqlcc4PageESt14default_deleteIS5_EEENS_10_Select1stESt8equal_toIiESt4hashIiENS_18_Mod_range_hashingENS_20_Default_ranged_hashENS_17_Hashtable_traitsILb0ELb0ELb1EEEE9_S_equalsEmRKNS_21_Hash_node_code_cacheILb0EEE
FNDA:59,_ZNSt8__detail15_Hashtable_baseIiSt4pairIKiSt14_List_iteratorIiEENS_10_Select1stESt8equal_toIiESt4hashIiENS_18_Mod_range_hashingENS_20_Default_ranged_hashENS_17_Hashtable_traitsILb0ELb0ELb1EEEE9_S_equalsEmRKNS_21_Hash_node_code_cacheILb0EEE
FNDA:178,_ZNSt8__detail15_Hashtable_baseIiSt4pairIKibENS_10_Select1stESt8equal_toIiESt4hashIiENS_18_Mod_range_hashingENS_20_Default_ranged_hashENS_17_Hashtable_traitsILb0ELb0ELb1EEEE9_S_equalsEmRKNS_21_Hash_node_code_cacheILb0EEE
FNDA:170,_ZNSt8__detail15_Hashtable_baseIiSt4pairIKiiENS_10_Select1stESt8equal_toIiESt4hashIiENS_18_Mod_range_hashingENS_20_Default_ranged_hashENS_17_Hashtable_traitsILb0ELb0ELb1EEEE9_S_equalsEmRKNS_21_Hash_node_code_cacheILb0EEE
FNDA:7,_ZNSt8__detail15_Hashtable_baseIiSt4pairIKiSt10unique_ptrIN5sqlcc4PageESt14default_deleteIS5_EEENS_10_Select1stESt8equal_toIiESt4hashIiENS_18_Mod_range_hashingENS_20_Default_ranged_hashENS_17_Hashtable_traitsILb0ELb0ELb1EEEEC2Ev
FNDA:7,_ZNSt8__detail15_Hashtable_baseIiSt4pairIKiSt14_List_iteratorIiEENS_10_Select1stESt8equal_toIiESt4hashIiENS_18_Mod_range_hashingENS_20_Default_ranged_hashENS_17_Hashtable_traitsILb0ELb0ELb1EEEEC2Ev
FNDA:7,_ZNSt8__detail15_Hashtable_baseIiSt4pairIKibENS_10_Select1stESt8equal_toIiESt4hashIiENS_18_Mod_range_hashingENS_20_Default_ranged_hashENS_17_Hashtable_traitsILb0ELb0ELb1EEEEC2Ev
FNDA:7,_ZNSt8__detail15_Hashtable_baseIiSt4pairIKiiENS_10_Select1stESt8equal_toIiESt4hashIiENS_18_Mod_range_hashingENS_20_Default_ranged_hashENS_17_Hashtable_traitsILb0ELb0ELb1EEEEC2Ev
FNDA:209,_ZNKSt8__detail15_Hashtable_baseIiSt4pairIKiSt10unique_ptrIN5sqlcc4PageESt14default_deleteIS5_EEENS_10_Select1stESt8equal_toIiESt4hashIiENS_18_Mod_range_hashingENS_20_Default_ranged_hashENS_17_Hashtable_traitsILb0ELb0ELb1EEEE13_M_key_equalsERS2_RKNS_16_Hash_node_valueIS9_Lb0EEE
FNDA:59,_ZNKSt8__detail15_Hashtable_baseIiSt4pairIKiSt14_List_iteratorIiEENS_10_Select1stESt8equal_toIiESt4hashIiENS_18_Mod_range_hashingENS_20_Default_ranged_hashENS_17_Hashtable_traitsILb0ELb0ELb1EEEE13_M_key_equalsERS2_RKNS_16_Hash_node_valueIS5_Lb0EEE
FNDA:178,_ZNKSt8__detail15_Hashtable_baseIiSt4pairIKibENS_10_Select1stESt8equal_toIiESt4hashIiENS_18_Mod_range_hashingENS_20_Default_ranged_hashENS_17_Hashtable_traitsILb0ELb0ELb1EEEE13_M_key_equalsERS2_RKNS_16_Hash_node_valueIS3_Lb0EEE
FNDA:170,_ZNKSt8__detail15_Hashtable_baseIiSt4pairIKiiENS_10_Select1stESt8equal_toIiESt4hashIiENS_18_Mod_range_hashingENS_20_Default_ranged_hashENS_17_Hashtable_traitsILb0ELb0ELb1EEEE13_M_key_equalsERS2_RKNS_16_Hash_node_valueIS3_Lb0EEE
FNDA:209,_ZNKSt8__detail15_Hashtable_baseIiSt4pairIKiSt10unique_ptrIN5sqlcc4PageESt14default_deleteIS5_EEENS_10_Select1stESt8equal_toIiESt4hashIiENS_18_Mod_range_hashingENS_20_Default_ranged_hashENS_17_Hashtable_traitsILb0ELb0ELb1EEEE9_M_equalsERS2_mRKNS_16_Hash_node_valueIS9_Lb0EEE
FNDA:59,_ZNKSt8__detail15_Hashtable_baseIiSt4pairIKiSt14_List_iteratorIiEENS_10_Select1stESt8equal_toIiESt4hashIiENS_18_Mod_range_hashingENS_20_Default_ranged_hashENS_17_Hashtable_traitsILb0ELb0ELb1EEEE9_M_equalsERS2_mRKNS_16_Hash_node_valueIS5_Lb0EEE
FNDA:178,_ZNKSt8__detail15_Hashtable_baseIiSt4pairIKibENS_10_Select1stESt8equal_toIiESt4hashIiENS_18_Mod_range_hashingENS_20_Default_ranged_hashENS_17_Hashtable_traitsILb0ELb0ELb1EEEE9_M_equalsERS2_mRKNS_16_Hash_node_valueIS3_Lb0EEE
FNDA:170,_ZNKSt8__detail15_Hashtable_baseIiSt4pairIKiiENS_10_Select1stESt8equal_toIiESt4hashIiENS_18_Mod_range_hashingENS_20_Default_ranged_hashENS_17_Hashtable_traitsILb0ELb0ELb1EEEE9_M_equalsERS2_mRKNS_16_Hash_node_valueIS3_Lb0EEE
FNDA:209,_ZNKSt8__detail15_Hashtable_baseIiSt4pairIKiSt10unique_ptrIN5sqlcc4PageESt14default_deleteIS5_EEENS_10_Select1stESt8equal_toIiESt4hashIiENS_18_Mod_range_hashingENS_20_Default_ranged_hashENS_17_Hashtable_traitsILb0ELb0ELb1EEEE5_M_eqEv
FNDA:59,_ZNKSt8__detail15_Hashtable_baseIiSt4pairIKiSt14_List_iteratorIiEENS_10_Select1stESt8equal_toIiESt4hashIiENS_18_Mod_range_hashingENS_20_Default_ranged_hashENS_17_Hashtable_traitsILb0ELb0ELb1EEEE5_M_eqEv
FNDA:178,_ZNKSt8__detail15_Hashtable_baseIiSt4pairIKibENS_10_Select1stESt8equal_toIiESt4hashIiENS_18_Mod_range_hashingENS_20_Default_ranged_hashENS_17_Hashtable_traitsILb0ELb0ELb1EEEE5_M_eqEv
FNDA:170,_ZNKSt8__detail15_Hashtable_baseIiSt4pairIKiiENS_10_Select1stESt8equal_toIiESt4hashIiENS_18_Mod_range_hashingENS_20_Default_ranged_hashENS_17_Hashtable_traitsILb0ELb0ELb1EEEE5_M_eqEv
FNDA:7,_ZNSt8__detail16_Hashtable_allocISaINS_10_Hash_nodeISt4pairIKiSt10unique_ptrIN5sqlcc4PageESt14default_deleteIS6_EEELb0EEEEEC2Ev
FNDA:7,_ZNSt8__detail16_Hashtable_allocISaINS_10_Hash_nodeISt4pairIKiSt14_List_iteratorIiEELb0EEEEEC2Ev
FNDA:7,_ZNSt8__detail16_Hashtable_allocISaINS_10_Hash_nodeISt4pairIKibELb0EEEEEC2Ev
FNDA:7,_ZNSt8__detail16_Hashtable_allocISaINS_10_Hash_nodeISt4pairIKiiELb0EEEEEC2Ev
FNDA:466,_ZNSt8__detail16_Hashtable_allocISaINS_10_Hash_nodeISt4pairIKiSt10unique_ptrIN5sqlcc4PageESt14default_deleteIS6_EEELb0EEEEE17_M_node_allocatorEv
FNDA:466,_ZNSt8__detail16_Hashtable_allocISaINS_10_Hash_nodeISt4pairIKiSt14_List_iteratorIiEELb0EEEEE17_M_node_allocatorEv
FNDA:466,_ZNSt8__detail16_Hashtable_allocISaINS_10_Hash_nodeISt4pairIKibELb0EEEEE17_M_node_allocatorEv
FNDA:466,_ZNSt8__detail16_Hashtable_allocISaINS_10_Hash_nodeISt4pairIKiiELb0EEEEE17_M_node_allocatorEv
FNDA:112,_ZNSt8__detail16_Hashtable_allocISaINS_10_Hash_nodeISt4pairIKiSt10unique_ptrIN5sqlcc4PageESt14default_deleteIS6_EEELb0EEEEE16_M_allocate_nodeIJRKSt21piecewise_construct_tSt5tupleIJRS3_EESI_IJEEEEEPSB_DpOT_
FNDA:112,_ZNSt8__detail16_Hashtable_allocISaINS_10_Hash_nodeISt4pairIKiSt14_List_iteratorIiEELb0EEEEE16_M_allocate_nodeIJRKSt21piecewise_construct_tSt5tupleIJRS3_EESE_IJEEEEEPS7_DpOT_
FNDA:112,_ZNSt8__detail16_Hashtable_allocISaINS_10_Hash_nodeISt4pairIKibELb0EEEEE16_M_allocate_nodeIJRKSt21piecewise_construct_tSt5tupleIJRS3_EESC_IJEEEEEPS5_DpOT_
FNDA:112,_ZNSt8__detail16_Hashtable_allocISaINS_10_Hash_nodeISt4pairIKiiELb0EEEEE16_M_allocate_nodeIJRKSt21piecewise_construct_tSt5tupleIJRS3_EESC_IJEEEEEPS5_DpOT_
FNDA:112,_ZNSt8__detail16_Hashtable_allocISaINS_10_Hash_nodeISt4pairIKiSt10unique_ptrIN5sqlcc4PageESt14default_deleteIS6_EEELb0EEEEE18_M_deallocate_nodeEPSB_
FNDA:112,_ZNSt8__detail16_Hashtable_allocISaINS_10_Hash_nodeISt4pairIKiSt14_List_iteratorIiEELb0EEEEE18_M_deallocate_nodeEPS7_
FNDA:112,_ZNSt8__detail16_Hashtable_allocISaINS_10_Hash_nodeISt4pairIKibELb0EEEEE18_M_deallocate_nodeEPS5_
FNDA:112,_ZNSt8__detail16_Hashtable_allocISaINS_10_Hash_nodeISt4pairIKiiELb0EEEEE18_M_deallocate_nodeEPS5_
FNDA:112,_ZNSt8__detail16_Hashtable_allocISaINS_10_Hash_nodeISt4pairIKiSt10unique_ptrIN5sqlcc4PageESt14default_deleteIS6_EEELb0EEEEE22_M_deallocate_node_ptrEPSB_
FNDA:112,_ZNSt8__detail16_Hashtable_allocISaINS_10_Hash_nodeISt4pairIKiSt14_List_iteratorIiEELb0EEEEE22_M_deallocate_node_ptrEPS7_
FNDA:112,_ZNSt8__detail16_Hashtable_allocISaINS_10_Hash_nodeISt4pairIKibELb0EEEEE22_M_deallocate_node_ptrEPS5_
FNDA:112,_ZNSt8__detail16_Hashtable_allocISaINS_10_Hash_nodeISt4pairIKiiELb0EEEEE22_M_deallocate_node_ptrEPS5_
FNDA:7,_ZNSt8__detail16_Hashtable_allocISaINS_10_Hash_nodeISt4pairIKiSt10unique_ptrIN5sqlcc4PageESt14default_deleteIS6_EEELb0EEEEE19_M_deallocate_nodesEPSB_
FNDA:7,_ZNSt8__detail16_Hashtable_allocISaINS_10_Hash_nodeISt4pairIKiSt14_List_iteratorIiEELb0EEEEE19_M_deallocate_nodesEPS7_
FNDA:7,_ZNSt8__detail16_Hashtable_allocISaINS_10_Hash_nodeISt4pairIKibELb0EEEEE19_M_deallocate_nodesEPS5_
FNDA:7,_ZNSt8__detail16_Hashtable_allocISaINS_10_Hash_nodeISt4pairIKiiELb0EEEEE19_M_deallocate_nodesEPS5_
FNDA:9,_ZNSt8__detail16_Hashtable_allocISaINS_10_Hash_nodeISt4pairIKiSt10unique_ptrIN5sqlcc4PageESt14default_deleteIS6_EEELb0EEEEE19_M_allocate_bucketsEm
FNDA:9,_ZNSt8__detail16_Hashtable_allocISaINS_10_Hash_nodeISt4pairIKiSt14_List_iteratorIiEELb0EEEEE19_M_allocate_bucketsEm
FNDA:9,_ZNSt8__detail16_Hashtable_allocISaINS_10_Hash_nodeISt4pairIKibELb0EEEEE19_M_allocate_bucketsEm
FNDA:9,_ZNSt8__detail16_Hashtable_allocISaINS_10_Hash_nodeISt4pairIKiiELb0EEEEE19_M_allocate_bucketsEm
FNDA:9,_ZNSt8__detail16_Hashtable_allocISaINS_10_Hash_nodeISt4pairIKiSt10unique_ptrIN5sqlcc4PageESt14default_deleteIS6_EEELb0EEEEE21_M_deallocate_bucketsEPPNS_15_Hash_node_baseEm
FNDA:9,_ZNSt8__detail16_Hashtable_allocISaINS_10_Hash_nodeISt4pairIKiSt14_List_iteratorIiEELb0EEEEE21_M_deallocate_bucketsEPPNS_15_Hash_node_baseEm
FNDA:9,_ZNSt8__detail16_Hashtable_allocISaINS_10_Hash_nodeISt4pairIKibELb0EEEEE21_M_deallocate_bucketsEPPNS_15_Hash_node_baseEm
FNDA:9,_ZNSt8__detail16_Hashtable_allocISaINS_10_Hash_nodeISt4pairIKiiELb0EEEEE21_M_deallocate_bucketsEPPNS_15_Hash_node_baseEm
FNDA:535,_ZNSt8__detail22_Hashtable_hash_traitsISt4hashIiEE22__small_size_thresholdEv
FNDA:476,_ZNSt8__detail15_Hash_node_baseC2Ev
FNDA:477,_ZNKSt8__detail10_Hash_nodeISt4pairIKiSt10unique_ptrIN5sqlcc4PageESt14default_deleteIS5_EEELb0EE7_M_nextEv
FNDA:400,_ZNKSt8__detail10_Hash_nodeISt4pairIKiSt14_List_iteratorIiEELb0EE7_M_nextEv
FNDA:400,_ZNKSt8__detail10_Hash_nodeISt4pairIKibELb0EE7_M_nextEv
FNDA:400,_ZNKSt8__detail10_Hash_nodeISt4pairIKiiELb0EE7_M_nextEv
FNDA:513,_ZNSt8__detail19_Node_iterator_baseISt4pairIKiSt10unique_ptrIN5sqlcc4PageESt14default_deleteIS5_EEELb0EEC2EPNS_10_Hash_nodeIS9_Lb0EEE
FNDA:171,_ZNSt8__detail19_Node_iterator_baseISt4pairIKiSt14_List_iteratorIiEELb0EEC2EPNS_10_Hash_nodeIS5_Lb0EEE
FNDA:464,_ZNSt8__detail19_Node_iterator_baseISt4pairIKibELb0EEC2EPNS_10_Hash_nodeIS3_Lb0EEE
FNDA:546,_ZNSt8__detail19_Node_iterator_baseISt4pairIKiiELb0EEC2EPNS_10_Hash_nodeIS3_Lb0EEE
FNDA:77,_ZNSt8__detail19_Node_iterator_baseISt4pairIKiSt10unique_ptrIN5sqlcc4PageESt14default_deleteIS5_EEELb0EE7_M_incrEv
FNDA:0,_ZNSt8__detail19_Node_iterator_baseISt4pairIKiSt14_List_iteratorIiEELb0EE7_M_incrEv
FNDA:0,_ZNSt8__detail19_Node_iterator_baseISt4pairIKibELb0EE7_M_incrEv
FNDA:0,_ZNSt8__detail19_Node_iterator_baseISt4pairIKiiELb0EE7_M_incrEv
FNDA:257,_ZNSt8__detaileqERKNS_19_Node_iterator_baseISt4pairIKiSt10unique_ptrIN5sqlcc4PageESt14default_deleteIS5_EEELb0EEESC_
FNDA:9,_ZNSt8__detaileqERKNS_19_Node_iterator_baseISt4pairIKiSt14_List_iteratorIiEELb0EEES8_
FNDA:156,_ZNSt8__detaileqERKNS_19_Node_iterator_baseISt4pairIKibELb0EEES6_
FNDA:197,_ZNSt8__detaileqERKNS_19_Node_iterator_baseISt4pairIKiiELb0EEES6_
FNDA:512,_ZNSt8__detail14_Node_iteratorISt4pairIKiSt10unique_ptrIN5sqlcc4PageESt14default_deleteIS5_EEELb0ELb0EEC2EPNS_10_Hash_nodeIS9_Lb0EEE
FNDA:170,_ZNSt8__detail14_Node_iteratorISt4pairIKiSt14_List_iteratorIiEELb0ELb0EEC2EPNS_10_Hash_nodeIS5_Lb0EEE
FNDA:425,_ZNSt8__detail14_Node_iteratorISt4pairIKibELb0ELb0EEC2EPNS_10_Hash_nodeIS3_Lb0EEE
FNDA:507,_ZNSt8__detail14_Node_iteratorISt4pairIKiiELb0ELb0EEC2EPNS_10_Hash_nodeIS3_Lb0EEE
FNDA:77,_ZNKSt8__detail14_Node_iteratorISt4pairIKiSt10unique_ptrIN5sqlcc4PageESt14default_deleteIS5_EEELb0ELb0EEdeEv
FNDA:160,_ZNKSt8__detail14_Node_iteratorISt4pairIKiSt10unique_ptrIN5sqlcc4PageESt14default_deleteIS5_EEELb0ELb0EEptEv
FNDA:121,_ZNKSt8__detail14_Node_iteratorISt4pairIKiSt14_List_iteratorIiEELb0ELb0EEptEv
FNDA:298,_ZNKSt8__detail14_Node_iteratorISt4pairIKibELb0ELb0EEptEv
FNDA:506,_ZNKSt8__detail14_Node_iteratorISt4pairIKiiELb0ELb0EEptEv
FNDA:77,_ZNSt8__detail14_Node_iteratorISt4pairIKiSt10unique_ptrIN5sqlcc4PageESt14default_deleteIS5_EEELb0ELb0EEppEv
FNDA:0,_ZNSt8__detail14_Node_iteratorISt4pairIKiSt14_List_iteratorIiEELb0ELb0EEppEv
FNDA:0,_ZNSt8__detail14_Node_iteratorISt4pairIKibELb0ELb0EEppEv
FNDA:0,_ZNSt8__detail14_Node_iteratorISt4pairIKiiELb0ELb0EEppEv
FNDA:1,_ZNSt8__detail20_Node_const_iteratorISt4pairIKiSt10unique_ptrIN5sqlcc4PageESt14default_deleteIS5_EEELb0ELb0EEC2ERKNS_14_Node_iteratorIS9_Lb0ELb0EEE
FNDA:1,_ZNSt8__detail20_Node_const_iteratorISt4pairIKiSt14_List_iteratorIiEELb0ELb0EEC2ERKNS_14_Node_iteratorIS5_Lb0ELb0EEE
FNDA:39,_ZNSt8__detail20_Node_const_iteratorISt4pairIKibELb0ELb0EEC2ERKNS_14_Node_iteratorIS3_Lb0ELb0EEE
FNDA:39,_ZNSt8__detail20_Node_const_iteratorISt4pairIKiiELb0ELb0EEC2ERKNS_14_Node_iteratorIS3_Lb0ELb0EEE
FNDA:2163,_ZNKSt8__detail18_Mod_range_hashingclEmm
FNDA:28,_ZNSt8__detail20_Prime_rehash_policyC2Ef
FNDA:448,_ZNKSt8__detail20_Prime_rehash_policy8_M_stateEv
FNDA:0,_ZNSt8__detail20_Prime_rehash_policy8_M_resetEm
FNDA:112,_ZNSt8__detail9_Map_baseIiSt4pairIKiSt10unique_ptrIN5sqlcc4PageESt14default_deleteIS5_EEESaIS9_ENS_10_Select1stESt8equal_toIiESt4hashIiENS_18_Mod_range_hashingENS_20_Default_ranged_hashENS_20_Prime_rehash_policyENS_17_Hashtable_traitsILb0ELb0ELb1EEELb1EEixERS2_
FNDA:120,_ZNSt8__detail9_Map_baseIiSt4pairIKiSt14_List_iteratorIiEESaIS5_ENS_10_Select1stESt8equal_toIiESt4hashIiENS_18_Mod_range_hashingENS_20_Default_ranged_hashENS_20_Prime_rehash_policyENS_17_Hashtable_traitsILb0ELb0ELb1EEELb1EEixERS2_
FNDA:169,_ZNSt8__detail9_Map_baseIiSt4pairIKibESaIS3_ENS_10_Select1stESt8equal_toIiESt4hashIiENS_18_Mod_range_hashingENS_20_Default_ranged_hashENS_20_Prime_rehash_policyENS_17_Hashtable_traitsILb0ELb0ELb1EEELb1EEixERS2_
FNDA:120,_ZNSt8__detail9_Map_baseIiSt4pairIKiiESaIS3_ENS_10_Select1stESt8equal_toIiESt4hashIiENS_18_Mod_range_hashingENS_20_Default_ranged_hashENS_20_Prime_rehash_policyENS_17_Hashtable_traitsILb0ELb0ELb1EEELb1EEixERS2_
FNF:135
FNH:128
DA:112,1688
DA:113,1688
DA:297,535
DA:298,535
DA:313,476
DA:333,2131
DA:338,1688
DA:343,150
DA:348,1688
DA:380,1677
DA:381,1677
DA:393,1694
DA:394,1694
DA:397,77
DA:398,77
DA:401,619
DA:403,619
DA:436,1614
DA:437,1614
DA:440,77
DA:441,154
DA:444,1085
DA:445,2170
DA:448,77
DA:450,77
DA:451,77
DA:486,80
DA:488,80
DA:526,2163
DA:528,2163
DA:544,28
DA:545,28
DA:571,448
DA:572,448
DA:579,0
DA:580,0
DA:807,521
DA:812,521
DA:813,521
DA:814,521
DA:815,521
DA:816,146
DA:818,448
DA:821,448
DA:822,0
DA:825,448
DA:826,448
DA:827,448
DA:828,448
DA:1218,84
DA:1225,2743
DA:1226,1864
DA:1301,28
DA:1306,2127
DA:1310,2127
DA:1331,1091
DA:1332,1091
DA:1335,1072
DA:1341,3216
DA:1342,1072
DA:1353,448
DA:1354,448
DA:1375,2127
DA:1683,616
DA:1684,616
DA:1701,28
DA:1708,616
DA:1715,1232
DA:1732,616
DA:1734,616
DA:1760,616
DA:1940,28
DA:1950,1864
DA:1951,1864
DA:1987,448
DA:1990,448
DA:1991,448
DA:1994,448
DA:1995,896
DA:1998,448
DA:2000,0
DA:2002,0
DA:2003,0
DA:2009,448
DA:2011,896
DA:2012,448
DA:2013,448
DA:2017,448
DA:2020,448
DA:2021,448
DA:2022,448
DA:2023,448
DA:2027,28
DA:2029,316
DA:2031,288
DA:2032,288
DA:2033,288
DA:2035,28
DA:2039,36
DA:2042,36
DA:2044,36
DA:2045,36
DA:2046,36
DA:2047,72
DA:2052,36
DA:2057,36
DA:2058,36
DA:2060,36
LF:108
LH:102
end_of_record
TN:
SF:/usr/include/c++/13/bits/ios_base.h
FN:130,131,_ZStorSt13_Ios_OpenmodeS_
FN:170,171,_ZStorSt12_Ios_IostateS_
FN:182,183,_ZStoRRSt12_Ios_IostateS_
FN:662,663,_ZNKSt8ios_base5flagsEv
FN:806,807,_ZNKSt8ios_base6getlocEv
FN:83,84,_ZStanSt13_Ios_FmtflagsS_
FNDA:21,_ZStorSt13_Ios_OpenmodeS_
FNDA:0,_ZStorSt12_Ios_IostateS_
FNDA:0,_ZStoRRSt12_Ios_IostateS_
FNDA:0,_ZNKSt8ios_base5flagsEv
FNDA:76,_ZNKSt8ios_base6getlocEv
FNDA:0,_ZStanSt13_Ios_FmtflagsS_
FNF:6
FNH:2
DA:83,0
DA:84,0
DA:130,21
DA:131,21
DA:170,0
DA:171,0
DA:182,0
DA:183,0
DA:662,0
DA:663,0
DA:806,76
DA:807,76
LF:12
LH:4
end_of_record
TN:
SF:/usr/include/c++/13/bits/list.tcc
FN:150,160,_ZNSt7__cxx114listIiSaIiEE5eraseESt20_List_const_iteratorIiE
FN:66,83,_ZNSt7__cxx1110_List_baseIiSaIiEE8_M_clearEv
FNDA:9,_ZNSt7__cxx114listIiSaIiEE5eraseESt20_List_const_iteratorIiE
FNDA:7,_ZNSt7__cxx1110_List_baseIiSaIiEE8_M_clearEv
FNF:2
FNH:2
DA:66,7
DA:70,7
DA:71,79
DA:73,72
DA:74,72
DA:75,72
DA:77,72
DA:81,72
DA:83,7
DA:150,9
DA:157,9
DA:158,9
DA:159,9
LF:13
LH:13
end_of_record
TN:
SF:/usr/include/c++/13/bits/move.h
FN:138,139,_ZSt9addressofIKcEPT_RS1_
FN:138,139,_ZSt9addressofINSt8__detail10_Hash_nodeISt4pairIKiSt10unique_ptrIN5sqlcc4PageESt14default_deleteIS6_EEELb0EEEEPT_RSC_
FN:138,139,_ZSt9addressofINSt8__detail10_Hash_nodeISt4pairIKiSt14_List_iteratorIiEELb0EEEEPT_RS8_
FN:138,139,_ZSt9addressofINSt8__detail10_Hash_nodeISt4pairIKibELb0EEEEPT_RS6_
FN:138,139,_ZSt9addressofINSt8__detail10_Hash_nodeISt4pairIKiiELb0EEEEPT_RS6_
FN:138,139,_ZSt9addressofIPNSt8__detail15_Hash_node_baseEEPT_RS3_
FN:138,139,_ZSt9addressofIcEPT_RS0_
FN:51,52,_ZSt11__addressofIKcEPT_RS1_
FN:51,52,_ZSt11__addressofINSt8__detail10_Hash_nodeISt4pairIKiSt10unique_ptrIN5sqlcc4PageESt14default_deleteIS6_EEELb0EEEEPT_RSC_
FN:51,52,_ZSt11__addressofINSt8__detail10_Hash_nodeISt4pairIKiSt14_List_iteratorIiEELb0EEEEPT_RS8_
FN:51,52,_ZSt11__addressofINSt8__detail10_Hash_nodeISt4pairIKibELb0EEEEPT_RS6_
FN:51,52,_ZSt11__addressofINSt8__detail10_Hash_nodeISt4pairIKiiELb0EEEEPT_RS6_
FN:51,52,_ZSt11__addressofIPNSt8__detail15_Hash_node_baseEEPT_RS3_
FN:51,52,_ZSt11__addressofISaISt10_List_nodeIiEEEPT_RS3_
FN:51,52,_ZSt11__addressofIcEPT_RS0_
FN:51,52,_ZSt11__addressofIiEPT_RS0_
FN:70,71,_ZSt7forwardIPN5sqlcc11DiskManagerEEOT_RNSt16remove_referenceIS3_E4typeE
FN:70,71,_ZSt7forwardIRKNSt7__cxx1112basic_stringIcSt11char_traitsIcESaIcEEEEOT_RNSt16remove_referenceIS8_E4typeE
FN:70,71,_ZSt7forwardIRKSt21piecewise_construct_tEOT_RNSt16remove_referenceIS3_E4typeE
FN:70,71,_ZSt7forwardIRKSt4pairIKiSt10unique_ptrIN5sqlcc4PageESt14default_deleteIS4_EEEEOT_RNSt16remove_referenceISB_E4typeE
FN:70,71,_ZSt7forwardIRKSt4pairIKiSt14_List_iteratorIiEEEOT_RNSt16remove_referenceIS7_E4typeE
FN:70,71,_ZSt7forwardIRKSt4pairIKibEEOT_RNSt16remove_referenceIS5_E4typeE
FN:70,71,_ZSt7forwardIRKSt4pairIKiiEEOT_RNSt16remove_referenceIS5_E4typeE
FN:70,71,_ZSt7forwardIRKcEOT_RNSt16remove_referenceIS2_E4typeE
FN:70,71,_ZSt7forwardIRKiEOT_RNSt16remove_referenceIS2_E4typeE
FN:70,71,_ZSt7forwardIRcEOT_RNSt16remove_referenceIS1_E4typeE
FN:70,71,_ZSt7forwardIRiEOT_RNSt16remove_referenceIS1_E4typeE
FN:70,71,_ZSt7forwardIRmEOT_RNSt16remove_referenceIS1_E4typeE
FN:70,71,_ZSt7forwardISt14default_deleteIN5sqlcc10BufferPoolEEEOT_RNSt16remove_referenceIS4_E4typeE
FN:70,71,_ZSt7forwardISt14default_deleteIN5sqlcc11DiskManagerEEEOT_RNSt16remove_referenceIS4_E4typeE
FN:70,71,_ZSt7forwardISt14default_deleteIN5sqlcc4PageEEEOT_RNSt16remove_referenceIS4_E4typeE
FN:70,71,_ZSt7forwardISt14default_deleteINSt7__cxx1112basic_stringIcSt11char_traitsIcESaIcEEEEEOT_RNSt16remove_referenceIS8_E4typeE
FN:70,71,_ZSt7forwardISt5tupleIJEEEOT_RNSt16remove_referenceIS2_E4typeE
FN:70,71,_ZSt7forwardISt5tupleIJRKiEEEOT_RNSt16remove_referenceIS4_E4typeE
FN:70,71,_ZSt7forwardIiEOT_RNSt16remove_referenceIS0_E4typeE
FN:97,98,_ZSt4moveIRNSt7__cxx1112basic_stringIcSt11char_traitsIcESaIcEEEEONSt16remove_referenceIT_E4typeEOS8_
FN:97,98,_ZSt4moveIRPN5sqlcc10BufferPoolEEONSt16remove_referenceIT_E4typeEOS5_
FN:97,98,_ZSt4moveIRPN5sqlcc11DiskManagerEEONSt16remove_referenceIT_E4typeEOS5_
FN:97,98,_ZSt4moveIRPN5sqlcc4PageEEONSt16remove_referenceIT_E4typeEOS5_
FN:97,98,_ZSt4moveIRPNSt10filesystem7__cxx114path5_List5_ImplEEONSt16remove_referenceIT_E4typeEOS8_
FN:97,98,_ZSt4moveIRPNSt7__cxx1112basic_stringIcSt11char_traitsIcESaIcEEEEONSt16remove_referenceIT_E4typeEOS9_
FN:97,98,_ZSt4moveIRPNSt7__cxx1118basic_stringstreamIcSt11char_traitsIcESaIcEEEEONSt16remove_referenceIT_E4typeEOS9_
FN:97,98,_ZSt4moveIRSaIcEEONSt16remove_referenceIT_E4typeEOS3_
FN:97,98,_ZSt4moveIRSt10unique_ptrIN5sqlcc4PageESt14default_deleteIS2_EEEONSt16remove_referenceIT_E4typeEOS8_
FN:97,98,_ZSt4moveIRiEONSt16remove_referenceIT_E4typeEOS2_
FNDA:21790,_ZSt9addressofIKcEPT_RS1_
FNDA:112,_ZSt9addressofINSt8__detail10_Hash_nodeISt4pairIKiSt10unique_ptrIN5sqlcc4PageESt14default_deleteIS6_EEELb0EEEEPT_RSC_
FNDA:112,_ZSt9addressofINSt8__detail10_Hash_nodeISt4pairIKiSt14_List_iteratorIiEELb0EEEEPT_RS8_
FNDA:112,_ZSt9addressofINSt8__detail10_Hash_nodeISt4pairIKibELb0EEEEPT_RS6_
FNDA:112,_ZSt9addressofINSt8__detail10_Hash_nodeISt4pairIKiiELb0EEEEPT_RS6_
FNDA:36,_ZSt9addressofIPNSt8__detail15_Hash_node_baseEEPT_RS3_
FNDA:10793,_ZSt9addressofIcEPT_RS0_
FNDA:21790,_ZSt11__addressofIKcEPT_RS1_
FNDA:112,_ZSt11__addressofINSt8__detail10_Hash_nodeISt4pairIKiSt10unique_ptrIN5sqlcc4PageESt14default_deleteIS6_EEELb0EEEEPT_RSC_
FNDA:112,_ZSt11__addressofINSt8__detail10_Hash_nodeISt4pairIKiSt14_List_iteratorIiEELb0EEEEPT_RS8_
FNDA:112,_ZSt11__addressofINSt8__detail10_Hash_nodeISt4pairIKibELb0EEEEPT_RS6_
FNDA:112,_ZSt11__addressofINSt8__detail10_Hash_nodeISt4pairIKiiELb0EEEEPT_RS6_
FNDA:36,_ZSt11__addressofIPNSt8__detail15_Hash_node_baseEEPT_RS3_
FNDA:120,_ZSt11__addressofISaISt10_List_nodeIiEEEPT_RS3_
FNDA:10793,_ZSt11__addressofIcEPT_RS0_
FNDA:0,_ZSt11__addressofIiEPT_RS0_
FNDA:7,_ZSt7forwardIPN5sqlcc11DiskManagerEEOT_RNSt16remove_referenceIS3_E4typeE
FNDA:7,_ZSt7forwardIRKNSt7__cxx1112basic_stringIcSt11char_traitsIcESaIcEEEEOT_RNSt16remove_referenceIS8_E4typeE
FNDA:1792,_ZSt7forwardIRKSt21piecewise_construct_tEOT_RNSt16remove_referenceIS3_E4typeE
FNDA:458,_ZSt7forwardIRKSt4pairIKiSt10unique_ptrIN5sqlcc4PageESt14default_deleteIS4_EEEEOT_RNSt16remove_referenceISB_E4typeE
FNDA:308,_ZSt7forwardIRKSt4pairIKiSt14_List_iteratorIiEEEOT_RNSt16remove_referenceIS7_E4typeE
FNDA:465,_ZSt7forwardIRKSt4pairIKibEEOT_RNSt16remove_referenceIS5_E4typeE
FNDA:457,_ZSt7forwardIRKSt4pairIKiiEEOT_RNSt16remove_referenceIS5_E4typeE
FNDA:0,_ZSt7forwardIRKcEOT_RNSt16remove_referenceIS2_E4typeE
FNDA:1136,_ZSt7forwardIRKiEOT_RNSt16remove_referenceIS2_E4typeE
FNDA:0,_ZSt7forwardIRcEOT_RNSt16remove_referenceIS1_E4typeE
FNDA:113,_ZSt7forwardIRiEOT_RNSt16remove_referenceIS1_E4typeE
FNDA:7,_ZSt7forwardIRmEOT_RNSt16remove_referenceIS1_E4typeE
FNDA:7,_ZSt7forwardISt14default_deleteIN5sqlcc10BufferPoolEEEOT_RNSt16remove_referenceIS4_E4typeE
FNDA:7,_ZSt7forwardISt14default_deleteIN5sqlcc11DiskManagerEEEOT_RNSt16remove_referenceIS4_E4typeE
FNDA:112,_ZSt7forwardISt14default_deleteIN5sqlcc4PageEEEOT_RNSt16remove_referenceIS4_E4typeE
FNDA:0,_ZSt7forwardISt14default_deleteINSt7__cxx1112basic_stringIcSt11char_traitsIcESaIcEEEEEOT_RNSt16remove_referenceIS8_E4typeE
FNDA:1792,_ZSt7forwardISt5tupleIJEEEOT_RNSt16remove_referenceIS2_E4typeE
FNDA:1792,_ZSt7forwardISt5tupleIJRKiEEEOT_RNSt16remove_referenceIS4_E4typeE
FNDA:0,_ZSt7forwardIiEOT_RNSt16remove_referenceIS0_E4typeE
FNDA:3820,_ZSt4moveIRNSt7__cxx1112basic_stringIcSt11char_traitsIcESaIcEEEEONSt16remove_referenceIT_E4typeEOS8_
FNDA:7,_ZSt4moveIRPN5sqlcc10BufferPoolEEONSt16remove_referenceIT_E4typeEOS5_
FNDA:7,_ZSt4moveIRPN5sqlcc11DiskManagerEEONSt16remove_referenceIT_E4typeEOS5_
FNDA:113,_ZSt4moveIRPN5sqlcc4PageEEONSt16remove_referenceIT_E4typeEOS5_
FNDA:15,_ZSt4moveIRPNSt10filesystem7__cxx114path5_List5_ImplEEONSt16remove_referenceIT_E4typeEOS8_
FNDA:0,_ZSt4moveIRPNSt7__cxx1112basic_stringIcSt11char_traitsIcESaIcEEEEONSt16remove_referenceIT_E4typeEOS9_
FNDA:0,_ZSt4moveIRPNSt7__cxx1118basic_stringstreamIcSt11char_traitsIcESaIcEEEEONSt16remove_referenceIT_E4typeEOS9_
FNDA:7770,_ZSt4moveIRSaIcEEONSt16remove_referenceIT_E4typeEOS3_
FNDA:112,_ZSt4moveIRSt10unique_ptrIN5sqlcc4PageESt14default_deleteIS2_EEEONSt16remove_referenceIT_E4typeEOS8_
FNDA:0,_ZSt4moveIRiEONSt16remove_referenceIT_E4typeEOS2_
FNF:45
FNH:37
DA:51,33187
DA:52,33187
DA:70,8460
DA:71,8460
DA:97,11844
DA:98,11844
DA:138,33067
DA:139,33067
LF:8
LH:8
end_of_record
TN:
SF:/usr/include/c++/13/bits/new_allocator.h
FN:126,152,_ZNSt15__new_allocatorINSt8__detail10_Hash_nodeISt4pairIKiSt10unique_ptrIN5sqlcc4PageESt14default_deleteIS6_EEELb0EEEE8allocateEmPKv
FN:126,152,_ZNSt15__new_allocatorINSt8__detail10_Hash_nodeISt4pairIKiSt14_List_iteratorIiEELb0EEEE8allocateEmPKv
FN:126,152,_ZNSt15__new_allocatorINSt8__detail10_Hash_nodeISt4pairIKibELb0EEEE8allocateEmPKv
FN:126,152,_ZNSt15__new_allocatorINSt8__detail10_Hash_nodeISt4pairIKiiELb0EEEE8allocateEmPKv
FN:126,152,_ZNSt15__new_allocatorIPNSt8__detail15_Hash_node_baseEE8allocateEmPKv
FN:126,152,_ZNSt15__new_allocatorISt10_List_nodeIiEE8allocateEmPKv
FN:126,152,_ZNSt15__new_allocatorIcE8allocateEmPKv
FN:126,152,_ZNSt15__new_allocatorIiE8allocateEmPKv
FN:156,173,_ZNSt15__new_allocatorINSt8__detail10_Hash_nodeISt4pairIKiSt10unique_ptrIN5sqlcc4PageESt14default_deleteIS6_EEELb0EEEE10deallocateEPSB_m
FN:156,173,_ZNSt15__new_allocatorINSt8__detail10_Hash_nodeISt4pairIKiSt14_List_iteratorIiEELb0EEEE10deallocateEPS7_m
FN:156,173,_ZNSt15__new_allocatorINSt8__detail10_Hash_nodeISt4pairIKibELb0EEEE10deallocateEPS5_m
FN:156,173,_ZNSt15__new_allocatorINSt8__detail10_Hash_nodeISt4pairIKiiELb0EEEE10deallocateEPS5_m
FN:156,173,_ZNSt15__new_allocatorIPNSt8__detail15_Hash_node_baseEE10deallocateEPS2_m
FN:156,173,_ZNSt15__new_allocatorISt10_List_nodeIiEE10deallocateEPS1_m
FN:156,173,_ZNSt15__new_allocatorIcE10deallocateEPcm
FN:156,173,_ZNSt15__new_allocatorIiE10deallocateEPim
FNDA:112,_ZNSt15__new_allocatorINSt8__detail10_Hash_nodeISt4pairIKiSt10unique_ptrIN5sqlcc4PageESt14default_deleteIS6_EEELb0EEEE8allocateEmPKv
FNDA:112,_ZNSt15__new_allocatorINSt8__detail10_Hash_nodeISt4pairIKiSt14_List_iteratorIiEELb0EEEE8allocateEmPKv
FNDA:112,_ZNSt15__new_allocatorINSt8__detail10_Hash_nodeISt4pairIKibELb0EEEE8allocateEmPKv
FNDA:112,_ZNSt15__new_allocatorINSt8__detail10_Hash_nodeISt4pairIKiiELb0EEEE8allocateEmPKv
FNDA:36,_ZNSt15__new_allocatorIPNSt8__detail15_Hash_node_baseEE8allocateEmPKv
FNDA:120,_ZNSt15__new_allocatorISt10_List_nodeIiEE8allocateEmPKv
FNDA:3250,_ZNSt15__new_allocatorIcE8allocateEmPKv
FNDA:8,_ZNSt15__new_allocatorIiE8allocateEmPKv
FNDA:112,_ZNSt15__new_allocatorINSt8__detail10_Hash_nodeISt4pairIKiSt10unique_ptrIN5sqlcc4PageESt14default_deleteIS6_EEELb0EEEE10deallocateEPSB_m
FNDA:112,_ZNSt15__new_allocatorINSt8__detail10_Hash_nodeISt4pairIKiSt14_List_iteratorIiEELb0EEEE10deallocateEPS7_m
FNDA:112,_ZNSt15__new_allocatorINSt8__detail10_Hash_nodeISt4pairIKibELb0EEEE10deallocateEPS5_m
FNDA:112,_ZNSt15__new_allocatorINSt8__detail10_Hash_nodeISt4pairIKiiELb0EEEE10deallocateEPS5_m
FNDA:36,_ZNSt15__new_allocatorIPNSt8__detail15_Hash_node_baseEE10deallocateEPS2_m
FNDA:120,_ZNSt15__new_allocatorISt10_List_nodeIiEE10deallocateEPS1_m
FNDA:3079,_ZNSt15__new_allocatorIcE10deallocateEPcm
FNDA:8,_ZNSt15__new_allocatorIiE10deallocateEPim
FNF:16
FNH:16
DA:88,3166
DA:92,7024
DA:126,3862
DA:134,3862
DA:138,0
DA:139,0
DA:140,0
DA:151,3862
DA:156,3691
DA:172,3691
DA:233,3862
LF:11
LH:8
end_of_record
TN:
SF:/usr/include/c++/13/bits/postypes.h
FN:113,113,_ZNKSt4fposI11__mbstate_tEcvlEv
FNDA:7,_ZNKSt4fposI11__mbstate_tEcvlEv
FNF:1
FNH:1
DA:113,7
LF:1
LH:1
end_of_record
TN:
SF:/usr/include/c++/13/bits/ptr_traits.h
FN:141,142,_ZNSt19__ptr_traits_ptr_toIPKcS0_Lb0EE10pointer_toERS0_
FN:141,142,_ZNSt19__ptr_traits_ptr_toIPNSt8__detail10_Hash_nodeISt4pairIKiSt10unique_ptrIN5sqlcc4PageESt14default_deleteIS6_EEELb0EEESB_Lb0EE10pointer_toERSB_
FN:141,142,_ZNSt19__ptr_traits_ptr_toIPNSt8__detail10_Hash_nodeISt4pairIKiSt14_List_iteratorIiEELb0EEES7_Lb0EE10pointer_toERS7_
FN:141,142,_ZNSt19__ptr_traits_ptr_toIPNSt8__detail10_Hash_nodeISt4pairIKibELb0EEES5_Lb0EE10pointer_toERS5_
FN:141,142,_ZNSt19__ptr_traits_ptr_toIPNSt8__detail10_Hash_nodeISt4pairIKiiELb0EEES5_Lb0EE10pointer_toERS5_
FN:141,142,_ZNSt19__ptr_traits_ptr_toIPPNSt8__detail15_Hash_node_baseES2_Lb0EE10pointer_toERS2_
FN:141,142,_ZNSt19__ptr_traits_ptr_toIPccLb0EE10pointer_toERc
FN:212,216,_ZSt12__to_addressINSt8__detail10_Hash_nodeISt4pairIKiSt10unique_ptrIN5sqlcc4PageESt14default_deleteIS6_EEELb0EEEEPT_SD_
FN:212,216,_ZSt12__to_addressINSt8__detail10_Hash_nodeISt4pairIKiSt14_List_iteratorIiEELb0EEEEPT_S9_
FN:212,216,_ZSt12__to_addressINSt8__detail10_Hash_nodeISt4pairIKibELb0EEEEPT_S7_
FN:212,216,_ZSt12__to_addressINSt8__detail10_Hash_nodeISt4pairIKiiELb0EEEEPT_S7_
FN:212,216,_ZSt12__to_addressIPNSt8__detail15_Hash_node_baseEEPT_S4_
FNDA:21790,_ZNSt19__ptr_traits_ptr_toIPKcS0_Lb0EE10pointer_toERS0_
FNDA:112,_ZNSt19__ptr_traits_ptr_toIPNSt8__detail10_Hash_nodeISt4pairIKiSt10unique_ptrIN5sqlcc4PageESt14default_deleteIS6_EEELb0EEESB_Lb0EE10pointer_toERSB_
FNDA:112,_ZNSt19__ptr_traits_ptr_toIPNSt8__detail10_Hash_nodeISt4pairIKiSt14_List_iteratorIiEELb0EEES7_Lb0EE10pointer_toERS7_
FNDA:112,_ZNSt19__ptr_traits_ptr_toIPNSt8__detail10_Hash_nodeISt4pairIKibELb0EEES5_Lb0EE10pointer_toERS5_
FNDA:112,_ZNSt19__ptr_traits_ptr_toIPNSt8__detail10_Hash_nodeISt4pairIKiiELb0EEES5_Lb0EE10pointer_toERS5_
FNDA:36,_ZNSt19__ptr_traits_ptr_toIPPNSt8__detail15_Hash_node_baseES2_Lb0EE10pointer_toERS2_
FNDA:10793,_ZNSt19__ptr_traits_ptr_toIPccLb0EE10pointer_toERc
FNDA:112,_ZSt12__to_addressINSt8__detail10_Hash_nodeISt4pairIKiSt10unique_ptrIN5sqlcc4PageESt14default_deleteIS6_EEELb0EEEEPT_SD_
FNDA:112,_ZSt12__to_addressINSt8__detail10_Hash_nodeISt4pairIKiSt14_List_iteratorIiEELb0EEEEPT_S9_
FNDA:112,_ZSt12__to_addressINSt8__detail10_Hash_nodeISt4pairIKibELb0EEEEPT_S7_
FNDA:112,_ZSt12__to_addressINSt8__detail10_Hash_nodeISt4pairIKiiELb0EEEEPT_S7_
FNDA:36,_ZSt12__to_addressIPNSt8__detail15_Hash_node_baseEEPT_S4_
FNF:12
FNH:12
DA:141,33067
DA:142,33067
DA:212,484
DA:215,484
LF:4
LH:4
end_of_record
TN:
SF:/usr/include/c++/13/bits/stl_algobase.h
FN:233,241,_ZSt3minImERKT_S2_S2_
FN:257,265,_ZSt3maxImERKT_S2_S2_
FN:316,318,_ZSt12__niter_baseIPiET_S1_
FNDA:16,_ZSt3minImERKT_S2_S2_
FNDA:8,_ZSt3maxImERKT_S2_S2_
FNDA:48,_ZSt12__niter_baseIPiET_S1_
FNF:3
FNH:3
DA:233,16
DA:238,16
DA:239,0
DA:240,16
DA:257,8
DA:262,8
DA:263,1
DA:264,7
DA:316,48
DA:318,48
LF:10
LH:9
end_of_record
TN:
SF:/usr/include/c++/13/bits/stl_construct.h
FN:146,153,_ZSt8_DestroyIiEvPT_
FN:160,164,_ZNSt12_Destroy_auxILb0EE9__destroyIPiEEvT_S3_
FN:172,172,_ZNSt12_Destroy_auxILb1EE9__destroyIPiEEvT_S3_
FN:182,197,_ZSt8_DestroyIPiEvT_S1_
FN:80,89,_ZSt10destroy_atISt4pairIKiSt10unique_ptrIN5sqlcc4PageESt14default_deleteIS4_EEEEvPT_
FN:80,89,_ZSt10destroy_atISt4pairIKiSt14_List_iteratorIiEEEvPT_
FN:80,89,_ZSt10destroy_atISt4pairIKibEEvPT_
FN:80,89,_ZSt10destroy_atISt4pairIKiiEEvPT_
FN:80,89,_ZSt10destroy_atIiEvPT_
FN:94,97,_ZSt12construct_atISt4pairIKiSt10unique_ptrIN5sqlcc4PageESt14default_deleteIS4_EEEJRKSt21piecewise_construct_tSt5tupleIJRS1_EESC_IJEEEEDTgsnwcvPvLi0E_T_pispcl7declvalIT0_EEEEPSH_DpOSI_
FN:94,97,_ZSt12construct_atISt4pairIKiSt14_List_iteratorIiEEJRKSt21piecewise_construct_tSt5tupleIJRS1_EES8_IJEEEEDTgsnwcvPvLi0E_T_pispcl7declvalIT0_EEEEPSD_DpOSE_
FN:94,97,_ZSt12construct_atISt4pairIKibEJRKSt21piecewise_construct_tSt5tupleIJRS1_EES6_IJEEEEDTgsnwcvPvLi0E_T_pispcl7declvalIT0_EEEEPSB_DpOSC_
FN:94,97,_ZSt12construct_atISt4pairIKiiEJRKSt21piecewise_construct_tSt5tupleIJRS1_EES6_IJEEEEDTgsnwcvPvLi0E_T_pispcl7declvalIT0_EEEEPSB_DpOSC_
FN:94,97,_ZSt12construct_atIcJRKcEEDTgsnwcvPvLi0E_T_pispcl7declvalIT0_EEEEPS3_DpOS4_
FN:94,97,_ZSt12construct_atIcJRcEEDTgsnwcvPvLi0E_T_pispcl7declvalIT0_EEEEPS2_DpOS3_
FN:94,97,_ZSt12construct_atIiJRKiEEDTgsnwcvPvLi0E_T_pispcl7declvalIT0_EEEEPS3_DpOS4_
FN:94,97,_ZSt12construct_atIiJiEEDTgsnwcvPvLi0E_T_pispcl7declvalIT0_EEEEPS1_DpOS2_
FNDA:0,_ZSt8_DestroyIiEvPT_
FNDA:0,_ZNSt12_Destroy_auxILb0EE9__destroyIPiEEvT_S3_
FNDA:1,_ZNSt12_Destroy_auxILb1EE9__destroyIPiEEvT_S3_
FNDA:1,_ZSt8_DestroyIPiEvT_S1_
FNDA:112,_ZSt10destroy_atISt4pairIKiSt10unique_ptrIN5sqlcc4PageESt14default_deleteIS4_EEEEvPT_
FNDA:112,_ZSt10destroy_atISt4pairIKiSt14_List_iteratorIiEEEvPT_
FNDA:112,_ZSt10destroy_atISt4pairIKibEEvPT_
FNDA:112,_ZSt10destroy_atISt4pairIKiiEEvPT_
FNDA:120,_ZSt10destroy_atIiEvPT_
FNDA:112,_ZSt12construct_atISt4pairIKiSt10unique_ptrIN5sqlcc4PageESt14default_deleteIS4_EEEJRKSt21piecewise_construct_tSt5tupleIJRS1_EESC_IJEEEEDTgsnwcvPvLi0E_T_pispcl7declvalIT0_EEEEPSH_DpOSI_
FNDA:112,_ZSt12construct_atISt4pairIKiSt14_List_iteratorIiEEJRKSt21piecewise_construct_tSt5tupleIJRS1_EES8_IJEEEEDTgsnwcvPvLi0E_T_pispcl7declvalIT0_EEEEPSD_DpOSE_
FNDA:112,_ZSt12construct_atISt4pairIKibEJRKSt21piecewise_construct_tSt5tupleIJRS1_EES6_IJEEEEDTgsnwcvPvLi0E_T_pispcl7declvalIT0_EEEEPSB_DpOSC_
FNDA:112,_ZSt12construct_atISt4pairIKiiEJRKSt21piecewise_construct_tSt5tupleIJRS1_EES6_IJEEEEDTgsnwcvPvLi0E_T_pispcl7declvalIT0_EEEEPSB_DpOSC_
FNDA:0,_ZSt12construct_atIcJRKcEEDTgsnwcvPvLi0E_T_pispcl7declvalIT0_EEEEPS3_DpOS4_
FNDA:0,_ZSt12construct_atIcJRcEEDTgsnwcvPvLi0E_T_pispcl7declvalIT0_EEEEPS2_DpOS3_
FNDA:220,_ZSt12construct_atIiJRKiEEDTgsnwcvPvLi0E_T_pispcl7declvalIT0_EEEEPS3_DpOS4_
FNDA:0,_ZSt12construct_atIiJiEEDTgsnwcvPvLi0E_T_pispcl7declvalIT0_EEEEPS1_DpOS2_
FNF:17
FNH:12
DA:80,568
DA:88,568
DA:89,568
DA:94,668
DA:97,668
DA:146,0
DA:149,0
DA:153,0
DA:160,0
DA:162,0
DA:163,0
DA:164,0
DA:172,1
DA:182,1
DA:192,1
DA:193,0
DA:196,1
LF:17
LH:9
end_of_record
TN:
SF:/usr/include/c++/13/bits/stl_function.h
FN:377,378,_ZNKSt8equal_toIiEclERKiS2_
FN:451,458,_ZNKSt4lessIPKcEclES1_S1_
FNDA:616,_ZNKSt8equal_toIiEclERKiS2_
FNDA:987,_ZNKSt4lessIPKcEclES1_S1_
FNF:2
FNH:2
DA:377,616
DA:378,616
DA:451,987
DA:454,987
DA:455,0
DA:457,987
LF:6
LH:5
end_of_record
TN:
SF:/usr/include/c++/13/bits/stl_iterator.h
FN:1076,1077,_ZN9__gnu_cxx17__normal_iteratorIPiSt6vectorIiSaIiEEEC2ERKS1_
FN:1076,1077,_ZN9__gnu_cxx17__normal_iteratorIPivEC2ERKS1_
FN:1099,1100,_ZNK9__gnu_cxx17__normal_iteratorIPivEdeEv
FN:1109,1113,_ZN9__gnu_cxx17__normal_iteratorIPivEppEv
FN:1162,1163,_ZNK9__gnu_cxx17__normal_iteratorIPiSt6vectorIiSaIiEEE4baseEv
FN:1162,1163,_ZNK9__gnu_cxx17__normal_iteratorIPivE4baseEv
FN:1334,1337,_ZN9__gnu_cxxmiIPiSt6vectorIiSaIiEEEENS_17__normal_iteratorIT_T0_E15difference_typeERKS8_SB_
FNDA:16,_ZN9__gnu_cxx17__normal_iteratorIPiSt6vectorIiSaIiEEEC2ERKS1_
FNDA:0,_ZN9__gnu_cxx17__normal_iteratorIPivEC2ERKS1_
FNDA:0,_ZNK9__gnu_cxx17__normal_iteratorIPivEdeEv
FNDA:0,_ZN9__gnu_cxx17__normal_iteratorIPivEppEv
FNDA:32,_ZNK9__gnu_cxx17__normal_iteratorIPiSt6vectorIiSaIiEEE4baseEv
FNDA:0,_ZNK9__gnu_cxx17__normal_iteratorIPivE4baseEv
FNDA:8,_ZN9__gnu_cxxmiIPiSt6vectorIiSaIiEEEENS_17__normal_iteratorIT_T0_E15difference_typeERKS8_SB_
FNF:7
FNH:3
DA:1076,16
DA:1077,16
DA:1099,0
DA:1100,0
DA:1109,0
DA:1111,0
DA:1112,0
DA:1162,32
DA:1163,32
DA:1334,8
DA:1337,8
LF:11
LH:6
end_of_record
TN:
SF:/usr/include/c++/13/bits/stl_iterator_base_funcs.h
FNF:0
FNH:0
DA:106,378
DA:151,756
DA:152,756
LF:3
LH:3
end_of_record
TN:
SF:/usr/include/c++/13/bits/stl_iterator_base_types.h
FNF:0
FNH:0
DA:240,378
LF:1
LH:1
end_of_record
TN:
SF:/usr/include/c++/13/bits/stl_list.h
FN:1022,1023,_ZNSt7__cxx114listIiSaIiEE5beginEv
FN:1042,1043,_ZNSt7__cxx114listIiSaIiEE3endEv
FN:110,111,_ZNSt8__detail17_List_node_headerC2Ev
FN:1143,1144,_ZNKSt7__cxx114listIiSaIiEE5emptyEv
FN:1223,1228,_ZNSt7__cxx114listIiSaIiEE4backEv
FN:1255,1256,_ZNSt7__cxx114listIiSaIiEE10push_frontERKi
FN:1340,1341,_ZNSt7__cxx114listIiSaIiEE8pop_backEv
FN:150,156,_ZNSt8__detail17_List_node_header7_M_initEv
FN:2003,2008,_ZNSt7__cxx114listIiSaIiEE9_M_insertIJRKiEEEvSt14_List_iteratorIiEDpOT_
FN:2013,2025,_ZNSt7__cxx114listIiSaIiEE8_M_eraseESt14_List_iteratorIiE
FN:238,238,_ZNSt10_List_nodeIiE9_M_valptrEv
FN:264,265,_ZNSt14_List_iteratorIiEC2Ev
FN:268,269,_ZNSt14_List_iteratorIiEC2EPNSt8__detail15_List_node_baseE
FN:278,279,_ZNKSt14_List_iteratorIiEdeEv
FN:302,306,_ZNSt14_List_iteratorIiEmmEv
FN:358,359,_ZNSt20_List_const_iteratorIiEC2ERKSt14_List_iteratorIiE
FN:362,363,_ZNKSt20_List_const_iteratorIiE13_M_const_castEv
FN:455,458,_ZNSt7__cxx1110_List_baseIiSaIiEE10_List_implC2Ev
FN:484,484,_ZNSt7__cxx1110_List_baseIiSaIiEE11_M_inc_sizeEm
FN:486,486,_ZNSt7__cxx1110_List_baseIiSaIiEE11_M_dec_sizeEm
FN:517,518,_ZNSt7__cxx1110_List_baseIiSaIiEE11_M_get_nodeEv
FN:521,522,_ZNSt7__cxx1110_List_baseIiSaIiEE11_M_put_nodeEPSt10_List_nodeIiE
FN:528,529,_ZNSt7__cxx1110_List_baseIiSaIiEE21_M_get_Node_allocatorEv
FN:536,536,_ZNSt7__cxx1110_List_baseIiSaIiEEC2Ev
FN:574,575,_ZNSt7__cxx1110_List_baseIiSaIiEED2Ev
FN:708,717,_ZNSt7__cxx114listIiSaIiEE14_M_create_nodeIJRKiEEEPSt10_List_nodeIiEDpOT_
FN:749,749,_ZNSt7__cxx114listIiSaIiEEC2Ev
FN:903,903,_ZNSt7__cxx114listIiSaIiEED2Ev
FNDA:240,_ZNSt7__cxx114listIiSaIiEE5beginEv
FNDA:39,_ZNSt7__cxx114listIiSaIiEE3endEv
FNDA:7,_ZNSt8__detail17_List_node_headerC2Ev
FNDA:39,_ZNKSt7__cxx114listIiSaIiEE5emptyEv
FNDA:39,_ZNSt7__cxx114listIiSaIiEE4backEv
FNDA:120,_ZNSt7__cxx114listIiSaIiEE10push_frontERKi
FNDA:39,_ZNSt7__cxx114listIiSaIiEE8pop_backEv
FNDA:7,_ZNSt8__detail17_List_node_header7_M_initEv
FNDA:120,_ZNSt7__cxx114listIiSaIiEE9_M_insertIJRKiEEEvSt14_List_iteratorIiEDpOT_
FNDA:48,_ZNSt7__cxx114listIiSaIiEE8_M_eraseESt14_List_iteratorIiE
FNDA:279,_ZNSt10_List_nodeIiE9_M_valptrEv
FNDA:112,_ZNSt14_List_iteratorIiEC2Ev
FNDA:336,_ZNSt14_List_iteratorIiEC2EPNSt8__detail15_List_node_baseE
FNDA:39,_ZNKSt14_List_iteratorIiEdeEv
FNDA:39,_ZNSt14_List_iteratorIiEmmEv
FNDA:9,_ZNSt20_List_const_iteratorIiEC2ERKSt14_List_iteratorIiE
FNDA:9,_ZNKSt20_List_const_iteratorIiE13_M_const_castEv
FNDA:7,_ZNSt7__cxx1110_List_baseIiSaIiEE10_List_implC2Ev
FNDA:120,_ZNSt7__cxx1110_List_baseIiSaIiEE11_M_inc_sizeEm
FNDA:48,_ZNSt7__cxx1110_List_baseIiSaIiEE11_M_dec_sizeEm
FNDA:120,_ZNSt7__cxx1110_List_baseIiSaIiEE11_M_get_nodeEv
FNDA:120,_ZNSt7__cxx1110_List_baseIiSaIiEE11_M_put_nodeEPSt10_List_nodeIiE
FNDA:240,_ZNSt7__cxx1110_List_baseIiSaIiEE21_M_get_Node_allocatorEv
FNDA:7,_ZNSt7__cxx1110_List_baseIiSaIiEEC2Ev
FNDA:7,_ZNSt7__cxx1110_List_baseIiSaIiEED2Ev
FNDA:120,_ZNSt7__cxx114listIiSaIiEE14_M_create_nodeIJRKiEEEPSt10_List_nodeIiEDpOT_
FNDA:7,_ZNSt7__cxx114listIiSaIiEEC2Ev
FNDA:7,_ZNSt7__cxx114listIiSaIiEED2Ev
FNF:28
FNH:28
DA:110,7
DA:111,7
DA:150,7
DA:152,7
DA:154,7
DA:156,7
DA:238,279
DA:264,112
DA:265,112
DA:268,336
DA:269,336
DA:278,39
DA:279,39
DA:302,39
DA:304,39
DA:305,39
DA:358,9
DA:359,9
DA:362,9
DA:363,9
DA:455,7
DA:457,7
DA:458,7
DA:484,120
DA:486,48
DA:517,120
DA:518,240
DA:521,120
DA:522,120
DA:528,240
DA:529,240
DA:536,7
DA:574,7
DA:575,7
DA:708,120
DA:710,120
DA:711,120
DA:712,120
DA:713,120
DA:715,120
DA:716,120
DA:717,120
DA:749,7
DA:903,7
DA:1022,240
DA:1023,240
DA:1042,39
DA:1043,39
DA:1143,39
DA:1144,39
DA:1223,39
DA:1225,39
DA:1226,39
DA:1227,39
DA:1255,120
DA:1256,120
DA:1340,39
DA:1341,39
DA:2003,120
DA:2005,120
DA:2006,120
DA:2007,120
DA:2008,120
DA:2013,48
DA:2015,48
DA:2016,48
DA:2017,48
DA:2019,48
DA:2024,48
DA:2025,48
LF:70
LH:70
end_of_record
TN:
SF:/usr/include/c++/13/bits/stl_pair.h
FNF:0
FNH:0
LF:0
LH:0
end_of_record
TN:
SF:/usr/include/c++/13/bits/stl_uninitialized.h
FN:1069,1079,_ZSt19__relocate_object_aIiiSaIiEEvPT_PT0_RT1_
FN:1091,1108,_ZSt14__relocate_a_1IPiN9__gnu_cxx17__normal_iteratorIS0_vEESaIiEET0_T_S6_S5_RT1_
FN:1114,1134,_ZSt14__relocate_a_1IiiENSt9enable_ifIXsrSt24__is_bitwise_relocatableIT_vE5valueEPS2_E4typeES4_S4_S4_RSaIT0_E
FN:1141,1150,_ZSt12__relocate_aIPiS0_SaIiEET0_T_S3_S2_RT1_
FNDA:0,_ZSt19__relocate_object_aIiiSaIiEEvPT_PT0_RT1_
FNDA:0,_ZSt14__relocate_a_1IPiN9__gnu_cxx17__normal_iteratorIS0_vEESaIiEET0_T_S6_S5_RT1_
FNDA:16,_ZSt14__relocate_a_1IiiENSt9enable_ifIXsrSt24__is_bitwise_relocatableIT_vE5valueEPS2_E4typeES4_S4_S4_RSaIT0_E
FNDA:16,_ZSt12__relocate_aIPiS0_SaIiEET0_T_S3_S2_RT1_
FNF:4
FNH:2
DA:1069,0
DA:1077,0
DA:1078,0
DA:1079,0
DA:1091,0
DA:1103,0
DA:1104,0
DA:1105,0
DA:1107,0
DA:1114,16
DA:1118,16
DA:1119,16
DA:1122,7
DA:1126,0
DA:1127,0
DA:1128,0
DA:1131,7
DA:1133,16
DA:1141,16
DA:1147,16
DA:1149,16
LF:21
LH:9
end_of_record
TN:
SF:/usr/include/c++/13/bits/stl_vector.h
FN:1126,1130,_ZNSt6vectorIiSaIiEEixEm
FN:1281,1293,_ZNSt6vectorIiSaIiEE9push_backERKi
FN:1896,1903,_ZNKSt6vectorIiSaIiEE12_M_check_lenEmPKc
FN:1916,1925,_ZNSt6vectorIiSaIiEE11_S_max_sizeERKS0_
FN:301,302,_ZNSt12_Vector_baseIiSaIiEE19_M_get_Tp_allocatorEv
FN:306,307,_ZNKSt12_Vector_baseIiSaIiEE19_M_get_Tp_allocatorEv
FN:367,371,_ZNSt12_Vector_baseIiSaIiEED2Ev
FN:378,382,_ZNSt12_Vector_baseIiSaIiEE11_M_allocateEm
FN:386,391,_ZNSt12_Vector_baseIiSaIiEE13_M_deallocateEPim
FN:504,514,_ZNSt6vectorIiSaIiEE11_S_relocateEPiS2_S2_RS0_
FN:733,738,_ZNSt6vectorIiSaIiEED2Ev
FN:873,874,_ZNSt6vectorIiSaIiEE5beginEv
FN:893,894,_ZNSt6vectorIiSaIiEE3endEv
FN:992,993,_ZNKSt6vectorIiSaIiEE4sizeEv
FN:998,999,_ZNKSt6vectorIiSaIiEE8max_sizeEv
FNDA:10,_ZNSt6vectorIiSaIiEEixEm
FNDA:100,_ZNSt6vectorIiSaIiEE9push_backERKi
FNDA:8,_ZNKSt6vectorIiSaIiEE12_M_check_lenEmPKc
FNDA:16,_ZNSt6vectorIiSaIiEE11_S_max_sizeERKS0_
FNDA:17,_ZNSt12_Vector_baseIiSaIiEE19_M_get_Tp_allocatorEv
FNDA:16,_ZNKSt12_Vector_baseIiSaIiEE19_M_get_Tp_allocatorEv
FNDA:1,_ZNSt12_Vector_baseIiSaIiEED2Ev
FNDA:8,_ZNSt12_Vector_baseIiSaIiEE11_M_allocateEm
FNDA:9,_ZNSt12_Vector_baseIiSaIiEE13_M_deallocateEPim
FNDA:16,_ZNSt6vectorIiSaIiEE11_S_relocateEPiS2_S2_RS0_
FNDA:1,_ZNSt6vectorIiSaIiEED2Ev
FNDA:8,_ZNSt6vectorIiSaIiEE5beginEv
FNDA:8,_ZNSt6vectorIiSaIiEE3endEv
FNDA:32,_ZNKSt6vectorIiSaIiEE4sizeEv
FNDA:16,_ZNKSt6vectorIiSaIiEE8max_sizeEv
FNF:15
FNH:15
DA:301,17
DA:302,17
DA:306,16
DA:307,16
DA:367,1
DA:369,1
DA:370,1
DA:371,1
DA:378,8
DA:381,16
DA:386,9
DA:389,9
DA:390,8
DA:391,9
DA:504,16
DA:509,16
DA:733,1
DA:735,1
DA:736,1
DA:738,1
DA:873,8
DA:874,8
DA:893,8
DA:894,8
DA:992,32
DA:993,32
DA:998,16
DA:999,16
DA:1126,10
DA:1129,10
DA:1281,100
DA:1283,100
DA:1286,92
DA:1288,92
DA:1292,8
DA:1293,100
DA:1896,8
DA:1898,8
DA:1899,0
DA:1901,8
DA:1902,8
DA:1916,16
DA:1921,16
DA:1923,16
DA:1924,16
LF:45
LH:44
end_of_record
TN:
SF:/usr/include/c++/13/bits/streambuf_iterator.h
FN:288,289,_ZNSt19ostreambuf_iteratorIcSt11char_traitsIcEEC2EPSt15basic_streambufIcS1_E
FN:320,321,_ZNKSt19ostreambuf_iteratorIcSt11char_traitsIcEE6failedEv
FNDA:76,_ZNSt19ostreambuf_iteratorIcSt11char_traitsIcEEC2EPSt15basic_streambufIcS1_E
FNDA:76,_ZNKSt19ostreambuf_iteratorIcSt11char_traitsIcEE6failedEv
FNF:2
FNH:2
DA:288,76
DA:289,76
DA:320,76
DA:321,76
LF:4
LH:4
end_of_record
TN:
SF:/usr/include/c++/13/bits/unique_ptr.h
FN:1069,1070,_ZSt11make_uniqueIN5sqlcc10BufferPoolEJPNS0_11DiskManagerERmEENSt8__detail9_MakeUniqIT_E15__single_objectEDpOT0_
FN:1069,1070,_ZSt11make_uniqueIN5sqlcc11DiskManagerEJRKNSt7__cxx1112basic_stringIcSt11char_traitsIcESaIcEEEEENSt8__detail9_MakeUniqIT_E15__single_objectEDpOT0_
FN:1069,1070,_ZSt11make_uniqueIN5sqlcc4PageEJRiEENSt8__detail9_MakeUniqIT_E15__single_objectEDpOT0_
FN:1069,1070,_ZSt11make_uniqueINSt7__cxx1112basic_stringIcSt11char_traitsIcESaIcEEEJEENSt8__detail9_MakeUniqIT_E15__single_objectEDpOT0_
FN:174,174,_ZNSt15__uniq_ptr_implIN5sqlcc10BufferPoolESt14default_deleteIS1_EEC2Ev
FN:174,174,_ZNSt15__uniq_ptr_implIN5sqlcc11DiskManagerESt14default_deleteIS1_EEC2Ev
FN:174,174,_ZNSt15__uniq_ptr_implIN5sqlcc4PageESt14default_deleteIS1_EEC2Ev
FN:174,174,_ZNSt15__uniq_ptr_implINSt7__cxx1112basic_stringIcSt11char_traitsIcESaIcEEESt14default_deleteIS5_EEC2Ev
FN:176,176,_ZNSt15__uniq_ptr_implIN5sqlcc10BufferPoolESt14default_deleteIS1_EEC2EPS1_
FN:176,176,_ZNSt15__uniq_ptr_implIN5sqlcc11DiskManagerESt14default_deleteIS1_EEC2EPS1_
FN:176,176,_ZNSt15__uniq_ptr_implIN5sqlcc4PageESt14default_deleteIS1_EEC2EPS1_
FN:176,176,_ZNSt15__uniq_ptr_implINSt7__cxx1112basic_stringIcSt11char_traitsIcESaIcEEESt14default_deleteIS5_EEC2EPS5_
FN:189,194,_ZNSt15__uniq_ptr_implIN5sqlcc10BufferPoolESt14default_deleteIS1_EEaSEOS4_
FN:189,194,_ZNSt15__uniq_ptr_implIN5sqlcc11DiskManagerESt14default_deleteIS1_EEaSEOS4_
FN:189,194,_ZNSt15__uniq_ptr_implIN5sqlcc4PageESt14default_deleteIS1_EEaSEOS4_
FN:189,194,_ZNSt15__uniq_ptr_implINSt7__cxx1112basic_stringIcSt11char_traitsIcESaIcEEESt14default_deleteIS5_EEaSEOS8_
FN:197,197,_ZNSt15__uniq_ptr_implIN5sqlcc10BufferPoolESt14default_deleteIS1_EE6_M_ptrEv
FN:197,197,_ZNSt15__uniq_ptr_implIN5sqlcc11DiskManagerESt14default_deleteIS1_EE6_M_ptrEv
FN:197,197,_ZNSt15__uniq_ptr_implIN5sqlcc4PageESt14default_deleteIS1_EE6_M_ptrEv
FN:197,197,_ZNSt15__uniq_ptr_implINSt10filesystem7__cxx114path5_List5_ImplENS3_13_Impl_deleterEE6_M_ptrEv
FN:197,197,_ZNSt15__uniq_ptr_implINSt7__cxx1112basic_stringIcSt11char_traitsIcESaIcEEESt14default_deleteIS5_EE6_M_ptrEv
FN:197,197,_ZNSt15__uniq_ptr_implINSt7__cxx1118basic_stringstreamIcSt11char_traitsIcESaIcEEESt14default_deleteIS5_EE6_M_ptrEv
FN:199,199,_ZNKSt15__uniq_ptr_implIN5sqlcc10BufferPoolESt14default_deleteIS1_EE6_M_ptrEv
FN:199,199,_ZNKSt15__uniq_ptr_implIN5sqlcc11DiskManagerESt14default_deleteIS1_EE6_M_ptrEv
FN:199,199,_ZNKSt15__uniq_ptr_implIN5sqlcc4PageESt14default_deleteIS1_EE6_M_ptrEv
FN:199,199,_ZNKSt15__uniq_ptr_implINSt7__cxx1112basic_stringIcSt11char_traitsIcESaIcEEESt14default_deleteIS5_EE6_M_ptrEv
FN:199,199,_ZNKSt15__uniq_ptr_implINSt7__cxx1118basic_stringstreamIcSt11char_traitsIcESaIcEEESt14default_deleteIS5_EE6_M_ptrEv
FN:201,201,_ZNSt15__uniq_ptr_implIN5sqlcc10BufferPoolESt14default_deleteIS1_EE10_M_deleterEv
FN:201,201,_ZNSt15__uniq_ptr_implIN5sqlcc11DiskManagerESt14default_deleteIS1_EE10_M_deleterEv
FN:201,201,_ZNSt15__uniq_ptr_implIN5sqlcc4PageESt14default_deleteIS1_EE10_M_deleterEv
FN:201,201,_ZNSt15__uniq_ptr_implINSt10filesystem7__cxx114path5_List5_ImplENS3_13_Impl_deleterEE10_M_deleterEv
FN:201,201,_ZNSt15__uniq_ptr_implINSt7__cxx1112basic_stringIcSt11char_traitsIcESaIcEEESt14default_deleteIS5_EE10_M_deleterEv
FN:201,201,_ZNSt15__uniq_ptr_implINSt7__cxx1118basic_stringstreamIcSt11char_traitsIcESaIcEEESt14default_deleteIS5_EE10_M_deleterEv
FN:206,212,_ZNSt15__uniq_ptr_implIN5sqlcc10BufferPoolESt14default_deleteIS1_EE5resetEPS1_
FN:206,212,_ZNSt15__uniq_ptr_implIN5sqlcc11DiskManagerESt14default_deleteIS1_EE5resetEPS1_
FN:206,212,_ZNSt15__uniq_ptr_implIN5sqlcc4PageESt14default_deleteIS1_EE5resetEPS1_
FN:206,212,_ZNSt15__uniq_ptr_implINSt7__cxx1112basic_stringIcSt11char_traitsIcESaIcEEESt14default_deleteIS5_EE5resetEPS5_
FN:215,220,_ZNSt15__uniq_ptr_implIN5sqlcc10BufferPoolESt14default_deleteIS1_EE7releaseEv
FN:215,220,_ZNSt15__uniq_ptr_implIN5sqlcc11DiskManagerESt14default_deleteIS1_EE7releaseEv
FN:215,220,_ZNSt15__uniq_ptr_implIN5sqlcc4PageESt14default_deleteIS1_EE7releaseEv
FN:215,220,_ZNSt15__uniq_ptr_implINSt7__cxx1112basic_stringIcSt11char_traitsIcESaIcEEESt14default_deleteIS5_EE7releaseEv
FN:243,243,_ZNSt15__uniq_ptr_dataIN5sqlcc10BufferPoolESt14default_deleteIS1_ELb1ELb1EEaSEOS4_
FN:243,243,_ZNSt15__uniq_ptr_dataIN5sqlcc11DiskManagerESt14default_deleteIS1_ELb1ELb1EEaSEOS4_
FN:243,243,_ZNSt15__uniq_ptr_dataIN5sqlcc4PageESt14default_deleteIS1_ELb1ELb1EEaSEOS4_
FN:243,243,_ZNSt15__uniq_ptr_dataINSt7__cxx1112basic_stringIcSt11char_traitsIcESaIcEEESt14default_deleteIS5_ELb1ELb1EEaSEOS8_
FN:304,306,_ZNSt10unique_ptrIN5sqlcc10BufferPoolESt14default_deleteIS1_EEC2IS3_vEEv
FN:304,306,_ZNSt10unique_ptrIN5sqlcc11DiskManagerESt14default_deleteIS1_EEC2IS3_vEEv
FN:304,306,_ZNSt10unique_ptrIN5sqlcc4PageESt14default_deleteIS1_EEC2IS3_vEEv
FN:304,306,_ZNSt10unique_ptrINSt7__cxx1112basic_stringIcSt11char_traitsIcESaIcEEESt14default_deleteIS5_EEC2IS7_vEEv
FN:317,319,_ZNSt10unique_ptrIN5sqlcc10BufferPoolESt14default_deleteIS1_EEC2IS3_vEEPS1_
FN:317,319,_ZNSt10unique_ptrIN5sqlcc11DiskManagerESt14default_deleteIS1_EEC2IS3_vEEPS1_
FN:317,319,_ZNSt10unique_ptrIN5sqlcc4PageESt14default_deleteIS1_EEC2IS3_vEEPS1_
FN:317,319,_ZNSt10unique_ptrINSt7__cxx1112basic_stringIcSt11char_traitsIcESaIcEEESt14default_deleteIS5_EEC2IS7_vEEPS5_
FN:398,406,_ZNSt10unique_ptrIN5sqlcc10BufferPoolESt14default_deleteIS1_EED2Ev
FN:398,406,_ZNSt10unique_ptrIN5sqlcc11DiskManagerESt14default_deleteIS1_EED2Ev
FN:398,406,_ZNSt10unique_ptrIN5sqlcc4PageESt14default_deleteIS1_EED2Ev
FN:398,406,_ZNSt10unique_ptrINSt10filesystem7__cxx114path5_List5_ImplENS3_13_Impl_deleterEED2Ev
FN:398,406,_ZNSt10unique_ptrINSt7__cxx1112basic_stringIcSt11char_traitsIcESaIcEEESt14default_deleteIS5_EED2Ev
FN:398,406,_ZNSt10unique_ptrINSt7__cxx1118basic_stringstreamIcSt11char_traitsIcESaIcEEESt14default_deleteIS5_EED2Ev
FN:414,414,_ZNSt10unique_ptrIN5sqlcc10BufferPoolESt14default_deleteIS1_EEaSEOS4_
FN:414,414,_ZNSt10unique_ptrIN5sqlcc11DiskManagerESt14default_deleteIS1_EEaSEOS4_
FN:414,414,_ZNSt10unique_ptrIN5sqlcc4PageESt14default_deleteIS1_EEaSEOS4_
FN:414,414,_ZNSt10unique_ptrINSt7__cxx1112basic_stringIcSt11char_traitsIcESaIcEEESt14default_deleteIS5_EEaSEOS8_
FN:451,455,_ZNKSt10unique_ptrIN5sqlcc4PageESt14default_deleteIS1_EEdeEv
FN:451,455,_ZNKSt10unique_ptrINSt7__cxx1118basic_stringstreamIcSt11char_traitsIcESaIcEEESt14default_deleteIS5_EEdeEv
FN:460,464,_ZNKSt10unique_ptrIN5sqlcc10BufferPoolESt14default_deleteIS1_EEptEv
FN:460,464,_ZNKSt10unique_ptrINSt7__cxx1112basic_stringIcSt11char_traitsIcESaIcEEESt14default_deleteIS5_EEptEv
FN:469,470,_ZNKSt10unique_ptrIN5sqlcc10BufferPoolESt14default_deleteIS1_EE3getEv
FN:469,470,_ZNKSt10unique_ptrIN5sqlcc11DiskManagerESt14default_deleteIS1_EE3getEv
FN:469,470,_ZNKSt10unique_ptrIN5sqlcc4PageESt14default_deleteIS1_EE3getEv
FN:469,470,_ZNKSt10unique_ptrINSt7__cxx1112basic_stringIcSt11char_traitsIcESaIcEEESt14default_deleteIS5_EE3getEv
FN:469,470,_ZNKSt10unique_ptrINSt7__cxx1118basic_stringstreamIcSt11char_traitsIcESaIcEEESt14default_deleteIS5_EE3getEv
FN:475,476,_ZNSt10unique_ptrIN5sqlcc10BufferPoolESt14default_deleteIS1_EE11get_deleterEv
FN:475,476,_ZNSt10unique_ptrIN5sqlcc11DiskManagerESt14default_deleteIS1_EE11get_deleterEv
FN:475,476,_ZNSt10unique_ptrIN5sqlcc4PageESt14default_deleteIS1_EE11get_deleterEv
FN:475,476,_ZNSt10unique_ptrINSt10filesystem7__cxx114path5_List5_ImplENS3_13_Impl_deleterEE11get_deleterEv
FN:475,476,_ZNSt10unique_ptrINSt7__cxx1112basic_stringIcSt11char_traitsIcESaIcEEESt14default_deleteIS5_EE11get_deleterEv
FN:475,476,_ZNSt10unique_ptrINSt7__cxx1118basic_stringstreamIcSt11char_traitsIcESaIcEEESt14default_deleteIS5_EE11get_deleterEv
FN:486,487,_ZNKSt10unique_ptrINSt7__cxx1112basic_stringIcSt11char_traitsIcESaIcEEESt14default_deleteIS5_EEcvbEv
FN:837,838,_ZSteqINSt7__cxx1112basic_stringIcSt11char_traitsIcESaIcEEESt14default_deleteIS5_EEbRKSt10unique_ptrIT_T0_EDn
FN:93,100,_ZNKSt14default_deleteIN5sqlcc10BufferPoolEEclEPS1_
FN:93,100,_ZNKSt14default_deleteIN5sqlcc11DiskManagerEEclEPS1_
FN:93,100,_ZNKSt14default_deleteIN5sqlcc4PageEEclEPS1_
FN:93,100,_ZNKSt14default_deleteINSt7__cxx1112basic_stringIcSt11char_traitsIcESaIcEEEEclEPS5_
FN:93,100,_ZNKSt14default_deleteINSt7__cxx1118basic_stringstreamIcSt11char_traitsIcESaIcEEEEclEPS5_
FNDA:7,_ZSt11make_uniqueIN5sqlcc10BufferPoolEJPNS0_11DiskManagerERmEENSt8__detail9_MakeUniqIT_E15__single_objectEDpOT0_
FNDA:7,_ZSt11make_uniqueIN5sqlcc11DiskManagerEJRKNSt7__cxx1112basic_stringIcSt11char_traitsIcESaIcEEEEENSt8__detail9_MakeUniqIT_E15__single_objectEDpOT0_
FNDA:113,_ZSt11make_uniqueIN5sqlcc4PageEJRiEENSt8__detail9_MakeUniqIT_E15__single_objectEDpOT0_
FNDA:0,_ZSt11make_uniqueINSt7__cxx1112basic_stringIcSt11char_traitsIcESaIcEEEJEENSt8__detail9_MakeUniqIT_E15__single_objectEDpOT0_
FNDA:7,_ZNSt15__uniq_ptr_implIN5sqlcc10BufferPoolESt14default_deleteIS1_EEC2Ev
FNDA:7,_ZNSt15__uniq_ptr_implIN5sqlcc11DiskManagerESt14default_deleteIS1_EEC2Ev
FNDA:112,_ZNSt15__uniq_ptr_implIN5sqlcc4PageESt14default_deleteIS1_EEC2Ev
FNDA:121,_ZNSt15__uniq_ptr_implINSt7__cxx1112basic_stringIcSt11char_traitsIcESaIcEEESt14default_deleteIS5_EEC2Ev
FNDA:7,_ZNSt15__uniq_ptr_implIN5sqlcc10BufferPoolESt14default_deleteIS1_EEC2EPS1_
FNDA:7,_ZNSt15__uniq_ptr_implIN5sqlcc11DiskManagerESt14default_deleteIS1_EEC2EPS1_
FNDA:113,_ZNSt15__uniq_ptr_implIN5sqlcc4PageESt14default_deleteIS1_EEC2EPS1_
FNDA:0,_ZNSt15__uniq_ptr_implINSt7__cxx1112basic_stringIcSt11char_traitsIcESaIcEEESt14default_deleteIS5_EEC2EPS5_
FNDA:7,_ZNSt15__uniq_ptr_implIN5sqlcc10BufferPoolESt14default_deleteIS1_EEaSEOS4_
FNDA:7,_ZNSt15__uniq_ptr_implIN5sqlcc11DiskManagerESt14default_deleteIS1_EEaSEOS4_
FNDA:112,_ZNSt15__uniq_ptr_implIN5sqlcc4PageESt14default_deleteIS1_EEaSEOS4_
FNDA:0,_ZNSt15__uniq_ptr_implINSt7__cxx1112basic_stringIcSt11char_traitsIcESaIcEEESt14default_deleteIS5_EEaSEOS8_
FNDA:49,_ZNSt15__uniq_ptr_implIN5sqlcc10BufferPoolESt14default_deleteIS1_EE6_M_ptrEv
FNDA:49,_ZNSt15__uniq_ptr_implIN5sqlcc11DiskManagerESt14default_deleteIS1_EE6_M_ptrEv
FNDA:786,_ZNSt15__uniq_ptr_implIN5sqlcc4PageESt14default_deleteIS1_EE6_M_ptrEv
FNDA:15,_ZNSt15__uniq_ptr_implINSt10filesystem7__cxx114path5_List5_ImplENS3_13_Impl_deleterEE6_M_ptrEv
FNDA:255,_ZNSt15__uniq_ptr_implINSt7__cxx1112basic_stringIcSt11char_traitsIcESaIcEEESt14default_deleteIS5_EE6_M_ptrEv
FNDA:0,_ZNSt15__uniq_ptr_implINSt7__cxx1118basic_stringstreamIcSt11char_traitsIcESaIcEEESt14default_deleteIS5_EE6_M_ptrEv
FNDA:242,_ZNKSt15__uniq_ptr_implIN5sqlcc10BufferPoolESt14default_deleteIS1_EE6_M_ptrEv
FNDA:7,_ZNKSt15__uniq_ptr_implIN5sqlcc11DiskManagerESt14default_deleteIS1_EE6_M_ptrEv
FNDA:232,_ZNKSt15__uniq_ptr_implIN5sqlcc4PageESt14default_deleteIS1_EE6_M_ptrEv
FNDA:0,_ZNKSt15__uniq_ptr_implINSt7__cxx1112basic_stringIcSt11char_traitsIcESaIcEEESt14default_deleteIS5_EE6_M_ptrEv
FNDA:0,_ZNKSt15__uniq_ptr_implINSt7__cxx1118basic_stringstreamIcSt11char_traitsIcESaIcEEESt14default_deleteIS5_EE6_M_ptrEv
FNDA:21,_ZNSt15__uniq_ptr_implIN5sqlcc10BufferPoolESt14default_deleteIS1_EE10_M_deleterEv
FNDA:21,_ZNSt15__uniq_ptr_implIN5sqlcc11DiskManagerESt14default_deleteIS1_EE10_M_deleterEv
FNDA:337,_ZNSt15__uniq_ptr_implIN5sqlcc4PageESt14default_deleteIS1_EE10_M_deleterEv
FNDA:15,_ZNSt15__uniq_ptr_implINSt10filesystem7__cxx114path5_List5_ImplENS3_13_Impl_deleterEE10_M_deleterEv
FNDA:0,_ZNSt15__uniq_ptr_implINSt7__cxx1112basic_stringIcSt11char_traitsIcESaIcEEESt14default_deleteIS5_EE10_M_deleterEv
FNDA:0,_ZNSt15__uniq_ptr_implINSt7__cxx1118basic_stringstreamIcSt11char_traitsIcESaIcEEESt14default_deleteIS5_EE10_M_deleterEv
FNDA:7,_ZNSt15__uniq_ptr_implIN5sqlcc10BufferPoolESt14default_deleteIS1_EE5resetEPS1_
FNDA:7,_ZNSt15__uniq_ptr_implIN5sqlcc11DiskManagerESt14default_deleteIS1_EE5resetEPS1_
FNDA:112,_ZNSt15__uniq_ptr_implIN5sqlcc4PageESt14default_deleteIS1_EE5resetEPS1_
FNDA:0,_ZNSt15__uniq_ptr_implINSt7__cxx1112basic_stringIcSt11char_traitsIcESaIcEEESt14default_deleteIS5_EE5resetEPS5_
FNDA:7,_ZNSt15__uniq_ptr_implIN5sqlcc10BufferPoolESt14default_deleteIS1_EE7releaseEv
FNDA:7,_ZNSt15__uniq_ptr_implIN5sqlcc11DiskManagerESt14default_deleteIS1_EE7releaseEv
FNDA:112,_ZNSt15__uniq_ptr_implIN5sqlcc4PageESt14default_deleteIS1_EE7releaseEv
FNDA:0,_ZNSt15__uniq_ptr_implINSt7__cxx1112basic_stringIcSt11char_traitsIcESaIcEEESt14default_deleteIS5_EE7releaseEv
FNDA:7,_ZNSt15__uniq_ptr_dataIN5sqlcc10BufferPoolESt14default_deleteIS1_ELb1ELb1EEaSEOS4_
FNDA:7,_ZNSt15__uniq_ptr_dataIN5sqlcc11DiskManagerESt14default_deleteIS1_ELb1ELb1EEaSEOS4_
FNDA:112,_ZNSt15__uniq_ptr_dataIN5sqlcc4PageESt14default_deleteIS1_ELb1ELb1EEaSEOS4_
FNDA:0,_ZNSt15__uniq_ptr_dataINSt7__cxx1112basic_stringIcSt11char_traitsIcESaIcEEESt14default_deleteIS5_ELb1ELb1EEaSEOS8_
FNDA:7,_ZNSt10unique_ptrIN5sqlcc10BufferPoolESt14default_deleteIS1_EEC2IS3_vEEv
FNDA:7,_ZNSt10unique_ptrIN5sqlcc11DiskManagerESt14default_deleteIS1_EEC2IS3_vEEv
FNDA:112,_ZNSt10unique_ptrIN5sqlcc4PageESt14default_deleteIS1_EEC2IS3_vEEv
FNDA:121,_ZNSt10unique_ptrINSt7__cxx1112basic_stringIcSt11char_traitsIcESaIcEEESt14default_deleteIS5_EEC2IS7_vEEv
FNDA:7,_ZNSt10unique_ptrIN5sqlcc10BufferPoolESt14default_deleteIS1_EEC2IS3_vEEPS1_
FNDA:7,_ZNSt10unique_ptrIN5sqlcc11DiskManagerESt14default_deleteIS1_EEC2IS3_vEEPS1_
FNDA:113,_ZNSt10unique_ptrIN5sqlcc4PageESt14default_deleteIS1_EEC2IS3_vEEPS1_
FNDA:0,_ZNSt10unique_ptrINSt7__cxx1112basic_stringIcSt11char_traitsIcESaIcEEESt14default_deleteIS5_EEC2IS7_vEEPS5_
FNDA:14,_ZNSt10unique_ptrIN5sqlcc10BufferPoolESt14default_deleteIS1_EED2Ev
FNDA:14,_ZNSt10unique_ptrIN5sqlcc11DiskManagerESt14default_deleteIS1_EED2Ev
FNDA:225,_ZNSt10unique_ptrIN5sqlcc4PageESt14default_deleteIS1_EED2Ev
FNDA:15,_ZNSt10unique_ptrINSt10filesystem7__cxx114path5_List5_ImplENS3_13_Impl_deleterEED2Ev
FNDA:255,_ZNSt10unique_ptrINSt7__cxx1112basic_stringIcSt11char_traitsIcESaIcEEESt14default_deleteIS5_EED2Ev
FNDA:0,_ZNSt10unique_ptrINSt7__cxx1118basic_stringstreamIcSt11char_traitsIcESaIcEEESt14default_deleteIS5_EED2Ev
FNDA:7,_ZNSt10unique_ptrIN5sqlcc10BufferPoolESt14default_deleteIS1_EEaSEOS4_
FNDA:7,_ZNSt10unique_ptrIN5sqlcc11DiskManagerESt14default_deleteIS1_EEaSEOS4_
FNDA:112,_ZNSt10unique_ptrIN5sqlcc4PageESt14default_deleteIS1_EEaSEOS4_
FNDA:0,_ZNSt10unique_ptrINSt7__cxx1112basic_stringIcSt11char_traitsIcESaIcEEESt14default_deleteIS5_EEaSEOS8_
FNDA:108,_ZNKSt10unique_ptrIN5sqlcc4PageESt14default_deleteIS1_EEdeEv
FNDA:0,_ZNKSt10unique_ptrINSt7__cxx1118basic_stringstreamIcSt11char_traitsIcESaIcEEESt14default_deleteIS5_EEdeEv
FNDA:242,_ZNKSt10unique_ptrIN5sqlcc10BufferPoolESt14default_deleteIS1_EEptEv
FNDA:0,_ZNKSt10unique_ptrINSt7__cxx1112basic_stringIcSt11char_traitsIcESaIcEEESt14default_deleteIS5_EEptEv
FNDA:242,_ZNKSt10unique_ptrIN5sqlcc10BufferPoolESt14default_deleteIS1_EE3getEv
FNDA:7,_ZNKSt10unique_ptrIN5sqlcc11DiskManagerESt14default_deleteIS1_EE3getEv
FNDA:232,_ZNKSt10unique_ptrIN5sqlcc4PageESt14default_deleteIS1_EE3getEv
FNDA:0,_ZNKSt10unique_ptrINSt7__cxx1112basic_stringIcSt11char_traitsIcESaIcEEESt14default_deleteIS5_EE3getEv
FNDA:0,_ZNKSt10unique_ptrINSt7__cxx1118basic_stringstreamIcSt11char_traitsIcESaIcEEESt14default_deleteIS5_EE3getEv
FNDA:7,_ZNSt10unique_ptrIN5sqlcc10BufferPoolESt14default_deleteIS1_EE11get_deleterEv
FNDA:7,_ZNSt10unique_ptrIN5sqlcc11DiskManagerESt14default_deleteIS1_EE11get_deleterEv
FNDA:113,_ZNSt10unique_ptrIN5sqlcc4PageESt14default_deleteIS1_EE11get_deleterEv
FNDA:15,_ZNSt10unique_ptrINSt10filesystem7__cxx114path5_List5_ImplENS3_13_Impl_deleterEE11get_deleterEv
FNDA:0,_ZNSt10unique_ptrINSt7__cxx1112basic_stringIcSt11char_traitsIcESaIcEEESt14default_deleteIS5_EE11get_deleterEv
FNDA:0,_ZNSt10unique_ptrINSt7__cxx1118basic_stringstreamIcSt11char_traitsIcESaIcEEESt14default_deleteIS5_EE11get_deleterEv
FNDA:0,_ZNKSt10unique_ptrINSt7__cxx1112basic_stringIcSt11char_traitsIcESaIcEEESt14default_deleteIS5_EEcvbEv
FNDA:0,_ZSteqINSt7__cxx1112basic_stringIcSt11char_traitsIcESaIcEEESt14default_deleteIS5_EEbRKSt10unique_ptrIT_T0_EDn
FNDA:7,_ZNKSt14default_deleteIN5sqlcc10BufferPoolEEclEPS1_
FNDA:7,_ZNKSt14default_deleteIN5sqlcc11DiskManagerEEclEPS1_
FNDA:113,_ZNKSt14default_deleteIN5sqlcc4PageEEclEPS1_
FNDA:0,_ZNKSt14default_deleteINSt7__cxx1112basic_stringIcSt11char_traitsIcESaIcEEEEclEPS5_
FNDA:0,_ZNKSt14default_deleteINSt7__cxx1118basic_stringstreamIcSt11char_traitsIcESaIcEEEEclEPS5_
FNF:85
FNH:61
DA:93,127
DA:99,127
DA:100,127
DA:174,247
DA:176,127
DA:189,126
DA:191,126
DA:192,126
DA:193,126
DA:197,1154
DA:199,481
DA:201,394
DA:206,126
DA:208,126
DA:209,126
DA:210,126
DA:211,0
DA:212,126
DA:215,126
DA:217,126
DA:218,126
DA:219,126
DA:243,126
DA:304,247
DA:305,247
DA:306,247
DA:317,127
DA:318,127
DA:319,127
DA:398,523
DA:402,523
DA:403,523
DA:404,142
DA:405,523
DA:406,523
DA:414,126
DA:451,108
DA:453,108
DA:454,108
DA:460,242
DA:463,242
DA:469,481
DA:470,481
DA:475,142
DA:476,142
DA:486,0
DA:487,0
DA:837,0
DA:838,0
DA:1069,127
DA:1070,127
LF:51
LH:46
end_of_record
TN:
SF:/usr/include/c++/13/bits/unordered_map.h
FN:148,148,_ZNSt13unordered_mapIiSt10unique_ptrIN5sqlcc4PageESt14default_deleteIS2_EESt4hashIiESt8equal_toIiESaISt4pairIKiS5_EEEC2Ev
FN:148,148,_ZNSt13unordered_mapIiSt14_List_iteratorIiESt4hashIiESt8equal_toIiESaISt4pairIKiS1_EEEC2Ev
FN:148,148,_ZNSt13unordered_mapIibSt4hashIiESt8equal_toIiESaISt4pairIKibEEEC2Ev
FN:148,148,_ZNSt13unordered_mapIiiSt4hashIiESt8equal_toIiESaISt4pairIKiiEEEC2Ev
FN:317,318,_ZNKSt13unordered_mapIiSt10unique_ptrIN5sqlcc4PageESt14default_deleteIS2_EESt4hashIiESt8equal_toIiESaISt4pairIKiS5_EEE4sizeEv
FN:332,333,_ZNSt13unordered_mapIiSt10unique_ptrIN5sqlcc4PageESt14default_deleteIS2_EESt4hashIiESt8equal_toIiESaISt4pairIKiS5_EEE5beginEv
FN:354,355,_ZNSt13unordered_mapIiSt10unique_ptrIN5sqlcc4PageESt14default_deleteIS2_EESt4hashIiESt8equal_toIiESaISt4pairIKiS5_EEE3endEv
FN:354,355,_ZNSt13unordered_mapIiSt14_List_iteratorIiESt4hashIiESt8equal_toIiESaISt4pairIKiS1_EEE3endEv
FN:354,355,_ZNSt13unordered_mapIibSt4hashIiESt8equal_toIiESaISt4pairIKibEEE3endEv
FN:354,355,_ZNSt13unordered_mapIiiSt4hashIiESt8equal_toIiESaISt4pairIKiiEEE3endEv
FN:752,753,_ZNSt13unordered_mapIiSt10unique_ptrIN5sqlcc4PageESt14default_deleteIS2_EESt4hashIiESt8equal_toIiESaISt4pairIKiS5_EEE5eraseENSt8__detail14_Node_iteratorISC_Lb0ELb0EEE
FN:752,753,_ZNSt13unordered_mapIiSt14_List_iteratorIiESt4hashIiESt8equal_toIiESaISt4pairIKiS1_EEE5eraseENSt8__detail14_Node_iteratorIS8_Lb0ELb0EEE
FN:752,753,_ZNSt13unordered_mapIibSt4hashIiESt8equal_toIiESaISt4pairIKibEEE5eraseENSt8__detail14_Node_iteratorIS6_Lb0ELb0EEE
FN:752,753,_ZNSt13unordered_mapIiiSt4hashIiESt8equal_toIiESaISt4pairIKiiEEE5eraseENSt8__detail14_Node_iteratorIS6_Lb0ELb0EEE
FN:769,770,_ZNSt13unordered_mapIiSt10unique_ptrIN5sqlcc4PageESt14default_deleteIS2_EESt4hashIiESt8equal_toIiESaISt4pairIKiS5_EEE5eraseERSB_
FN:769,770,_ZNSt13unordered_mapIiSt14_List_iteratorIiESt4hashIiESt8equal_toIiESaISt4pairIKiS1_EEE5eraseERS7_
FN:769,770,_ZNSt13unordered_mapIibSt4hashIiESt8equal_toIiESaISt4pairIKibEEE5eraseERS5_
FN:769,770,_ZNSt13unordered_mapIiiSt4hashIiESt8equal_toIiESaISt4pairIKiiEEE5eraseERS5_
FN:875,876,_ZNSt13unordered_mapIiSt10unique_ptrIN5sqlcc4PageESt14default_deleteIS2_EESt4hashIiESt8equal_toIiESaISt4pairIKiS5_EEE4findERSB_
FN:875,876,_ZNSt13unordered_mapIiSt14_List_iteratorIiESt4hashIiESt8equal_toIiESaISt4pairIKiS1_EEE4findERS7_
FN:875,876,_ZNSt13unordered_mapIibSt4hashIiESt8equal_toIiESaISt4pairIKibEEE4findERS5_
FN:875,876,_ZNSt13unordered_mapIiiSt4hashIiESt8equal_toIiESaISt4pairIKiiEEE4findERS5_
FN:986,987,_ZNSt13unordered_mapIiSt10unique_ptrIN5sqlcc4PageESt14default_deleteIS2_EESt4hashIiESt8equal_toIiESaISt4pairIKiS5_EEEixERSB_
FN:986,987,_ZNSt13unordered_mapIiSt14_List_iteratorIiESt4hashIiESt8equal_toIiESaISt4pairIKiS1_EEEixERS7_
FN:986,987,_ZNSt13unordered_mapIibSt4hashIiESt8equal_toIiESaISt4pairIKibEEEixERS5_
FN:986,987,_ZNSt13unordered_mapIiiSt4hashIiESt8equal_toIiESaISt4pairIKiiEEEixERS5_
FNDA:7,_ZNSt13unordered_mapIiSt10unique_ptrIN5sqlcc4PageESt14default_deleteIS2_EESt4hashIiESt8equal_toIiESaISt4pairIKiS5_EEEC2Ev
FNDA:7,_ZNSt13unordered_mapIiSt14_List_iteratorIiESt4hashIiESt8equal_toIiESaISt4pairIKiS1_EEEC2Ev
FNDA:7,_ZNSt13unordered_mapIibSt4hashIiESt8equal_toIiESaISt4pairIKibEEEC2Ev
FNDA:7,_ZNSt13unordered_mapIiiSt4hashIiESt8equal_toIiESaISt4pairIKiiEEEC2Ev
FNDA:113,_ZNKSt13unordered_mapIiSt10unique_ptrIN5sqlcc4PageESt14default_deleteIS2_EESt4hashIiESt8equal_toIiESaISt4pairIKiS5_EEE4sizeEv
FNDA:8,_ZNSt13unordered_mapIiSt10unique_ptrIN5sqlcc4PageESt14default_deleteIS2_EESt4hashIiESt8equal_toIiESaISt4pairIKiS5_EEE5beginEv
FNDA:179,_ZNSt13unordered_mapIiSt10unique_ptrIN5sqlcc4PageESt14default_deleteIS2_EESt4hashIiESt8equal_toIiESaISt4pairIKiS5_EEE3endEv
FNDA:9,_ZNSt13unordered_mapIiSt14_List_iteratorIiESt4hashIiESt8equal_toIiESaISt4pairIKiS1_EEE3endEv
FNDA:156,_ZNSt13unordered_mapIibSt4hashIiESt8equal_toIiESaISt4pairIKibEEE3endEv
FNDA:197,_ZNSt13unordered_mapIiiSt4hashIiESt8equal_toIiESaISt4pairIKiiEEE3endEv
FNDA:1,_ZNSt13unordered_mapIiSt10unique_ptrIN5sqlcc4PageESt14default_deleteIS2_EESt4hashIiESt8equal_toIiESaISt4pairIKiS5_EEE5eraseENSt8__detail14_Node_iteratorISC_Lb0ELb0EEE
FNDA:1,_ZNSt13unordered_mapIiSt14_List_iteratorIiESt4hashIiESt8equal_toIiESaISt4pairIKiS1_EEE5eraseENSt8__detail14_Node_iteratorIS8_Lb0ELb0EEE
FNDA:39,_ZNSt13unordered_mapIibSt4hashIiESt8equal_toIiESaISt4pairIKibEEE5eraseENSt8__detail14_Node_iteratorIS6_Lb0ELb0EEE
FNDA:39,_ZNSt13unordered_mapIiiSt4hashIiESt8equal_toIiESaISt4pairIKiiEEE5eraseENSt8__detail14_Node_iteratorIS6_Lb0ELb0EEE
FNDA:39,_ZNSt13unordered_mapIiSt10unique_ptrIN5sqlcc4PageESt14default_deleteIS2_EESt4hashIiESt8equal_toIiESaISt4pairIKiS5_EEE5eraseERSB_
FNDA:39,_ZNSt13unordered_mapIiSt14_List_iteratorIiESt4hashIiESt8equal_toIiESaISt4pairIKiS1_EEE5eraseERS7_
FNDA:1,_ZNSt13unordered_mapIibSt4hashIiESt8equal_toIiESaISt4pairIKibEEE5eraseERS5_
FNDA:1,_ZNSt13unordered_mapIiiSt4hashIiESt8equal_toIiESaISt4pairIKiiEEE5eraseERS5_
FNDA:171,_ZNSt13unordered_mapIiSt10unique_ptrIN5sqlcc4PageESt14default_deleteIS2_EESt4hashIiESt8equal_toIiESaISt4pairIKiS5_EEE4findERSB_
FNDA:9,_ZNSt13unordered_mapIiSt14_List_iteratorIiESt4hashIiESt8equal_toIiESaISt4pairIKiS1_EEE4findERS7_
FNDA:117,_ZNSt13unordered_mapIibSt4hashIiESt8equal_toIiESaISt4pairIKibEEE4findERS5_
FNDA:158,_ZNSt13unordered_mapIiiSt4hashIiESt8equal_toIiESaISt4pairIKiiEEE4findERS5_
FNDA:112,_ZNSt13unordered_mapIiSt10unique_ptrIN5sqlcc4PageESt14default_deleteIS2_EESt4hashIiESt8equal_toIiESaISt4pairIKiS5_EEEixERSB_
FNDA:120,_ZNSt13unordered_mapIiSt14_List_iteratorIiESt4hashIiESt8equal_toIiESaISt4pairIKiS1_EEEixERS7_
FNDA:169,_ZNSt13unordered_mapIibSt4hashIiESt8equal_toIiESaISt4pairIKibEEEixERS5_
FNDA:120,_ZNSt13unordered_mapIiiSt4hashIiESt8equal_toIiESaISt4pairIKiiEEEixERS5_
FNF:26
FNH:26
DA:148,28
DA:317,113
DA:318,113
DA:332,8
DA:333,8
DA:354,541
DA:355,541
DA:752,80
DA:753,80
DA:769,80
DA:770,80
DA:875,455
DA:876,455
DA:986,521
DA:987,521
LF:15
LH:15
end_of_record
TN:
SF:/usr/include/c++/13/bits/vector.tcc
FN:445,524,_ZNSt6vectorIiSaIiEE17_M_realloc_insertIJRKiEEEvN9__gnu_cxx17__normal_iteratorIPiS1_EEDpOT_
FNDA:8,_ZNSt6vectorIiSaIiEE17_M_realloc_insertIJRKiEEEvN9__gnu_cxx17__normal_iteratorIPiS1_EEDpOT_
FNF:1
FNH:1
DA:445,8
DA:455,8
DA:456,8
DA:457,8
DA:458,8
DA:459,8
DA:460,8
DA:468,8
DA:469,8
DA:475,8
DA:480,8
DA:481,8
DA:483,8
DA:485,8
DA:486,8
DA:519,8
DA:520,8
DA:521,8
DA:522,8
DA:523,8
DA:524,8
LF:21
LH:21
end_of_record
TN:
SF:/usr/include/c++/13/ext/aligned_buffer.h
FN:104,107,_ZN9__gnu_cxx16__aligned_bufferISt4pairIKiSt10unique_ptrIN5sqlcc4PageESt14default_deleteIS5_EEEE7_M_addrEv
FN:104,107,_ZN9__gnu_cxx16__aligned_bufferISt4pairIKiSt14_List_iteratorIiEEE7_M_addrEv
FN:104,107,_ZN9__gnu_cxx16__aligned_bufferISt4pairIKibEE7_M_addrEv
FN:104,107,_ZN9__gnu_cxx16__aligned_bufferISt4pairIKiiEE7_M_addrEv
FN:110,113,_ZNK9__gnu_cxx16__aligned_bufferISt4pairIKiSt10unique_ptrIN5sqlcc4PageESt14default_deleteIS5_EEEE7_M_addrEv
FN:110,113,_ZNK9__gnu_cxx16__aligned_bufferISt4pairIKiSt14_List_iteratorIiEEE7_M_addrEv
FN:110,113,_ZNK9__gnu_cxx16__aligned_bufferISt4pairIKibEE7_M_addrEv
FN:110,113,_ZNK9__gnu_cxx16__aligned_bufferISt4pairIKiiEE7_M_addrEv
FN:116,117,_ZN9__gnu_cxx16__aligned_bufferISt4pairIKiSt10unique_ptrIN5sqlcc4PageESt14default_deleteIS5_EEEE6_M_ptrEv
FN:116,117,_ZN9__gnu_cxx16__aligned_bufferISt4pairIKiSt14_List_iteratorIiEEE6_M_ptrEv
FN:116,117,_ZN9__gnu_cxx16__aligned_bufferISt4pairIKibEE6_M_ptrEv
FN:116,117,_ZN9__gnu_cxx16__aligned_bufferISt4pairIKiiEE6_M_ptrEv
FN:120,121,_ZNK9__gnu_cxx16__aligned_bufferISt4pairIKiSt10unique_ptrIN5sqlcc4PageESt14default_deleteIS5_EEEE6_M_ptrEv
FN:120,121,_ZNK9__gnu_cxx16__aligned_bufferISt4pairIKiSt14_List_iteratorIiEEE6_M_ptrEv
FN:120,121,_ZNK9__gnu_cxx16__aligned_bufferISt4pairIKibEE6_M_ptrEv
FN:120,121,_ZNK9__gnu_cxx16__aligned_bufferISt4pairIKiiEE6_M_ptrEv
FN:64,65,_ZN9__gnu_cxx16__aligned_membufIiE7_M_addrEv
FN:72,73,_ZN9__gnu_cxx16__aligned_membufIiE6_M_ptrEv
FNDA:461,_ZN9__gnu_cxx16__aligned_bufferISt4pairIKiSt10unique_ptrIN5sqlcc4PageESt14default_deleteIS5_EEEE7_M_addrEv
FNDA:353,_ZN9__gnu_cxx16__aligned_bufferISt4pairIKiSt14_List_iteratorIiEEE7_M_addrEv
FNDA:579,_ZN9__gnu_cxx16__aligned_bufferISt4pairIKibEE7_M_addrEv
FNDA:738,_ZN9__gnu_cxx16__aligned_bufferISt4pairIKiiEE7_M_addrEv
FNDA:458,_ZNK9__gnu_cxx16__aligned_bufferISt4pairIKiSt10unique_ptrIN5sqlcc4PageESt14default_deleteIS5_EEEE7_M_addrEv
FNDA:308,_ZNK9__gnu_cxx16__aligned_bufferISt4pairIKiSt14_List_iteratorIiEEE7_M_addrEv
FNDA:465,_ZNK9__gnu_cxx16__aligned_bufferISt4pairIKibEE7_M_addrEv
FNDA:457,_ZNK9__gnu_cxx16__aligned_bufferISt4pairIKiiEE7_M_addrEv
FNDA:461,_ZN9__gnu_cxx16__aligned_bufferISt4pairIKiSt10unique_ptrIN5sqlcc4PageESt14default_deleteIS5_EEEE6_M_ptrEv
FNDA:353,_ZN9__gnu_cxx16__aligned_bufferISt4pairIKiSt14_List_iteratorIiEEE6_M_ptrEv
FNDA:579,_ZN9__gnu_cxx16__aligned_bufferISt4pairIKibEE6_M_ptrEv
FNDA:738,_ZN9__gnu_cxx16__aligned_bufferISt4pairIKiiEE6_M_ptrEv
FNDA:458,_ZNK9__gnu_cxx16__aligned_bufferISt4pairIKiSt10unique_ptrIN5sqlcc4PageESt14default_deleteIS5_EEEE6_M_ptrEv
FNDA:308,_ZNK9__gnu_cxx16__aligned_bufferISt4pairIKiSt14_List_iteratorIiEEE6_M_ptrEv
FNDA:465,_ZNK9__gnu_cxx16__aligned_bufferISt4pairIKibEE6_M_ptrEv
FNDA:457,_ZNK9__gnu_cxx16__aligned_bufferISt4pairIKiiEE6_M_ptrEv
FNDA:279,_ZN9__gnu_cxx16__aligned_membufIiE7_M_addrEv
FNDA:279,_ZN9__gnu_cxx16__aligned_membufIiE6_M_ptrEv
FNF:18
FNH:18
DA:64,279
DA:65,279
DA:72,279
DA:73,279
DA:104,2131
DA:106,2131
DA:110,1688
DA:112,1688
DA:116,2131
DA:117,2131
DA:120,1688
DA:121,1688
LF:12
LH:12
end_of_record
TN:
SF:/usr/include/c++/13/ext/alloc_traits.h
FNF:0
FNH:0
DA:98,42
LF:1
LH:1
end_of_record
TN:
SF:/usr/include/c++/13/iomanip
FN:167,168,_ZSt7setfillIcESt8_SetfillIT_ES1_
FN:227,228,_ZSt4setwi
FN:360,361,_ZSt8put_timeIcESt9_Put_timeIT_EPK2tmPKS1_
FN:365,395,_ZStlsIcSt11char_traitsIcEERSt13basic_ostreamIT_T0_ES6_St9_Put_timeIS3_E
FNDA:76,_ZSt7setfillIcESt8_SetfillIT_ES1_
FNDA:76,_ZSt4setwi
FNDA:76,_ZSt8put_timeIcESt9_Put_timeIT_EPK2tmPKS1_
FNDA:76,_ZStlsIcSt11char_traitsIcEERSt13basic_ostreamIT_T0_ES6_St9_Put_timeIS3_E
FNF:4
FNH:4
DA:167,76
DA:168,76
DA:227,76
DA:228,76
DA:360,76
DA:361,76
DA:365,76
DA:367,76
DA:368,76
DA:370,76
DA:376,152
DA:377,76
DA:379,76
DA:380,152
DA:381,76
DA:382,0
DA:384,0
DA:386,0
DA:387,0
DA:389,0
DA:390,0
DA:391,76
DA:392,0
DA:394,76
DA:395,76
LF:25
LH:18
end_of_record
TN:
SF:/usr/include/c++/13/new
FN:174,175,_ZnwmPv
FN:180,180,_ZdlPvS_
FNDA:1116,_ZnwmPv
FNDA:0,_ZdlPvS_
FNF:2
FNH:1
DA:174,1116
DA:175,1116
DA:180,0
LF:3
LH:2
end_of_record
TN:
SF:/usr/include/c++/13/string_view
FN:146,148,_ZNSt17basic_string_viewIcSt11char_traitsIcEEC2EPKcm
FN:229,230,_ZNKSt17basic_string_viewIcSt11char_traitsIcEE4sizeEv
FN:289,290,_ZNKSt17basic_string_viewIcSt11char_traitsIcEE4dataEv
FNDA:15,_ZNSt17basic_string_viewIcSt11char_traitsIcEEC2EPKcm
FNDA:15,_ZNKSt17basic_string_viewIcSt11char_traitsIcEE4sizeEv
FNDA:15,_ZNKSt17basic_string_viewIcSt11char_traitsIcEE4dataEv
FNF:3
FNH:3
DA:146,15
DA:147,15
DA:148,15
DA:229,15
DA:230,15
DA:289,15
DA:290,15
LF:7
LH:7
end_of_record
TN:
SF:/usr/include/c++/13/tuple
FN:125,125,_ZNSt10_Head_baseILm1ENSt10filesystem7__cxx114path5_List13_Impl_deleterELb1EE7_M_headERS5_
FN:125,125,_ZNSt10_Head_baseILm1ESt14default_deleteIN5sqlcc10BufferPoolEELb1EE7_M_headERS4_
FN:125,125,_ZNSt10_Head_baseILm1ESt14default_deleteIN5sqlcc11DiskManagerEELb1EE7_M_headERS4_
FN:125,125,_ZNSt10_Head_baseILm1ESt14default_deleteIN5sqlcc4PageEELb1EE7_M_headERS4_
FN:125,125,_ZNSt10_Head_baseILm1ESt14default_deleteINSt7__cxx1112basic_stringIcSt11char_traitsIcESaIcEEEELb1EE7_M_headERS8_
FN:125,125,_ZNSt10_Head_baseILm1ESt14default_deleteINSt7__cxx1118basic_stringstreamIcSt11char_traitsIcESaIcEEEELb1EE7_M_headERS8_
FN:1317,1319,_ZNSt5tupleIJPN5sqlcc10BufferPoolESt14default_deleteIS1_EEEC2ILb1ELb1EEEv
FN:1317,1319,_ZNSt5tupleIJPN5sqlcc11DiskManagerESt14default_deleteIS1_EEEC2ILb1ELb1EEEv
FN:1317,1319,_ZNSt5tupleIJPN5sqlcc4PageESt14default_deleteIS1_EEEC2ILb1ELb1EEEv
FN:1317,1319,_ZNSt5tupleIJPNSt7__cxx1112basic_stringIcSt11char_traitsIcESaIcEEESt14default_deleteIS5_EEEC2ILb1ELb1EEEv
FN:1787,1788,_ZSt12__get_helperILm0EPN5sqlcc10BufferPoolEJSt14default_deleteIS1_EEERT0_RSt11_Tuple_implIXT_EJS5_DpT1_EE
FN:1787,1788,_ZSt12__get_helperILm0EPN5sqlcc11DiskManagerEJSt14default_deleteIS1_EEERT0_RSt11_Tuple_implIXT_EJS5_DpT1_EE
FN:1787,1788,_ZSt12__get_helperILm0EPN5sqlcc4PageEJSt14default_deleteIS1_EEERT0_RSt11_Tuple_implIXT_EJS5_DpT1_EE
FN:1787,1788,_ZSt12__get_helperILm0EPNSt10filesystem7__cxx114path5_List5_ImplEJNS3_13_Impl_deleterEEERT0_RSt11_Tuple_implIXT_EJS7_DpT1_EE
FN:1787,1788,_ZSt12__get_helperILm0EPNSt7__cxx1112basic_stringIcSt11char_traitsIcESaIcEEEJSt14default_deleteIS5_EEERT0_RSt11_Tuple_implIXT_EJS9_DpT1_EE
FN:1787,1788,_ZSt12__get_helperILm0EPNSt7__cxx1118basic_stringstreamIcSt11char_traitsIcESaIcEEEJSt14default_deleteIS5_EEERT0_RSt11_Tuple_implIXT_EJS9_DpT1_EE
FN:1787,1788,_ZSt12__get_helperILm0ERKiJEERT0_RSt11_Tuple_implIXT_EJS2_DpT1_EE
FN:1787,1788,_ZSt12__get_helperILm1ENSt10filesystem7__cxx114path5_List13_Impl_deleterEJEERT0_RSt11_Tuple_implIXT_EJS5_DpT1_EE
FN:1787,1788,_ZSt12__get_helperILm1ESt14default_deleteIN5sqlcc10BufferPoolEEJEERT0_RSt11_Tuple_implIXT_EJS4_DpT1_EE
FN:1787,1788,_ZSt12__get_helperILm1ESt14default_deleteIN5sqlcc11DiskManagerEEJEERT0_RSt11_Tuple_implIXT_EJS4_DpT1_EE
FN:1787,1788,_ZSt12__get_helperILm1ESt14default_deleteIN5sqlcc4PageEEJEERT0_RSt11_Tuple_implIXT_EJS4_DpT1_EE
FN:1787,1788,_ZSt12__get_helperILm1ESt14default_deleteINSt7__cxx1112basic_stringIcSt11char_traitsIcESaIcEEEEJEERT0_RSt11_Tuple_implIXT_EJS8_DpT1_EE
FN:1787,1788,_ZSt12__get_helperILm1ESt14default_deleteINSt7__cxx1118basic_stringstreamIcSt11char_traitsIcESaIcEEEEJEERT0_RSt11_Tuple_implIXT_EJS8_DpT1_EE
FN:1792,1793,_ZSt12__get_helperILm0EPN5sqlcc10BufferPoolEJSt14default_deleteIS1_EEERKT0_RKSt11_Tuple_implIXT_EJS5_DpT1_EE
FN:1792,1793,_ZSt12__get_helperILm0EPN5sqlcc11DiskManagerEJSt14default_deleteIS1_EEERKT0_RKSt11_Tuple_implIXT_EJS5_DpT1_EE
FN:1792,1793,_ZSt12__get_helperILm0EPN5sqlcc4PageEJSt14default_deleteIS1_EEERKT0_RKSt11_Tuple_implIXT_EJS5_DpT1_EE
FN:1792,1793,_ZSt12__get_helperILm0EPNSt7__cxx1112basic_stringIcSt11char_traitsIcESaIcEEEJSt14default_deleteIS5_EEERKT0_RKSt11_Tuple_implIXT_EJS9_DpT1_EE
FN:1792,1793,_ZSt12__get_helperILm0EPNSt7__cxx1118basic_stringstreamIcSt11char_traitsIcESaIcEEEJSt14default_deleteIS5_EEERKT0_RKSt11_Tuple_implIXT_EJS9_DpT1_EE
FN:1803,1804,_ZSt3getILm0EJPN5sqlcc10BufferPoolESt14default_deleteIS1_EEERNSt13tuple_elementIXT_ESt5tupleIJDpT0_EEE4typeERS9_
FN:1803,1804,_ZSt3getILm0EJPN5sqlcc11DiskManagerESt14default_deleteIS1_EEERNSt13tuple_elementIXT_ESt5tupleIJDpT0_EEE4typeERS9_
FN:1803,1804,_ZSt3getILm0EJPN5sqlcc4PageESt14default_deleteIS1_EEERNSt13tuple_elementIXT_ESt5tupleIJDpT0_EEE4typeERS9_
FN:1803,1804,_ZSt3getILm0EJPNSt10filesystem7__cxx114path5_List5_ImplENS3_13_Impl_deleterEEERNSt13tuple_elementIXT_ESt5tupleIJDpT0_EEE4typeERSB_
FN:1803,1804,_ZSt3getILm0EJPNSt7__cxx1112basic_stringIcSt11char_traitsIcESaIcEEESt14default_deleteIS5_EEERNSt13tuple_elementIXT_ESt5tupleIJDpT0_EEE4typeERSD_
FN:1803,1804,_ZSt3getILm0EJPNSt7__cxx1118basic_stringstreamIcSt11char_traitsIcESaIcEEESt14default_deleteIS5_EEERNSt13tuple_elementIXT_ESt5tupleIJDpT0_EEE4typeERSD_
FN:1803,1804,_ZSt3getILm0EJRKiEERNSt13tuple_elementIXT_ESt5tupleIJDpT0_EEE4typeERS6_
FN:1803,1804,_ZSt3getILm1EJPN5sqlcc10BufferPoolESt14default_deleteIS1_EEERNSt13tuple_elementIXT_ESt5tupleIJDpT0_EEE4typeERS9_
FN:1803,1804,_ZSt3getILm1EJPN5sqlcc11DiskManagerESt14default_deleteIS1_EEERNSt13tuple_elementIXT_ESt5tupleIJDpT0_EEE4typeERS9_
FN:1803,1804,_ZSt3getILm1EJPN5sqlcc4PageESt14default_deleteIS1_EEERNSt13tuple_elementIXT_ESt5tupleIJDpT0_EEE4typeERS9_
FN:1803,1804,_ZSt3getILm1EJPNSt10filesystem7__cxx114path5_List5_ImplENS3_13_Impl_deleterEEERNSt13tuple_elementIXT_ESt5tupleIJDpT0_EEE4typeERSB_
FN:1803,1804,_ZSt3getILm1EJPNSt7__cxx1112basic_stringIcSt11char_traitsIcESaIcEEESt14default_deleteIS5_EEERNSt13tuple_elementIXT_ESt5tupleIJDpT0_EEE4typeERSD_
FN:1803,1804,_ZSt3getILm1EJPNSt7__cxx1118basic_stringstreamIcSt11char_traitsIcESaIcEEESt14default_deleteIS5_EEERNSt13tuple_elementIXT_ESt5tupleIJDpT0_EEE4typeERSD_
FN:1809,1810,_ZSt3getILm0EJPN5sqlcc10BufferPoolESt14default_deleteIS1_EEERKNSt13tuple_elementIXT_ESt5tupleIJDpT0_EEE4typeERKS9_
FN:1809,1810,_ZSt3getILm0EJPN5sqlcc11DiskManagerESt14default_deleteIS1_EEERKNSt13tuple_elementIXT_ESt5tupleIJDpT0_EEE4typeERKS9_
FN:1809,1810,_ZSt3getILm0EJPN5sqlcc4PageESt14default_deleteIS1_EEERKNSt13tuple_elementIXT_ESt5tupleIJDpT0_EEE4typeERKS9_
FN:1809,1810,_ZSt3getILm0EJPNSt7__cxx1112basic_stringIcSt11char_traitsIcESaIcEEESt14default_deleteIS5_EEERKNSt13tuple_elementIXT_ESt5tupleIJDpT0_EEE4typeERKSD_
FN:1809,1810,_ZSt3getILm0EJPNSt7__cxx1118basic_stringstreamIcSt11char_traitsIcESaIcEEESt14default_deleteIS5_EEERKNSt13tuple_elementIXT_ESt5tupleIJDpT0_EEE4typeERKSD_
FN:190,191,_ZNSt10_Head_baseILm0EPN5sqlcc10BufferPoolELb0EEC2Ev
FN:190,191,_ZNSt10_Head_baseILm0EPN5sqlcc11DiskManagerELb0EEC2Ev
FN:190,191,_ZNSt10_Head_baseILm0EPN5sqlcc4PageELb0EEC2Ev
FN:190,191,_ZNSt10_Head_baseILm0EPNSt7__cxx1112basic_stringIcSt11char_traitsIcESaIcEEELb0EEC2Ev
FN:193,194,_ZNSt10_Head_baseILm0ERKiLb0EEC2ES1_
FN:2252,2258,_ZNSt4pairIKiSt10unique_ptrIN5sqlcc4PageESt14default_deleteIS3_EEEC2IJRS0_EJEEESt21piecewise_construct_tSt5tupleIJDpT_EESB_IJDpT0_EE
FN:2252,2258,_ZNSt4pairIKiSt14_List_iteratorIiEEC2IJRS0_EJEEESt21piecewise_construct_tSt5tupleIJDpT_EES7_IJDpT0_EE
FN:2252,2258,_ZNSt4pairIKibEC2IJRS0_EJEEESt21piecewise_construct_tSt5tupleIJDpT_EES5_IJDpT0_EE
FN:2252,2258,_ZNSt4pairIKiiEC2IJRS0_EJEEESt21piecewise_construct_tSt5tupleIJDpT_EES5_IJDpT0_EE
FN:2264,2269,_ZNSt4pairIKiSt10unique_ptrIN5sqlcc4PageESt14default_deleteIS3_EEEC2IJRS0_EJLm0EEJEJEEERSt5tupleIJDpT_EERSA_IJDpT1_EESt12_Index_tupleIJXspT0_EEESJ_IJXspT2_EEE
FN:2264,2269,_ZNSt4pairIKiSt14_List_iteratorIiEEC2IJRS0_EJLm0EEJEJEEERSt5tupleIJDpT_EERS6_IJDpT1_EESt12_Index_tupleIJXspT0_EEESF_IJXspT2_EEE
FN:2264,2269,_ZNSt4pairIKibEC2IJRS0_EJLm0EEJEJEEERSt5tupleIJDpT_EERS4_IJDpT1_EESt12_Index_tupleIJXspT0_EEESD_IJXspT2_EEE
FN:2264,2269,_ZNSt4pairIKiiEC2IJRS0_EJLm0EEJEJEEERSt5tupleIJDpT_EERS4_IJDpT1_EESt12_Index_tupleIJXspT0_EEESD_IJXspT2_EEE
FN:234,234,_ZNSt10_Head_baseILm0EPN5sqlcc10BufferPoolELb0EE7_M_headERS3_
FN:234,234,_ZNSt10_Head_baseILm0EPN5sqlcc11DiskManagerELb0EE7_M_headERS3_
FN:234,234,_ZNSt10_Head_baseILm0EPN5sqlcc4PageELb0EE7_M_headERS3_
FN:234,234,_ZNSt10_Head_baseILm0EPNSt10filesystem7__cxx114path5_List5_ImplELb0EE7_M_headERS6_
FN:234,234,_ZNSt10_Head_baseILm0EPNSt7__cxx1112basic_stringIcSt11char_traitsIcESaIcEEELb0EE7_M_headERS7_
FN:234,234,_ZNSt10_Head_baseILm0EPNSt7__cxx1118basic_stringstreamIcSt11char_traitsIcESaIcEEELb0EE7_M_headERS7_
FN:234,234,_ZNSt10_Head_baseILm0ERKiLb0EE7_M_headERS2_
FN:237,237,_ZNSt10_Head_baseILm0EPN5sqlcc10BufferPoolELb0EE7_M_headERKS3_
FN:237,237,_ZNSt10_Head_baseILm0EPN5sqlcc11DiskManagerELb0EE7_M_headERKS3_
FN:237,237,_ZNSt10_Head_baseILm0EPN5sqlcc4PageELb0EE7_M_headERKS3_
FN:237,237,_ZNSt10_Head_baseILm0EPNSt7__cxx1112basic_stringIcSt11char_traitsIcESaIcEEELb0EE7_M_headERKS7_
FN:237,237,_ZNSt10_Head_baseILm0EPNSt7__cxx1118basic_stringstreamIcSt11char_traitsIcESaIcEEELb0EE7_M_headERKS7_
FN:269,269,_ZNSt11_Tuple_implILm0EJPN5sqlcc10BufferPoolESt14default_deleteIS1_EEE7_M_headERS5_
FN:269,269,_ZNSt11_Tuple_implILm0EJPN5sqlcc11DiskManagerESt14default_deleteIS1_EEE7_M_headERS5_
FN:269,269,_ZNSt11_Tuple_implILm0EJPN5sqlcc4PageESt14default_deleteIS1_EEE7_M_headERS5_
FN:269,269,_ZNSt11_Tuple_implILm0EJPNSt10filesystem7__cxx114path5_List5_ImplENS3_13_Impl_deleterEEE7_M_headERS7_
FN:269,269,_ZNSt11_Tuple_implILm0EJPNSt7__cxx1112basic_stringIcSt11char_traitsIcESaIcEEESt14default_deleteIS5_EEE7_M_headERS9_
FN:269,269,_ZNSt11_Tuple_implILm0EJPNSt7__cxx1118basic_stringstreamIcSt11char_traitsIcESaIcEEESt14default_deleteIS5_EEE7_M_headERS9_
FN:272,272,_ZNSt11_Tuple_implILm0EJPN5sqlcc10BufferPoolESt14default_deleteIS1_EEE7_M_headERKS5_
FN:272,272,_ZNSt11_Tuple_implILm0EJPN5sqlcc11DiskManagerESt14default_deleteIS1_EEE7_M_headERKS5_
FN:272,272,_ZNSt11_Tuple_implILm0EJPN5sqlcc4PageESt14default_deleteIS1_EEE7_M_headERKS5_
FN:272,272,_ZNSt11_Tuple_implILm0EJPNSt7__cxx1112basic_stringIcSt11char_traitsIcESaIcEEESt14default_deleteIS5_EEE7_M_headERKS9_
FN:272,272,_ZNSt11_Tuple_implILm0EJPNSt7__cxx1118basic_stringstreamIcSt11char_traitsIcESaIcEEESt14default_deleteIS5_EEE7_M_headERKS9_
FN:280,281,_ZNSt11_Tuple_implILm0EJPN5sqlcc10BufferPoolESt14default_deleteIS1_EEEC2Ev
FN:280,281,_ZNSt11_Tuple_implILm0EJPN5sqlcc11DiskManagerESt14default_deleteIS1_EEEC2Ev
FN:280,281,_ZNSt11_Tuple_implILm0EJPN5sqlcc4PageESt14default_deleteIS1_EEEC2Ev
FN:280,281,_ZNSt11_Tuple_implILm0EJPNSt7__cxx1112basic_stringIcSt11char_traitsIcESaIcEEESt14default_deleteIS5_EEEC2Ev
FN:497,497,_ZNSt11_Tuple_implILm0EJRKiEE7_M_headERS2_
FN:497,497,_ZNSt11_Tuple_implILm1EJNSt10filesystem7__cxx114path5_List13_Impl_deleterEEE7_M_headERS5_
FN:497,497,_ZNSt11_Tuple_implILm1EJSt14default_deleteIN5sqlcc10BufferPoolEEEE7_M_headERS4_
FN:497,497,_ZNSt11_Tuple_implILm1EJSt14default_deleteIN5sqlcc11DiskManagerEEEE7_M_headERS4_
FN:497,497,_ZNSt11_Tuple_implILm1EJSt14default_deleteIN5sqlcc4PageEEEE7_M_headERS4_
FN:497,497,_ZNSt11_Tuple_implILm1EJSt14default_deleteINSt7__cxx1112basic_stringIcSt11char_traitsIcESaIcEEEEEE7_M_headERS8_
FN:497,497,_ZNSt11_Tuple_implILm1EJSt14default_deleteINSt7__cxx1118basic_stringstreamIcSt11char_traitsIcESaIcEEEEEE7_M_headERS8_
FN:503,504,_ZNSt11_Tuple_implILm1EJSt14default_deleteIN5sqlcc10BufferPoolEEEEC2Ev
FN:503,504,_ZNSt11_Tuple_implILm1EJSt14default_deleteIN5sqlcc11DiskManagerEEEEC2Ev
FN:503,504,_ZNSt11_Tuple_implILm1EJSt14default_deleteIN5sqlcc4PageEEEEC2Ev
FN:503,504,_ZNSt11_Tuple_implILm1EJSt14default_deleteINSt7__cxx1112basic_stringIcSt11char_traitsIcESaIcEEEEEEC2Ev
FN:507,509,_ZNSt11_Tuple_implILm0EJRKiEEC2ES1_
FN:527,530,_ZNSt11_Tuple_implILm0EJRKiEEC2EOS2_
FN:81,82,_ZNSt10_Head_baseILm1ESt14default_deleteIN5sqlcc10BufferPoolEELb1EEC2Ev
FN:81,82,_ZNSt10_Head_baseILm1ESt14default_deleteIN5sqlcc11DiskManagerEELb1EEC2Ev
FN:81,82,_ZNSt10_Head_baseILm1ESt14default_deleteIN5sqlcc4PageEELb1EEC2Ev
FN:81,82,_ZNSt10_Head_baseILm1ESt14default_deleteINSt7__cxx1112basic_stringIcSt11char_traitsIcESaIcEEEELb1EEC2Ev
FN:874,876,_ZNSt5tupleIJRKiEEC2ILb1ELb1EEES1_
FN:903,903,_ZNSt5tupleIJRKiEEC2EOS2_
FNDA:15,_ZNSt10_Head_baseILm1ENSt10filesystem7__cxx114path5_List13_Impl_deleterELb1EE7_M_headERS5_
FNDA:21,_ZNSt10_Head_baseILm1ESt14default_deleteIN5sqlcc10BufferPoolEELb1EE7_M_headERS4_
FNDA:21,_ZNSt10_Head_baseILm1ESt14default_deleteIN5sqlcc11DiskManagerEELb1EE7_M_headERS4_
FNDA:337,_ZNSt10_Head_baseILm1ESt14default_deleteIN5sqlcc4PageEELb1EE7_M_headERS4_
FNDA:0,_ZNSt10_Head_baseILm1ESt14default_deleteINSt7__cxx1112basic_stringIcSt11char_traitsIcESaIcEEEELb1EE7_M_headERS8_
FNDA:0,_ZNSt10_Head_baseILm1ESt14default_deleteINSt7__cxx1118basic_stringstreamIcSt11char_traitsIcESaIcEEEELb1EE7_M_headERS8_
FNDA:14,_ZNSt5tupleIJPN5sqlcc10BufferPoolESt14default_deleteIS1_EEEC2ILb1ELb1EEEv
FNDA:14,_ZNSt5tupleIJPN5sqlcc11DiskManagerESt14default_deleteIS1_EEEC2ILb1ELb1EEEv
FNDA:225,_ZNSt5tupleIJPN5sqlcc4PageESt14default_deleteIS1_EEEC2ILb1ELb1EEEv
FNDA:121,_ZNSt5tupleIJPNSt7__cxx1112basic_stringIcSt11char_traitsIcESaIcEEESt14default_deleteIS5_EEEC2ILb1ELb1EEEv
FNDA:49,_ZSt12__get_helperILm0EPN5sqlcc10BufferPoolEJSt14default_deleteIS1_EEERT0_RSt11_Tuple_implIXT_EJS5_DpT1_EE
FNDA:49,_ZSt12__get_helperILm0EPN5sqlcc11DiskManagerEJSt14default_deleteIS1_EEERT0_RSt11_Tuple_implIXT_EJS5_DpT1_EE
FNDA:786,_ZSt12__get_helperILm0EPN5sqlcc4PageEJSt14default_deleteIS1_EEERT0_RSt11_Tuple_implIXT_EJS5_DpT1_EE
FNDA:15,_ZSt12__get_helperILm0EPNSt10filesystem7__cxx114path5_List5_ImplEJNS3_13_Impl_deleterEEERT0_RSt11_Tuple_implIXT_EJS7_DpT1_EE
FNDA:255,_ZSt12__get_helperILm0EPNSt7__cxx1112basic_stringIcSt11char_traitsIcESaIcEEEJSt14default_deleteIS5_EEERT0_RSt11_Tuple_implIXT_EJS9_DpT1_EE
FNDA:0,_ZSt12__get_helperILm0EPNSt7__cxx1118basic_stringstreamIcSt11char_traitsIcESaIcEEEJSt14default_deleteIS5_EEERT0_RSt11_Tuple_implIXT_EJS9_DpT1_EE
FNDA:448,_ZSt12__get_helperILm0ERKiJEERT0_RSt11_Tuple_implIXT_EJS2_DpT1_EE
FNDA:15,_ZSt12__get_helperILm1ENSt10filesystem7__cxx114path5_List13_Impl_deleterEJEERT0_RSt11_Tuple_implIXT_EJS5_DpT1_EE
FNDA:21,_ZSt12__get_helperILm1ESt14default_deleteIN5sqlcc10BufferPoolEEJEERT0_RSt11_Tuple_implIXT_EJS4_DpT1_EE
FNDA:21,_ZSt12__get_helperILm1ESt14default_deleteIN5sqlcc11DiskManagerEEJEERT0_RSt11_Tuple_implIXT_EJS4_DpT1_EE
FNDA:337,_ZSt12__get_helperILm1ESt14default_deleteIN5sqlcc4PageEEJEERT0_RSt11_Tuple_implIXT_EJS4_DpT1_EE
FNDA:0,_ZSt12__get_helperILm1ESt14default_deleteINSt7__cxx1112basic_stringIcSt11char_traitsIcESaIcEEEEJEERT0_RSt11_Tuple_implIXT_EJS8_DpT1_EE
FNDA:0,_ZSt12__get_helperILm1ESt14default_deleteINSt7__cxx1118basic_stringstreamIcSt11char_traitsIcESaIcEEEEJEERT0_RSt11_Tuple_implIXT_EJS8_DpT1_EE
FNDA:242,_ZSt12__get_helperILm0EPN5sqlcc10BufferPoolEJSt14default_deleteIS1_EEERKT0_RKSt11_Tuple_implIXT_EJS5_DpT1_EE
FNDA:7,_ZSt12__get_helperILm0EPN5sqlcc11DiskManagerEJSt14default_deleteIS1_EEERKT0_RKSt11_Tuple_implIXT_EJS5_DpT1_EE
FNDA:232,_ZSt12__get_helperILm0EPN5sqlcc4PageEJSt14default_deleteIS1_EEERKT0_RKSt11_Tuple_implIXT_EJS5_DpT1_EE
FNDA:0,_ZSt12__get_helperILm0EPNSt7__cxx1112basic_stringIcSt11char_traitsIcESaIcEEEJSt14default_deleteIS5_EEERKT0_RKSt11_Tuple_implIXT_EJS9_DpT1_EE
FNDA:0,_ZSt12__get_helperILm0EPNSt7__cxx1118basic_stringstreamIcSt11char_traitsIcESaIcEEEJSt14default_deleteIS5_EEERKT0_RKSt11_Tuple_implIXT_EJS9_DpT1_EE
FNDA:49,_ZSt3getILm0EJPN5sqlcc10BufferPoolESt14default_deleteIS1_EEERNSt13tuple_elementIXT_ESt5tupleIJDpT0_EEE4typeERS9_
FNDA:49,_ZSt3getILm0EJPN5sqlcc11DiskManagerESt14default_deleteIS1_EEERNSt13tuple_elementIXT_ESt5tupleIJDpT0_EEE4typeERS9_
FNDA:786,_ZSt3getILm0EJPN5sqlcc4PageESt14default_deleteIS1_EEERNSt13tuple_elementIXT_ESt5tupleIJDpT0_EEE4typeERS9_
FNDA:15,_ZSt3getILm0EJPNSt10filesystem7__cxx114path5_List5_ImplENS3_13_Impl_deleterEEERNSt13tuple_elementIXT_ESt5tupleIJDpT0_EEE4typeERSB_
FNDA:255,_ZSt3getILm0EJPNSt7__cxx1112basic_stringIcSt11char_traitsIcESaIcEEESt14default_deleteIS5_EEERNSt13tuple_elementIXT_ESt5tupleIJDpT0_EEE4typeERSD_
FNDA:0,_ZSt3getILm0EJPNSt7__cxx1118basic_stringstreamIcSt11char_traitsIcESaIcEEESt14default_deleteIS5_EEERNSt13tuple_elementIXT_ESt5tupleIJDpT0_EEE4typeERSD_
FNDA:448,_ZSt3getILm0EJRKiEERNSt13tuple_elementIXT_ESt5tupleIJDpT0_EEE4typeERS6_
FNDA:21,_ZSt3getILm1EJPN5sqlcc10BufferPoolESt14default_deleteIS1_EEERNSt13tuple_elementIXT_ESt5tupleIJDpT0_EEE4typeERS9_
FNDA:21,_ZSt3getILm1EJPN5sqlcc11DiskManagerESt14default_deleteIS1_EEERNSt13tuple_elementIXT_ESt5tupleIJDpT0_EEE4typeERS9_
FNDA:337,_ZSt3getILm1EJPN5sqlcc4PageESt14default_deleteIS1_EEERNSt13tuple_elementIXT_ESt5tupleIJDpT0_EEE4typeERS9_
FNDA:15,_ZSt3getILm1EJPNSt10filesystem7__cxx114path5_List5_ImplENS3_13_Impl_deleterEEERNSt13tuple_elementIXT_ESt5tupleIJDpT0_EEE4typeERSB_
FNDA:0,_ZSt3getILm1EJPNSt7__cxx1112basic_stringIcSt11char_traitsIcESaIcEEESt14default_deleteIS5_EEERNSt13tuple_elementIXT_ESt5tupleIJDpT0_EEE4typeERSD_
FNDA:0,_ZSt3getILm1EJPNSt7__cxx1118basic_stringstreamIcSt11char_traitsIcESaIcEEESt14default_deleteIS5_EEERNSt13tuple_elementIXT_ESt5tupleIJDpT0_EEE4typeERSD_
FNDA:242,_ZSt3getILm0EJPN5sqlcc10BufferPoolESt14default_deleteIS1_EEERKNSt13tuple_elementIXT_ESt5tupleIJDpT0_EEE4typeERKS9_
FNDA:7,_ZSt3getILm0EJPN5sqlcc11DiskManagerESt14default_deleteIS1_EEERKNSt13tuple_elementIXT_ESt5tupleIJDpT0_EEE4typeERKS9_
FNDA:232,_ZSt3getILm0EJPN5sqlcc4PageESt14default_deleteIS1_EEERKNSt13tuple_elementIXT_ESt5tupleIJDpT0_EEE4typeERKS9_
FNDA:0,_ZSt3getILm0EJPNSt7__cxx1112basic_stringIcSt11char_traitsIcESaIcEEESt14default_deleteIS5_EEERKNSt13tuple_elementIXT_ESt5tupleIJDpT0_EEE4typeERKSD_
FNDA:0,_ZSt3getILm0EJPNSt7__cxx1118basic_stringstreamIcSt11char_traitsIcESaIcEEESt14default_deleteIS5_EEERKNSt13tuple_elementIXT_ESt5tupleIJDpT0_EEE4typeERKSD_
FNDA:14,_ZNSt10_Head_baseILm0EPN5sqlcc10BufferPoolELb0EEC2Ev
FNDA:14,_ZNSt10_Head_baseILm0EPN5sqlcc11DiskManagerELb0EEC2Ev
FNDA:225,_ZNSt10_Head_baseILm0EPN5sqlcc4PageELb0EEC2Ev
FNDA:121,_ZNSt10_Head_baseILm0EPNSt7__cxx1112basic_stringIcSt11char_traitsIcESaIcEEELb0EEC2Ev
FNDA:448,_ZNSt10_Head_baseILm0ERKiLb0EEC2ES1_
FNDA:112,_ZNSt4pairIKiSt10unique_ptrIN5sqlcc4PageESt14default_deleteIS3_EEEC2IJRS0_EJEEESt21piecewise_construct_tSt5tupleIJDpT_EESB_IJDpT0_EE
FNDA:112,_ZNSt4pairIKiSt14_List_iteratorIiEEC2IJRS0_EJEEESt21piecewise_construct_tSt5tupleIJDpT_EES7_IJDpT0_EE
FNDA:112,_ZNSt4pairIKibEC2IJRS0_EJEEESt21piecewise_construct_tSt5tupleIJDpT_EES5_IJDpT0_EE
FNDA:112,_ZNSt4pairIKiiEC2IJRS0_EJEEESt21piecewise_construct_tSt5tupleIJDpT_EES5_IJDpT0_EE
FNDA:112,_ZNSt4pairIKiSt10unique_ptrIN5sqlcc4PageESt14default_deleteIS3_EEEC2IJRS0_EJLm0EEJEJEEERSt5tupleIJDpT_EERSA_IJDpT1_EESt12_Index_tupleIJXspT0_EEESJ_IJXspT2_EEE
FNDA:112,_ZNSt4pairIKiSt14_List_iteratorIiEEC2IJRS0_EJLm0EEJEJEEERSt5tupleIJDpT_EERS6_IJDpT1_EESt12_Index_tupleIJXspT0_EEESF_IJXspT2_EEE
FNDA:112,_ZNSt4pairIKibEC2IJRS0_EJLm0EEJEJEEERSt5tupleIJDpT_EERS4_IJDpT1_EESt12_Index_tupleIJXspT0_EEESD_IJXspT2_EEE
FNDA:112,_ZNSt4pairIKiiEC2IJRS0_EJLm0EEJEJEEERSt5tupleIJDpT_EERS4_IJDpT1_EESt12_Index_tupleIJXspT0_EEESD_IJXspT2_EEE
FNDA:49,_ZNSt10_Head_baseILm0EPN5sqlcc10BufferPoolELb0EE7_M_headERS3_
FNDA:49,_ZNSt10_Head_baseILm0EPN5sqlcc11DiskManagerELb0EE7_M_headERS3_
FNDA:786,_ZNSt10_Head_baseILm0EPN5sqlcc4PageELb0EE7_M_headERS3_
FNDA:15,_ZNSt10_Head_baseILm0EPNSt10filesystem7__cxx114path5_List5_ImplELb0EE7_M_headERS6_
FNDA:255,_ZNSt10_Head_baseILm0EPNSt7__cxx1112basic_stringIcSt11char_traitsIcESaIcEEELb0EE7_M_headERS7_
FNDA:0,_ZNSt10_Head_baseILm0EPNSt7__cxx1118basic_stringstreamIcSt11char_traitsIcESaIcEEELb0EE7_M_headERS7_
FNDA:448,_ZNSt10_Head_baseILm0ERKiLb0EE7_M_headERS2_
FNDA:242,_ZNSt10_Head_baseILm0EPN5sqlcc10BufferPoolELb0EE7_M_headERKS3_
FNDA:7,_ZNSt10_Head_baseILm0EPN5sqlcc11DiskManagerELb0EE7_M_headERKS3_
FNDA:232,_ZNSt10_Head_baseILm0EPN5sqlcc4PageELb0EE7_M_headERKS3_
FNDA:0,_ZNSt10_Head_baseILm0EPNSt7__cxx1112basic_stringIcSt11char_traitsIcESaIcEEELb0EE7_M_headERKS7_
FNDA:0,_ZNSt10_Head_baseILm0EPNSt7__cxx1118basic_stringstreamIcSt11char_traitsIcESaIcEEELb0EE7_M_headERKS7_
FNDA:49,_ZNSt11_Tuple_implILm0EJPN5sqlcc10BufferPoolESt14default_deleteIS1_EEE7_M_headERS5_
FNDA:49,_ZNSt11_Tuple_implILm0EJPN5sqlcc11DiskManagerESt14default_deleteIS1_EEE7_M_headERS5_
FNDA:786,_ZNSt11_Tuple_implILm0EJPN5sqlcc4PageESt14default_deleteIS1_EEE7_M_headERS5_
FNDA:15,_ZNSt11_Tuple_implILm0EJPNSt10filesystem7__cxx114path5_List5_ImplENS3_13_Impl_deleterEEE7_M_headERS7_
FNDA:255,_ZNSt11_Tuple_implILm0EJPNSt7__cxx1112basic_stringIcSt11char_traitsIcESaIcEEESt14default_deleteIS5_EEE7_M_headERS9_
FNDA:0,_ZNSt11_Tuple_implILm0EJPNSt7__cxx1118basic_stringstreamIcSt11char_traitsIcESaIcEEESt14default_deleteIS5_EEE7_M_headERS9_
FNDA:242,_ZNSt11_Tuple_implILm0EJPN5sqlcc10BufferPoolESt14default_deleteIS1_EEE7_M_headERKS5_
FNDA:7,_ZNSt11_Tuple_implILm0EJPN5sqlcc11DiskManagerESt14default_deleteIS1_EEE7_M_headERKS5_
FNDA:232,_ZNSt11_Tuple_implILm0EJPN5sqlcc4PageESt14default_deleteIS1_EEE7_M_headERKS5_
FNDA:0,_ZNSt11_Tuple_implILm0EJPNSt7__cxx1112basic_stringIcSt11char_traitsIcESaIcEEESt14default_deleteIS5_EEE7_M_headERKS9_
FNDA:0,_ZNSt11_Tuple_implILm0EJPNSt7__cxx1118basic_stringstreamIcSt11char_traitsIcESaIcEEESt14default_deleteIS5_EEE7_M_headERKS9_
FNDA:14,_ZNSt11_Tuple_implILm0EJPN5sqlcc10BufferPoolESt14default_deleteIS1_EEEC2Ev
FNDA:14,_ZNSt11_Tuple_implILm0EJPN5sqlcc11DiskManagerESt14default_deleteIS1_EEEC2Ev
FNDA:225,_ZNSt11_Tuple_implILm0EJPN5sqlcc4PageESt14default_deleteIS1_EEEC2Ev
FNDA:121,_ZNSt11_Tuple_implILm0EJPNSt7__cxx1112basic_stringIcSt11char_traitsIcESaIcEEESt14default_deleteIS5_EEEC2Ev
FNDA:448,_ZNSt11_Tuple_implILm0EJRKiEE7_M_headERS2_
FNDA:15,_ZNSt11_Tuple_implILm1EJNSt10filesystem7__cxx114path5_List13_Impl_deleterEEE7_M_headERS5_
FNDA:21,_ZNSt11_Tuple_implILm1EJSt14default_deleteIN5sqlcc10BufferPoolEEEE7_M_headERS4_
FNDA:21,_ZNSt11_Tuple_implILm1EJSt14default_deleteIN5sqlcc11DiskManagerEEEE7_M_headERS4_
FNDA:337,_ZNSt11_Tuple_implILm1EJSt14default_deleteIN5sqlcc4PageEEEE7_M_headERS4_
FNDA:0,_ZNSt11_Tuple_implILm1EJSt14default_deleteINSt7__cxx1112basic_stringIcSt11char_traitsIcESaIcEEEEEE7_M_headERS8_
FNDA:0,_ZNSt11_Tuple_implILm1EJSt14default_deleteINSt7__cxx1118basic_stringstreamIcSt11char_traitsIcESaIcEEEEEE7_M_headERS8_
FNDA:14,_ZNSt11_Tuple_implILm1EJSt14default_deleteIN5sqlcc10BufferPoolEEEEC2Ev
FNDA:14,_ZNSt11_Tuple_implILm1EJSt14default_deleteIN5sqlcc11DiskManagerEEEEC2Ev
FNDA:225,_ZNSt11_Tuple_implILm1EJSt14default_deleteIN5sqlcc4PageEEEEC2Ev
FNDA:121,_ZNSt11_Tuple_implILm1EJSt14default_deleteINSt7__cxx1112basic_stringIcSt11char_traitsIcESaIcEEEEEEC2Ev
FNDA:448,_ZNSt11_Tuple_implILm0EJRKiEEC2ES1_
FNDA:448,_ZNSt11_Tuple_implILm0EJRKiEEC2EOS2_
FNDA:14,_ZNSt10_Head_baseILm1ESt14default_deleteIN5sqlcc10BufferPoolEELb1EEC2Ev
FNDA:14,_ZNSt10_Head_baseILm1ESt14default_deleteIN5sqlcc11DiskManagerEELb1EEC2Ev
FNDA:225,_ZNSt10_Head_baseILm1ESt14default_deleteIN5sqlcc4PageEELb1EEC2Ev
FNDA:121,_ZNSt10_Head_baseILm1ESt14default_deleteINSt7__cxx1112basic_stringIcSt11char_traitsIcESaIcEEEELb1EEC2Ev
FNDA:448,_ZNSt5tupleIJRKiEEC2ILb1ELb1EEES1_
FNDA:448,_ZNSt5tupleIJRKiEEC2EOS2_
FNF:105
FNH:85
DA:81,374
DA:82,374
DA:125,394
DA:190,374
DA:191,374
DA:193,448
DA:194,448
DA:234,1602
DA:237,481
DA:269,1154
DA:272,481
DA:280,374
DA:281,374
DA:497,842
DA:503,374
DA:504,374
DA:507,448
DA:508,448
DA:509,448
DA:527,448
DA:529,448
DA:530,448
DA:874,448
DA:876,448
DA:903,448
DA:1317,374
DA:1319,374
DA:1787,1996
DA:1788,1996
DA:1792,481
DA:1793,481
DA:1803,1996
DA:1804,1996
DA:1809,481
DA:1810,481
DA:2252,448
DA:2257,448
DA:2258,448
DA:2264,448
DA:2267,448
DA:2268,448
DA:2269,448
LF:42
LH:42
end_of_record
TN:
SF:/usr/include/c++/13/type_traits
FN:3649,3656,_ZSt21is_constant_evaluatedv
FNDA:8000,_ZSt21is_constant_evaluatedv
FNF:1
FNH:1
DA:3649,8000
DA:3654,8000
LF:2
LH:2
end_of_record
TN:
SF:/usr/include/c++/13/typeinfo
FN:103,104,_ZNKSt9type_info4nameEv
FNDA:0,_ZNKSt9type_info4nameEv
FNF:1
FNH:0
DA:103,0
DA:104,0
LF:2
LH:0
end_of_record
TN:
SF:/usr/include/gtest/gtest-assertion-result.h
FN:155,161,_ZN7testing15AssertionResultC2IbEERKT_PNSt9enable_ifIXntsrSt14is_convertibleIS2_S0_E5valueEvE4typeE
FN:174,174,_ZNK7testing15AssertionResultcvbEv
FN:183,185,_ZNK7testing15AssertionResult7messageEv
FN:187,187,_ZNK7testing15AssertionResult15failure_messageEv
FN:191,194,_ZN7testing15AssertionResultlsIA12_cEERS0_RKT_
FN:191,194,_ZN7testing15AssertionResultlsIA3_cEERS0_RKT_
FN:191,194,_ZN7testing15AssertionResultlsIA5_cEERS0_RKT_
FN:191,194,_ZN7testing15AssertionResultlsINSt7__cxx1112basic_stringIcSt11char_traitsIcESaIcEEEEERS0_RKT_
FN:191,194,_ZN7testing15AssertionResultlsIPKcEERS0_RKT_
FN:206,209,_ZN7testing15AssertionResult13AppendMessageERKNS_7MessageE
FNDA:121,_ZN7testing15AssertionResultC2IbEERKT_PNSt9enable_ifIXntsrSt14is_convertibleIS2_S0_E5valueEvE4typeE
FNDA:255,_ZNK7testing15AssertionResultcvbEv
FNDA:0,_ZNK7testing15AssertionResult7messageEv
FNDA:0,_ZNK7testing15AssertionResult15failure_messageEv
FNDA:0,_ZN7testing15AssertionResultlsIA12_cEERS0_RKT_
FNDA:0,_ZN7testing15AssertionResultlsIA3_cEERS0_RKT_
FNDA:0,_ZN7testing15AssertionResultlsIA5_cEERS0_RKT_
FNDA:0,_ZN7testing15AssertionResultlsINSt7__cxx1112basic_stringIcSt11char_traitsIcESaIcEEEEERS0_RKT_
FNDA:0,_ZN7testing15AssertionResultlsIPKcEERS0_RKT_
FNDA:0,_ZN7testing15AssertionResult13AppendMessageERKNS_7MessageE
FNF:10
FNH:2
DA:155,121
DA:161,121
DA:174,255
DA:183,0
DA:184,0
DA:187,0
DA:191,0
DA:192,0
DA:193,0
DA:206,0
DA:207,0
DA:208,0
DA:209,0
LF:13
LH:3
end_of_record
TN:
SF:/usr/include/gtest/gtest-message.h
FN:132,150,_ZN7testing7MessagelsIA12_cEERS0_RKT_
FN:132,150,_ZN7testing7MessagelsIA3_cEERS0_RKT_
FN:132,150,_ZN7testing7MessagelsIA5_cEERS0_RKT_
FN:132,150,_ZN7testing7MessagelsINSt7__cxx1112basic_stringIcSt11char_traitsIcESaIcEEEEERS0_RKT_
FN:182,189,_ZN7testing7MessagelsIKcEERS0_RKPT_
FNDA:0,_ZN7testing7MessagelsIA12_cEERS0_RKT_
FNDA:0,_ZN7testing7MessagelsIA3_cEERS0_RKT_
FNDA:0,_ZN7testing7MessagelsIA5_cEERS0_RKT_
FNDA:0,_ZN7testing7MessagelsINSt7__cxx1112basic_stringIcSt11char_traitsIcESaIcEEEEERS0_RKT_
FNDA:0,_ZN7testing7MessagelsIKcEERS0_RKPT_
FNF:5
FNH:0
DA:132,0
DA:148,0
DA:149,0
DA:182,0
DA:183,0
DA:184,0
DA:186,0
DA:188,0
LF:8
LH:0
end_of_record
TN:
SF:/usr/include/gtest/gtest-printers.h
FN:1108,1113,_ZN7testing8internal14UniversalPrintIDnEEvRKT_PSo
FN:1108,1113,_ZN7testing8internal14UniversalPrintIPN5sqlcc4PageEEEvRKT_PSo
FN:1108,1113,_ZN7testing8internal14UniversalPrintIiEEvRKT_PSo
FN:1148,1152,_ZN7testing13PrintToStringIDnEENSt7__cxx1112basic_stringIcSt11char_traitsIcESaIcEEERKT_
FN:1148,1152,_ZN7testing13PrintToStringIPN5sqlcc4PageEEENSt7__cxx1112basic_stringIcSt11char_traitsIcESaIcEEERKT_
FN:1148,1152,_ZN7testing13PrintToStringIiEENSt7__cxx1112basic_stringIcSt11char_traitsIcESaIcEEERKT_
FN:190,199,_ZN7testing8internal14PointerPrinter10PrintValueIN5sqlcc4PageEEEvPT_PSo
FN:221,226,_ZN7testing8internal52internal_stream_operator_without_lexical_name_lookup13StreamPrinter10PrintValueIivEEDTcvvlsdefp0_fp_ERKT_PSo
FN:326,337,_ZN7testing8internal17PrintWithFallbackIPN5sqlcc4PageEEEvRKT_PSo
FN:326,337,_ZN7testing8internal17PrintWithFallbackIiEEvRKT_PSo
FN:357,359,_ZN7testing8internal19FormatForComparisonIDnPN5sqlcc4PageEE6FormatB5cxx11ERKDn
FN:357,359,_ZN7testing8internal19FormatForComparisonIPN5sqlcc4PageEDnE6FormatB5cxx11ERKS4_
FN:357,359,_ZN7testing8internal19FormatForComparisonIiiE6FormatB5cxx11ERKi
FN:437,440,_ZN7testing8internal33FormatForComparisonFailureMessageIDnPN5sqlcc4PageEEENSt7__cxx1112basic_stringIcSt11char_traitsIcESaIcEEERKT_RKT0_
FN:437,440,_ZN7testing8internal33FormatForComparisonFailureMessageIPN5sqlcc4PageEDnEENSt7__cxx1112basic_stringIcSt11char_traitsIcESaIcEEERKT_RKT0_
FN:437,440,_ZN7testing8internal33FormatForComparisonFailureMessageIiiEENSt7__cxx1112basic_stringIcSt11char_traitsIcESaIcEEERKT_RKT0_
FN:464,466,_ZN7testing8internal7PrintToIPN5sqlcc4PageEEEvRKT_PSo
FN:464,466,_ZN7testing8internal7PrintToIiEEvRKT_PSo
FN:699,699,_ZN7testing8internal7PrintToEDnPSo
FN:799,809,_ZN7testing8internal16UniversalPrinterIDnE5PrintERKDnPSo
FN:799,809,_ZN7testing8internal16UniversalPrinterIPN5sqlcc4PageEE5PrintERKS4_PSo
FN:799,809,_ZN7testing8internal16UniversalPrinterIiE5PrintERKiPSo
FN:989,991,_ZN7testing8internal21UniversalTersePrinterIDnE5PrintERKDnPSo
FN:989,991,_ZN7testing8internal21UniversalTersePrinterIPN5sqlcc4PageEE5PrintERKS4_PSo
FN:989,991,_ZN7testing8internal21UniversalTersePrinterIiE5PrintERKiPSo
FNDA:0,_ZN7testing8internal14UniversalPrintIDnEEvRKT_PSo
FNDA:0,_ZN7testing8internal14UniversalPrintIPN5sqlcc4PageEEEvRKT_PSo
FNDA:0,_ZN7testing8internal14UniversalPrintIiEEvRKT_PSo
FNDA:0,_ZN7testing13PrintToStringIDnEENSt7__cxx1112basic_stringIcSt11char_traitsIcESaIcEEERKT_
FNDA:0,_ZN7testing13PrintToStringIPN5sqlcc4PageEEENSt7__cxx1112basic_stringIcSt11char_traitsIcESaIcEEERKT_
FNDA:0,_ZN7testing13PrintToStringIiEENSt7__cxx1112basic_stringIcSt11char_traitsIcESaIcEEERKT_
FNDA:0,_ZN7testing8internal14PointerPrinter10PrintValueIN5sqlcc4PageEEEvPT_PSo
FNDA:0,_ZN7testing8internal52internal_stream_operator_without_lexical_name_lookup13StreamPrinter10PrintValueIivEEDTcvvlsdefp0_fp_ERKT_PSo
FNDA:0,_ZN7testing8internal17PrintWithFallbackIPN5sqlcc4PageEEEvRKT_PSo
FNDA:0,_ZN7testing8internal17PrintWithFallbackIiEEvRKT_PSo
FNDA:0,_ZN7testing8internal19FormatForComparisonIDnPN5sqlcc4PageEE6FormatB5cxx11ERKDn
FNDA:0,_ZN7testing8internal19FormatForComparisonIPN5sqlcc4PageEDnE6FormatB5cxx11ERKS4_
FNDA:0,_ZN7testing8internal19FormatForComparisonIiiE6FormatB5cxx11ERKi
FNDA:0,_ZN7testing8internal33FormatForComparisonFailureMessageIDnPN5sqlcc4PageEEENSt7__cxx1112basic_stringIcSt11char_traitsIcESaIcEEERKT_RKT0_
FNDA:0,_ZN7testing8internal33FormatForComparisonFailureMessageIPN5sqlcc4PageEDnEENSt7__cxx1112basic_stringIcSt11char_traitsIcESaIcEEERKT_RKT0_
FNDA:0,_ZN7testing8internal33FormatForComparisonFailureMessageIiiEENSt7__cxx1112basic_stringIcSt11char_traitsIcESaIcEEERKT_RKT0_
FNDA:0,_ZN7testing8internal7PrintToIPN5sqlcc4PageEEEvRKT_PSo
FNDA:0,_ZN7testing8internal7PrintToIiEEvRKT_PSo
FNDA:0,_ZN7testing8internal7PrintToEDnPSo
FNDA:0,_ZN7testing8internal16UniversalPrinterIDnE5PrintERKDnPSo
FNDA:0,_ZN7testing8internal16UniversalPrinterIPN5sqlcc4PageEE5PrintERKS4_PSo
FNDA:0,_ZN7testing8internal16UniversalPrinterIiE5PrintERKiPSo
FNDA:0,_ZN7testing8internal21UniversalTersePrinterIDnE5PrintERKDnPSo
FNDA:0,_ZN7testing8internal21UniversalTersePrinterIPN5sqlcc4PageEE5PrintERKS4_PSo
FNDA:0,_ZN7testing8internal21UniversalTersePrinterIiE5PrintERKiPSo
FNF:25
FNH:0
DA:190,0
DA:191,0
DA:192,0
DA:197,0
DA:199,0
DA:221,0
DA:225,0
DA:226,0
DA:326,0
DA:336,0
DA:337,0
DA:357,0
DA:358,0
DA:437,0
DA:439,0
DA:464,0
DA:465,0
DA:466,0
DA:699,0
DA:799,0
DA:808,0
DA:809,0
DA:989,0
DA:990,0
DA:991,0
DA:1108,0
DA:1112,0
DA:1113,0
DA:1148,0
DA:1149,0
DA:1150,0
DA:1151,0
DA:1152,0
LF:33
LH:0
end_of_record
TN:
SF:/usr/include/gtest/gtest.h
FN:1359,1365,_ZN7testing8internal18CmpHelperEQFailureIPN5sqlcc4PageEDnEENS_15AssertionResultEPKcS7_RKT_RKT0_
FN:1359,1365,_ZN7testing8internal18CmpHelperEQFailureIiiEENS_15AssertionResultEPKcS4_RKT_RKT0_
FN:1376,1384,_ZN7testing8internal11CmpHelperEQIPN5sqlcc4PageEDnEENS_15AssertionResultEPKcS7_RKT_RKT0_
FN:1376,1384,_ZN7testing8internal11CmpHelperEQIiiEENS_15AssertionResultEPKcS4_RKT_RKT0_
FN:1395,1399,_ZN7testing8internal8EqHelper7CompareIPN5sqlcc4PageEDnLPv0EEENS_15AssertionResultEPKcS9_RKT_RKT0_
FN:1395,1399,_ZN7testing8internal8EqHelper7CompareIiiLPv0EEENS_15AssertionResultEPKcS6_RKT_RKT0_
FN:1428,1435,_ZN7testing8internal18CmpHelperOpFailureIPN5sqlcc4PageEDnEENS_15AssertionResultEPKcS7_RKT_RKT0_S7_
FN:1428,1435,_ZN7testing8internal18CmpHelperOpFailureIiiEENS_15AssertionResultEPKcS4_RKT_RKT0_S4_
FN:1457,1457,_ZN7testing8internal11CmpHelperNEIPN5sqlcc4PageEDnEENS_15AssertionResultEPKcS7_RKT_RKT0_
FN:1463,1463,_ZN7testing8internal11CmpHelperGEIiiEENS_15AssertionResultEPKcS4_RKT_RKT0_
FN:2317,2317,_Z13RUN_ALL_TESTSv
FN:256,256,_ZN7testing4Test14SetUpTestSuiteEv
FN:264,264,_ZN7testing4Test17TearDownTestSuiteEv
FN:269,269,_ZN7testing4Test16TearDownTestCaseEv
FN:270,270,_ZN7testing4Test13SetUpTestCaseEv
FN:357,357,_ZN7testing4Test5SetupEv
FNDA:0,_ZN7testing8internal18CmpHelperEQFailureIPN5sqlcc4PageEDnEENS_15AssertionResultEPKcS7_RKT_RKT0_
FNDA:0,_ZN7testing8internal18CmpHelperEQFailureIiiEENS_15AssertionResultEPKcS4_RKT_RKT0_
FNDA:1,_ZN7testing8internal11CmpHelperEQIPN5sqlcc4PageEDnEENS_15AssertionResultEPKcS7_RKT_RKT0_
FNDA:12,_ZN7testing8internal11CmpHelperEQIiiEENS_15AssertionResultEPKcS4_RKT_RKT0_
FNDA:1,_ZN7testing8internal8EqHelper7CompareIPN5sqlcc4PageEDnLPv0EEENS_15AssertionResultEPKcS9_RKT_RKT0_
FNDA:12,_ZN7testing8internal8EqHelper7CompareIiiLPv0EEENS_15AssertionResultEPKcS6_RKT_RKT0_
FNDA:0,_ZN7testing8internal18CmpHelperOpFailureIPN5sqlcc4PageEDnEENS_15AssertionResultEPKcS7_RKT_RKT0_S7_
FNDA:0,_ZN7testing8internal18CmpHelperOpFailureIiiEENS_15AssertionResultEPKcS4_RKT_RKT0_S4_
FNDA:120,_ZN7testing8internal11CmpHelperNEIPN5sqlcc4PageEDnEENS_15AssertionResultEPKcS7_RKT_RKT0_
FNDA:1,_ZN7testing8internal11CmpHelperGEIiiEENS_15AssertionResultEPKcS4_RKT_RKT0_
FNDA:1,_Z13RUN_ALL_TESTSv
FNDA:0,_ZN7testing4Test14SetUpTestSuiteEv
FNDA:0,_ZN7testing4Test17TearDownTestSuiteEv
FNDA:0,_ZN7testing4Test16TearDownTestCaseEv
FNDA:0,_ZN7testing4Test13SetUpTestCaseEv
FNDA:0,_ZN7testing4Test5SetupEv
FNF:16
FNH:7
DA:256,0
DA:264,0
DA:269,0
DA:270,0
DA:357,0
DA:1359,0
DA:1364,0
DA:1376,13
DA:1379,13
DA:1380,13
DA:1383,0
DA:1395,13
DA:1398,13
DA:1428,0
DA:1432,0
DA:1433,0
DA:1434,0
DA:1457,120
DA:1463,1
DA:2317,1
LF:20
LH:8
end_of_record
TN:
SF:/usr/include/gtest/internal/gtest-internal.h
FN:419,425,_ZN7testing8internal9GetTypeIdI17StorageEngineTestEEPKvv
FN:438,438,_ZN7testing8internal15TestFactoryBaseD0Ev
FN:438,438,_ZN7testing8internal15TestFactoryBaseD2Ev
FN:445,445,_ZN7testing8internal15TestFactoryBaseC2Ev
FN:457,457,_ZN7testing8internal15TestFactoryImplI32StorageEngineTest_FetchPage_TestE10CreateTestEv
FN:457,457,_ZN7testing8internal15TestFactoryImplI32StorageEngineTest_FlushPage_TestE10CreateTestEv
FN:457,457,_ZN7testing8internal15TestFactoryImplI33StorageEngineTest_DeletePage_TestE10CreateTestEv
FN:457,457,_ZN7testing8internal15TestFactoryImplI36StorageEngineTest_CreateNewPage_TestE10CreateTestEv
FN:457,457,_ZN7testing8internal15TestFactoryImplI36StorageEngineTest_FlushAllPages_TestE10CreateTestEv
FN:457,457,_ZN7testing8internal15TestFactoryImplI41StorageEngineTest_ManyPagesOperation_TestE10CreateTestEv
FN:457,457,_ZN7testing8internal15TestFactoryImplI46StorageEngineTest_InitializeStorageEngine_TestE10CreateTestEv
FN:478,479,_ZN7testing8internal12CodeLocationC2ERKNSt7__cxx1112basic_stringIcSt11char_traitsIcESaIcEEEi
FN:491,494,_ZN7testing8internal19GetNotDefaultOrNullEPFvvES2_
FN:506,525,_ZN7testing8internal16SuiteApiResolverI17StorageEngineTestE19GetSetUpCaseOrSuiteEPKci
FN:527,546,_ZN7testing8internal16SuiteApiResolverI17StorageEngineTestE22GetTearDownCaseOrSuiteEPKci
FN:843,843,_ZN7testing8internal14TrueWithStringC2Ev
FN:846,846,_ZNK7testing8internal14TrueWithStringcvbEv
FNDA:7,_ZN7testing8internal9GetTypeIdI17StorageEngineTestEEPKvv
FNDA:0,_ZN7testing8internal15TestFactoryBaseD0Ev
FNDA:7,_ZN7testing8internal15TestFactoryBaseD2Ev
FNDA:7,_ZN7testing8internal15TestFactoryBaseC2Ev
FNDA:1,_ZN7testing8internal15TestFactoryImplI32StorageEngineTest_FetchPage_TestE10CreateTestEv
FNDA:1,_ZN7testing8internal15TestFactoryImplI32StorageEngineTest_FlushPage_TestE10CreateTestEv
FNDA:1,_ZN7testing8internal15TestFactoryImplI33StorageEngineTest_DeletePage_TestE10CreateTestEv
FNDA:1,_ZN7testing8internal15TestFactoryImplI36StorageEngineTest_CreateNewPage_TestE10CreateTestEv
FNDA:1,_ZN7testing8internal15TestFactoryImplI36StorageEngineTest_FlushAllPages_TestE10CreateTestEv
FNDA:1,_ZN7testing8internal15TestFactoryImplI41StorageEngineTest_ManyPagesOperation_TestE10CreateTestEv
FNDA:1,_ZN7testing8internal15TestFactoryImplI46StorageEngineTest_InitializeStorageEngine_TestE10CreateTestEv
FNDA:7,_ZN7testing8internal12CodeLocationC2ERKNSt7__cxx1112basic_stringIcSt11char_traitsIcESaIcEEEi
FNDA:28,_ZN7testing8internal19GetNotDefaultOrNullEPFvvES2_
FNDA:7,_ZN7testing8internal16SuiteApiResolverI17StorageEngineTestE19GetSetUpCaseOrSuiteEPKci
FNDA:7,_ZN7testing8internal16SuiteApiResolverI17StorageEngineTestE22GetTearDownCaseOrSuiteEPKci
FNDA:2,_ZN7testing8internal14TrueWithStringC2Ev
FNDA:2,_ZNK7testing8internal14TrueWithStringcvbEv
FNF:17
FNH:16
DA:419,7
DA:424,7
DA:438,7
DA:445,7
DA:457,7
DA:478,7
DA:479,7
DA:491,28
DA:493,28
DA:506,7
DA:510,7
DA:512,7
DA:514,7
DA:517,0
DA:519,7
DA:527,7
DA:531,7
DA:533,7
DA:535,7
DA:538,0
DA:540,7
DA:843,2
DA:846,2
LF:23
LH:21
end_of_record
TN:
SF:/usr/include/gtest/internal/gtest-port.h
FN:1042,1042,_ZN7testing8internal8GTestLog9GetStreamEv
FNDA:0,_ZN7testing8internal8GTestLog9GetStreamEv
FNF:1
FNH:0
DA:1042,0
LF:1
LH:0
end_of_record
TN:
SF:/usr/include/gtest/internal/gtest-type-util.h
FN:61,87,_ZN7testing8internal31CanonicalizeForStdLibVersioningENSt7__cxx1112basic_stringIcSt11char_traitsIcESaIcEEE
FN:91,121,_ZN7testing8internal11GetTypeNameB5cxx11ERKSt9type_info
FNDA:0,_ZN7testing8internal31CanonicalizeForStdLibVersioningENSt7__cxx1112basic_stringIcSt11char_traitsIcESaIcEEE
FNDA:0,_ZN7testing8internal11GetTypeNameB5cxx11ERKSt9type_info
FNF:2
FNH:0
DA:61,0
DA:63,0
DA:64,0
DA:65,0
DA:67,0
DA:75,0
DA:78,0
DA:79,0
DA:80,0
DA:83,0
DA:84,0
DA:86,0
DA:91,0
DA:92,0
DA:94,0
DA:100,0
DA:101,0
DA:102,0
DA:103,0
DA:121,0
LF:20
LH:0
end_of_record
TN:
SF:/usr/include/x86_64-linux-gnu/c++/13/bits/c++config.h
FN:540,551,_ZSt23__is_constant_evaluatedv
FNDA:37227,_ZSt23__is_constant_evaluatedv
FNF:1
FNH:1
DA:540,37227
DA:547,37227
LF:2
LH:2
end_of_record
