TN:
SF:/home/liying/sqlcc/include/user_manager.h
FNF:0
FNH:0
LF:0
LH:0
end_of_record
TN:
SF:/home/liying/sqlcc/src/dcl_test.cpp
FN:20,48,_Z18splitSqlStatementsRKNSt7__cxx1112basic_stringIcSt11char_traitsIcESaIcEEE
FN:50,84,main
FN:7,17,_Z11readSqlFileRKNSt7__cxx1112basic_stringIcSt11char_traitsIcESaIcEEE
FNDA:1,_Z18splitSqlStatementsRKNSt7__cxx1112basic_stringIcSt11char_traitsIcESaIcEEE
FNDA:1,main
FNDA:1,_Z11readSqlFileRKNSt7__cxx1112basic_stringIcSt11char_traitsIcESaIcEEE
FNF:3
FNH:3
DA:7,1
DA:8,1
DA:9,1
DA:10,0
DA:14,1
DA:15,1
DA:16,1
DA:17,1
DA:20,1
DA:21,1
DA:22,1
DA:24,564
DA:26,563
DA:27,450
DA:28,436
DA:30,14
DA:33,549
DA:36,549
DA:38,14
DA:39,14
DA:40,14
DA:41,14
DA:43,14
DA:47,2
DA:48,1
DA:50,1
DA:51,1
DA:54,1
DA:57,1
DA:59,1
DA:60,0
DA:61,0
DA:65,1
DA:67,1
DA:69,15
DA:70,14
DA:71,14
DA:73,14
DA:74,14
DA:77,14
DA:78,0
DA:80,14
DA:82,1
DA:83,1
DA:84,1
LF:45
LH:41
end_of_record
TN:
SF:/home/liying/sqlcc/src/ddl_test.cpp
FN:21,49,_Z18splitSqlStatementsRKNSt7__cxx1112basic_stringIcSt11char_traitsIcESaIcEEE
FN:51,90,main
FN:8,18,_Z11readSqlFileRKNSt7__cxx1112basic_stringIcSt11char_traitsIcESaIcEEE
FNDA:1,_Z18splitSqlStatementsRKNSt7__cxx1112basic_stringIcSt11char_traitsIcESaIcEEE
FNDA:1,main
FNDA:1,_Z11readSqlFileRKNSt7__cxx1112basic_stringIcSt11char_traitsIcESaIcEEE
FNF:3
FNH:3
DA:8,1
DA:9,1
DA:10,1
DA:11,0
DA:15,1
DA:16,1
DA:17,1
DA:18,1
DA:21,1
DA:22,1
DA:23,1
DA:25,1352
DA:27,1351
DA:28,633
DA:29,615
DA:31,18
DA:34,1333
DA:37,1333
DA:39,18
DA:40,18
DA:41,18
DA:42,18
DA:44,18
DA:48,2
DA:49,1
DA:51,1
DA:52,1
DA:55,1
DA:58,1
DA:60,1
DA:61,0
DA:62,0
DA:66,1
DA:68,1
DA:70,19
DA:71,18
DA:73,18
DA:74,5
DA:76,13
DA:79,18
DA:80,18
DA:83,18
DA:84,0
DA:86,18
DA:88,1
DA:89,1
DA:90,1
LF:47
LH:43
end_of_record
TN:
SF:/home/liying/sqlcc/src/sql_executor/sql_executor.cpp
FN:13,29,_ZN5sqlcc10TrimStringERNSt7__cxx1112basic_stringIcSt11char_traitsIcESaIcEEE
FN:272,278,_ZN5sqlcc11SqlExecutor13ExecuteSelectERKNSt7__cxx1112basic_stringIcSt11char_traitsIcESaIcEEE
FN:280,303,_ZN5sqlcc11SqlExecutor11ExecuteFileERKNSt7__cxx1112basic_stringIcSt11char_traitsIcESaIcEEE
FN:305,307,_ZNK5sqlcc11SqlExecutor12GetLastErrorB5cxx11Ev
FN:309,311,_ZN5sqlcc11SqlExecutor8SetErrorERKNSt7__cxx1112basic_stringIcSt11char_traitsIcESaIcEEE
FN:33,36,_ZN5sqlcc11SqlExecutorC2Ev
FN:38,40,_ZN5sqlcc11SqlExecutorD2Ev
FN:42,270,_ZN5sqlcc11SqlExecutor7ExecuteERKNSt7__cxx1112basic_stringIcSt11char_traitsIcESaIcEEE
FNDA:56,_ZN5sqlcc10TrimStringERNSt7__cxx1112basic_stringIcSt11char_traitsIcESaIcEEE
FNDA:2,_ZN5sqlcc11SqlExecutor13ExecuteSelectERKNSt7__cxx1112basic_stringIcSt11char_traitsIcESaIcEEE
FNDA:0,_ZN5sqlcc11SqlExecutor11ExecuteFileERKNSt7__cxx1112basic_stringIcSt11char_traitsIcESaIcEEE
FNDA:0,_ZNK5sqlcc11SqlExecutor12GetLastErrorB5cxx11Ev
FNDA:5,_ZN5sqlcc11SqlExecutor8SetErrorERKNSt7__cxx1112basic_stringIcSt11char_traitsIcESaIcEEE
FNDA:2,_ZN5sqlcc11SqlExecutorC2Ev
FNDA:2,_ZN5sqlcc11SqlExecutorD2Ev
FNDA:32,_ZN5sqlcc11SqlExecutor7ExecuteERKNSt7__cxx1112basic_stringIcSt11char_traitsIcESaIcEEE
FNF:8
FNH:6
DA:13,56
DA:15,56
DA:16,56
DA:17,56
DA:19,0
DA:20,0
DA:23,56
DA:24,56
DA:25,56
DA:27,0
DA:33,2
DA:35,2
DA:36,2
DA:38,2
DA:40,2
DA:42,32
DA:44,32
DA:45,32
DA:47,32
DA:48,0
DA:52,32
DA:53,2
DA:54,30
DA:55,0
DA:56,30
DA:57,0
DA:58,30
DA:59,0
DA:60,30
DA:62,0
DA:63,0
DA:64,0
DA:66,0
DA:67,0
DA:69,0
DA:70,0
DA:71,0
DA:73,0
DA:74,0
DA:75,0
DA:76,0
DA:78,0
DA:79,0
DA:80,0
DA:81,0
DA:82,0
DA:84,0
DA:87,0
DA:88,0
DA:89,0
DA:90,0
DA:91,0
DA:92,0
DA:93,0
DA:94,0
DA:97,0
DA:98,0
DA:100,0
DA:101,0
DA:103,30
DA:105,0
DA:106,0
DA:108,0
DA:109,0
DA:110,0
DA:111,0
DA:112,0
DA:113,0
DA:114,0
DA:116,0
DA:117,0
DA:118,0
DA:119,0
DA:120,0
DA:123,0
DA:125,0
DA:126,0
DA:128,0
DA:129,0
DA:130,0
DA:132,0
DA:134,30
DA:136,5
DA:137,5
DA:138,5
DA:140,5
DA:141,5
DA:142,5
DA:143,5
DA:145,5
DA:146,5
DA:147,5
DA:148,5
DA:150,5
DA:151,0
DA:152,5
DA:153,0
DA:156,5
DA:157,5
DA:159,15
DA:160,0
DA:162,5
DA:163,5
DA:168,0
DA:169,30
DA:171,0
DA:172,0
DA:173,0
DA:175,0
DA:176,0
DA:177,0
DA:178,0
DA:180,0
DA:181,0
DA:182,0
DA:183,0
DA:185,0
DA:186,0
DA:187,0
DA:188,0
DA:191,0
DA:192,0
DA:194,0
DA:195,0
DA:197,0
DA:198,0
DA:203,0
DA:204,25
DA:206,8
DA:207,4
DA:209,4
DA:210,4
DA:211,4
DA:212,0
DA:213,0
DA:216,4
DA:217,4
DA:219,4
DA:220,8
DA:221,2
DA:222,3
DA:223,2
DA:225,4
DA:226,17
DA:228,7
DA:229,8
DA:230,3
DA:231,2
DA:233,4
DA:234,10
DA:236,4
DA:237,4
DA:239,4
DA:240,4
DA:241,4
DA:243,4
DA:244,2
DA:245,3
DA:246,2
DA:247,2
DA:248,2
DA:249,1
DA:250,2
DA:252,4
DA:253,0
DA:254,6
DA:256,4
DA:257,2
DA:258,3
DA:259,1
DA:260,1
DA:261,1
DA:262,1
DA:263,1
DA:264,4
DA:265,2
DA:266,0
DA:269,4
DA:270,32
DA:272,2
DA:277,4
DA:280,0
DA:282,0
DA:283,0
DA:284,0
DA:285,0
DA:288,0
DA:289,0
DA:290,0
DA:292,0
DA:293,0
DA:297,0
DA:298,0
DA:299,0
DA:301,0
DA:302,0
DA:303,0
DA:305,0
DA:306,0
DA:309,5
DA:310,5
DA:311,5
LF:202
LH:96
end_of_record
TN:
SF:/home/liying/sqlcc/src/sql_executor/user_manager.cpp
FN:117,139,_ZN5sqlcc11UserManager8DropUserERKNSt7__cxx1112basic_stringIcSt11char_traitsIcESaIcEEE
FN:142,156,_ZN5sqlcc11UserManager17AlterUserPasswordERKNSt7__cxx1112basic_stringIcSt11char_traitsIcESaIcEEES8_
FN:159,182,_ZN5sqlcc11UserManager16AuthenticateUserERKNSt7__cxx1112basic_stringIcSt11char_traitsIcESaIcEEES8_
FN:185,208,_ZN5sqlcc11UserManager14GrantPrivilegeERKNSt7__cxx1112basic_stringIcSt11char_traitsIcESaIcEEES8_S8_S8_
FN:211,240,_ZN5sqlcc11UserManager15RevokePrivilegeERKNSt7__cxx1112basic_stringIcSt11char_traitsIcESaIcEEES8_S8_S8_
FN:226,231,_ZZN5sqlcc11UserManager15RevokePrivilegeERKNSt7__cxx1112basic_stringIcSt11char_traitsIcESaIcEEES8_S8_S8_ENKUlRKNS_10PermissionEE_clESB_
FN:24,27,_ZN5sqlcc11UserManagerC2Ev
FN:243,282,_ZN5sqlcc11UserManager15CheckPermissionERKNSt7__cxx1112basic_stringIcSt11char_traitsIcESaIcEEES8_S8_S8_
FN:285,293,_ZNK5sqlcc11UserManager9ListUsersEv
FN:29,29,_ZN5sqlcc11UserManagerD2Ev
FN:297,307,_ZNK5sqlcc11UserManager19ListUserPermissionsERKNSt7__cxx1112basic_stringIcSt11char_traitsIcESaIcEEE
FN:310,310,_ZNK5sqlcc11UserManager12GetLastErrorB5cxx11Ev
FN:313,319,_ZN5sqlcc11UserManager20RemoveUserPrivilegesERKNSt7__cxx1112basic_stringIcSt11char_traitsIcESaIcEEE
FN:316,316,_ZZN5sqlcc11UserManager20RemoveUserPrivilegesERKNSt7__cxx1112basic_stringIcSt11char_traitsIcESaIcEEEENKUlRKNS_10PermissionEE_clESB_
FN:32,46,_ZN5sqlcc11UserManager22CreateDefaultSuperuserEv
FN:49,57,_ZN5sqlcc11UserManager20GetCurrentTimeStringB5cxx11Ev
FN:60,63,_ZN5sqlcc11UserManager29GrantAllPrivilegesToSuperuserERKNSt7__cxx1112basic_stringIcSt11char_traitsIcESaIcEEE
FN:66,114,_ZN5sqlcc11UserManager10CreateUserERKNSt7__cxx1112basic_stringIcSt11char_traitsIcESaIcEEES8_S8_
FNDA:0,_ZN5sqlcc11UserManager8DropUserERKNSt7__cxx1112basic_stringIcSt11char_traitsIcESaIcEEE
FNDA:0,_ZN5sqlcc11UserManager17AlterUserPasswordERKNSt7__cxx1112basic_stringIcSt11char_traitsIcESaIcEEES8_
FNDA:0,_ZN5sqlcc11UserManager16AuthenticateUserERKNSt7__cxx1112basic_stringIcSt11char_traitsIcESaIcEEES8_
FNDA:7,_ZN5sqlcc11UserManager14GrantPrivilegeERKNSt7__cxx1112basic_stringIcSt11char_traitsIcESaIcEEES8_S8_S8_
FNDA:0,_ZN5sqlcc11UserManager15RevokePrivilegeERKNSt7__cxx1112basic_stringIcSt11char_traitsIcESaIcEEES8_S8_S8_
FNDA:0,_ZZN5sqlcc11UserManager15RevokePrivilegeERKNSt7__cxx1112basic_stringIcSt11char_traitsIcESaIcEEES8_S8_S8_ENKUlRKNS_10PermissionEE_clESB_
FNDA:2,_ZN5sqlcc11UserManagerC2Ev
FNDA:0,_ZN5sqlcc11UserManager15CheckPermissionERKNSt7__cxx1112basic_stringIcSt11char_traitsIcESaIcEEES8_S8_S8_
FNDA:0,_ZNK5sqlcc11UserManager9ListUsersEv
FNDA:2,_ZN5sqlcc11UserManagerD2Ev
FNDA:0,_ZNK5sqlcc11UserManager19ListUserPermissionsERKNSt7__cxx1112basic_stringIcSt11char_traitsIcESaIcEEE
FNDA:10,_ZNK5sqlcc11UserManager12GetLastErrorB5cxx11Ev
FNDA:0,_ZN5sqlcc11UserManager20RemoveUserPrivilegesERKNSt7__cxx1112basic_stringIcSt11char_traitsIcESaIcEEE
FNDA:0,_ZZN5sqlcc11UserManager20RemoveUserPrivilegesERKNSt7__cxx1112basic_stringIcSt11char_traitsIcESaIcEEEENKUlRKNS_10PermissionEE_clESB_
FNDA:2,_ZN5sqlcc11UserManager22CreateDefaultSuperuserEv
FNDA:2,_ZN5sqlcc11UserManager20GetCurrentTimeStringB5cxx11Ev
FNDA:2,_ZN5sqlcc11UserManager29GrantAllPrivilegesToSuperuserERKNSt7__cxx1112basic_stringIcSt11char_traitsIcESaIcEEE
FNDA:0,_ZN5sqlcc11UserManager10CreateUserERKNSt7__cxx1112basic_stringIcSt11char_traitsIcESaIcEEES8_S8_
FNF:18
FNH:7
DA:24,2
DA:26,2
DA:27,2
DA:29,2
DA:32,2
DA:34,2
DA:35,2
DA:37,2
DA:38,2
DA:39,2
DA:40,2
DA:42,2
DA:45,2
DA:46,2
DA:49,2
DA:50,2
DA:51,2
DA:52,2
DA:55,2
DA:56,4
DA:60,2
DA:62,6
DA:63,2
DA:66,0
DA:69,0
DA:72,0
DA:73,0
DA:74,0
DA:78,0
DA:79,0
DA:80,0
DA:84,0
DA:85,0
DA:87,0
DA:88,0
DA:89,0
DA:90,0
DA:92,0
DA:95,0
DA:97,0
DA:101,0
DA:102,0
DA:103,0
DA:104,0
DA:105,0
DA:109,0
DA:110,0
DA:113,0
DA:114,0
DA:117,0
DA:118,0
DA:121,0
DA:122,0
DA:123,0
DA:127,0
DA:128,0
DA:129,0
DA:133,0
DA:136,0
DA:138,0
DA:139,0
DA:142,0
DA:144,0
DA:147,0
DA:148,0
DA:149,0
DA:150,0
DA:154,0
DA:155,0
DA:156,0
DA:159,0
DA:161,0
DA:163,0
DA:164,0
DA:165,0
DA:166,0
DA:170,0
DA:171,0
DA:172,0
DA:176,0
DA:177,0
DA:178,0
DA:181,0
DA:182,0
DA:185,7
DA:189,7
DA:192,7
DA:193,5
DA:194,5
DA:198,2
DA:199,2
DA:200,2
DA:201,2
DA:202,2
DA:205,2
DA:207,2
DA:208,7
DA:211,0
DA:215,0
DA:218,0
DA:219,0
DA:220,0
DA:221,0
DA:225,0
DA:226,0
DA:227,0
DA:228,0
DA:229,0
DA:230,0
DA:233,0
DA:234,0
DA:235,0
DA:238,0
DA:239,0
DA:240,0
DA:243,0
DA:247,0
DA:250,0
DA:251,0
DA:252,0
DA:256,0
DA:257,0
DA:261,0
DA:263,0
DA:264,0
DA:267,0
DA:268,0
DA:271,0
DA:272,0
DA:275,0
DA:276,0
DA:277,0
DA:281,0
DA:282,0
DA:285,0
DA:286,0
DA:288,0
DA:289,0
DA:292,0
DA:293,0
DA:297,0
DA:298,0
DA:300,0
DA:301,0
DA:302,0
DA:306,0
DA:307,0
DA:310,10
DA:313,0
DA:314,0
DA:316,0
DA:318,0
DA:319,0
LF:153
LH:37
end_of_record
TN:
SF:/usr/include/c++/13/bits/alloc_traits.h
FNF:0
FNH:0
DA:482,19
DA:517,19
DA:538,82
DA:542,82
DA:562,48
DA:574,26
DA:588,11
DA:661,2
DA:675,2
DA:948,4
DA:949,4
LF:11
LH:11
end_of_record
TN:
SF:/usr/include/c++/13/bits/allocated_ptr.h
FN:53,55,_ZNSt15__allocated_ptrISaISt23_Sp_counted_ptr_inplaceIN5sqlcc11UserManagerESaIvELN9__gnu_cxx12_Lock_policyE2EEEEC2ERS7_PS6_
FN:71,75,_ZNSt15__allocated_ptrISaISt23_Sp_counted_ptr_inplaceIN5sqlcc11UserManagerESaIvELN9__gnu_cxx12_Lock_policyE2EEEED2Ev
FN:79,83,_ZNSt15__allocated_ptrISaISt23_Sp_counted_ptr_inplaceIN5sqlcc11UserManagerESaIvELN9__gnu_cxx12_Lock_policyE2EEEEaSEDn
FN:86,86,_ZNSt15__allocated_ptrISaISt23_Sp_counted_ptr_inplaceIN5sqlcc11UserManagerESaIvELN9__gnu_cxx12_Lock_policyE2EEEE3getEv
FN:96,99,_ZSt18__allocate_guardedISaISt23_Sp_counted_ptr_inplaceIN5sqlcc11UserManagerESaIvELN9__gnu_cxx12_Lock_policyE2EEEESt15__allocated_ptrIT_ERS9_
FNDA:4,_ZNSt15__allocated_ptrISaISt23_Sp_counted_ptr_inplaceIN5sqlcc11UserManagerESaIvELN9__gnu_cxx12_Lock_policyE2EEEEC2ERS7_PS6_
FNDA:4,_ZNSt15__allocated_ptrISaISt23_Sp_counted_ptr_inplaceIN5sqlcc11UserManagerESaIvELN9__gnu_cxx12_Lock_policyE2EEEED2Ev
FNDA:2,_ZNSt15__allocated_ptrISaISt23_Sp_counted_ptr_inplaceIN5sqlcc11UserManagerESaIvELN9__gnu_cxx12_Lock_policyE2EEEEaSEDn
FNDA:2,_ZNSt15__allocated_ptrISaISt23_Sp_counted_ptr_inplaceIN5sqlcc11UserManagerESaIvELN9__gnu_cxx12_Lock_policyE2EEEE3getEv
FNDA:2,_ZSt18__allocate_guardedISaISt23_Sp_counted_ptr_inplaceIN5sqlcc11UserManagerESaIvELN9__gnu_cxx12_Lock_policyE2EEEESt15__allocated_ptrIT_ERS9_
FNF:5
FNH:5
DA:53,4
DA:54,4
DA:55,4
DA:71,4
DA:73,4
DA:74,2
DA:75,4
DA:79,2
DA:81,2
DA:82,2
DA:86,2
DA:96,2
DA:98,2
LF:13
LH:13
end_of_record
TN:
SF:/usr/include/c++/13/bits/allocator.h
FNF:0
FNH:0
DA:163,47
DA:168,11
DA:178,8
DA:184,71
LF:4
LH:4
end_of_record
TN:
SF:/usr/include/c++/13/bits/basic_string.h
FN:3528,3541,_ZSt12__str_concatINSt7__cxx1112basic_stringIcSt11char_traitsIcESaIcEEEET_PKNS6_10value_typeENS6_9size_typeES9_SA_RKNS6_14allocator_typeE
FN:3571,3579,_ZStplIcSt11char_traitsIcESaIcEENSt7__cxx1112basic_stringIT_T0_T1_EEPKS5_RKS8_
FN:3607,3615,_ZStplIcSt11char_traitsIcESaIcEENSt7__cxx1112basic_stringIT_T0_T1_EERKS8_PKS5_
FN:3688,3690,_ZStplIcSt11char_traitsIcESaIcEENSt7__cxx1112basic_stringIT_T0_T1_EEOS8_PKS5_
FN:3710,3716,_ZSteqIcSt11char_traitsIcESaIcEEbRKNSt7__cxx1112basic_stringIT_T0_T1_EESA_
FN:3727,3732,_ZSteqIcSt11char_traitsIcESaIcEEbRKNSt7__cxx1112basic_stringIT_T0_T1_EEPKS5_
FN:3788,3791,_ZStneIcSt11char_traitsIcESaIcEEbRKNSt7__cxx1112basic_stringIT_T0_T1_EESA_
FN:3815,3817,_ZStneIcSt11char_traitsIcESaIcEEbRKNSt7__cxx1112basic_stringIT_T0_T1_EEPKS5_
FN:4407,4408,_ZNKSt15__str_hash_baseIcSaIcENSt7__cxx1112basic_stringIcSt11char_traitsIcES0_EEEclERKS5_
FN:641,650,_ZNSt7__cxx1112basic_stringIcSt11char_traitsIcESaIcEEC2IS3_EEPKcRKS3_
FN:760,770,_ZNSt7__cxx1112basic_stringIcSt11char_traitsIcESaIcEEC2ISt19istreambuf_iteratorIcS2_EvEET_S8_RKS3_
FNDA:11,_ZSt12__str_concatINSt7__cxx1112basic_stringIcSt11char_traitsIcESaIcEEEET_PKNS6_10value_typeENS6_9size_typeES9_SA_RKNS6_14allocator_typeE
FNDA:11,_ZStplIcSt11char_traitsIcESaIcEENSt7__cxx1112basic_stringIT_T0_T1_EEPKS5_RKS8_
FNDA:0,_ZStplIcSt11char_traitsIcESaIcEENSt7__cxx1112basic_stringIT_T0_T1_EERKS8_PKS5_
FNDA:1,_ZStplIcSt11char_traitsIcESaIcEENSt7__cxx1112basic_stringIT_T0_T1_EEOS8_PKS5_
FNDA:7,_ZSteqIcSt11char_traitsIcESaIcEEbRKNSt7__cxx1112basic_stringIT_T0_T1_EESA_
FNDA:324,_ZSteqIcSt11char_traitsIcESaIcEEbRKNSt7__cxx1112basic_stringIT_T0_T1_EEPKS5_
FNDA:0,_ZStneIcSt11char_traitsIcESaIcEEbRKNSt7__cxx1112basic_stringIT_T0_T1_EESA_
FNDA:0,_ZStneIcSt11char_traitsIcESaIcEEbRKNSt7__cxx1112basic_stringIT_T0_T1_EEPKS5_
FNDA:2,_ZNKSt15__str_hash_baseIcSaIcENSt7__cxx1112basic_stringIcSt11char_traitsIcES0_EEEclERKS5_
FNDA:61,_ZNSt7__cxx1112basic_stringIcSt11char_traitsIcESaIcEEC2IS3_EEPKcRKS3_
FNDA:2,_ZNSt7__cxx1112basic_stringIcSt11char_traitsIcESaIcEEC2ISt19istreambuf_iteratorIcS2_EvEET_S8_RKS3_
FNF:11
FNH:8
DA:355,423
DA:641,61
DA:642,61
DA:645,61
DA:646,0
DA:648,61
DA:649,61
DA:650,61
DA:760,2
DA:762,2
DA:765,2
DA:770,2
DA:3528,11
DA:3536,11
DA:3537,11
DA:3538,11
DA:3539,11
DA:3540,11
DA:3541,0
DA:3571,11
DA:3578,22
DA:3607,0
DA:3614,0
DA:3688,1
DA:3690,1
DA:3710,7
DA:3714,7
DA:3715,7
DA:3727,324
DA:3730,324
DA:3731,324
DA:3788,0
DA:3791,0
DA:3815,0
DA:3817,0
DA:4407,2
DA:4408,2
LF:37
LH:29
end_of_record
TN:
SF:/usr/include/c++/13/bits/basic_string.tcc
FN:170,215,_ZNSt7__cxx1112basic_stringIcSt11char_traitsIcESaIcEE12_M_constructISt19istreambuf_iteratorIcS2_EEEvT_S8_St18input_iterator_tag
FN:188,188,_ZZNSt7__cxx1112basic_stringIcSt11char_traitsIcESaIcEE12_M_constructISt19istreambuf_iteratorIcS2_EEEvT_S8_St18input_iterator_tagEN6_GuardC2EPS4_
FN:191,191,_ZZNSt7__cxx1112basic_stringIcSt11char_traitsIcESaIcEE12_M_constructISt19istreambuf_iteratorIcS2_EEEvT_S8_St18input_iterator_tagEN6_GuardD2Ev
FN:221,252,_ZNSt7__cxx1112basic_stringIcSt11char_traitsIcESaIcEE12_M_constructIPKcEEvT_S8_St20forward_iterator_tag
FN:221,252,_ZNSt7__cxx1112basic_stringIcSt11char_traitsIcESaIcEE12_M_constructIPcEEvT_S7_St20forward_iterator_tag
FN:239,239,_ZZNSt7__cxx1112basic_stringIcSt11char_traitsIcESaIcEE12_M_constructIPKcEEvT_S8_St20forward_iterator_tagEN6_GuardC2EPS4_
FN:239,239,_ZZNSt7__cxx1112basic_stringIcSt11char_traitsIcESaIcEE12_M_constructIPcEEvT_S7_St20forward_iterator_tagEN6_GuardC2EPS4_
FN:242,242,_ZZNSt7__cxx1112basic_stringIcSt11char_traitsIcESaIcEE12_M_constructIPKcEEvT_S8_St20forward_iterator_tagEN6_GuardD2Ev
FN:242,242,_ZZNSt7__cxx1112basic_stringIcSt11char_traitsIcESaIcEE12_M_constructIPcEEvT_S7_St20forward_iterator_tagEN6_GuardD2Ev
FNDA:2,_ZNSt7__cxx1112basic_stringIcSt11char_traitsIcESaIcEE12_M_constructISt19istreambuf_iteratorIcS2_EEEvT_S8_St18input_iterator_tag
FNDA:2,_ZZNSt7__cxx1112basic_stringIcSt11char_traitsIcESaIcEE12_M_constructISt19istreambuf_iteratorIcS2_EEEvT_S8_St18input_iterator_tagEN6_GuardC2EPS4_
FNDA:2,_ZZNSt7__cxx1112basic_stringIcSt11char_traitsIcESaIcEE12_M_constructISt19istreambuf_iteratorIcS2_EEEvT_S8_St18input_iterator_tagEN6_GuardD2Ev
FNDA:548,_ZNSt7__cxx1112basic_stringIcSt11char_traitsIcESaIcEE12_M_constructIPKcEEvT_S8_St20forward_iterator_tag
FNDA:0,_ZNSt7__cxx1112basic_stringIcSt11char_traitsIcESaIcEE12_M_constructIPcEEvT_S7_St20forward_iterator_tag
FNDA:548,_ZZNSt7__cxx1112basic_stringIcSt11char_traitsIcESaIcEE12_M_constructIPKcEEvT_S8_St20forward_iterator_tagEN6_GuardC2EPS4_
FNDA:0,_ZZNSt7__cxx1112basic_stringIcSt11char_traitsIcESaIcEE12_M_constructIPcEEvT_S7_St20forward_iterator_tagEN6_GuardC2EPS4_
FNDA:548,_ZZNSt7__cxx1112basic_stringIcSt11char_traitsIcESaIcEE12_M_constructIPKcEEvT_S8_St20forward_iterator_tagEN6_GuardD2Ev
FNDA:0,_ZZNSt7__cxx1112basic_stringIcSt11char_traitsIcESaIcEE12_M_constructIPcEEvT_S7_St20forward_iterator_tagEN6_GuardD2Ev
FNF:9
FNH:6
DA:170,2
DA:174,2
DA:175,2
DA:179,32
DA:181,30
DA:182,30
DA:188,2
DA:191,2
DA:194,2
DA:196,2937
DA:198,2935
DA:201,15
DA:202,15
DA:203,15
DA:204,15
DA:205,15
DA:206,15
DA:208,2935
DA:209,2935
DA:212,2
DA:214,2
DA:215,2
DA:221,548
DA:225,548
DA:227,548
DA:229,127
DA:230,127
DA:239,548
DA:242,548
DA:245,548
DA:247,548
DA:249,548
DA:251,548
DA:252,548
LF:34
LH:34
end_of_record
TN:
SF:/usr/include/c++/13/bits/char_traits.h
FN:136,137,_ZN9__gnu_cxx11char_traitsIcE2eqERKcS3_
FN:199,206,_ZN9__gnu_cxx11char_traitsIcE6lengthEPKc
FN:351,359,_ZNSt11char_traitsIcE6assignERcRKc
FN:366,371,_ZNSt11char_traitsIcE2ltERKcS2_
FN:374,390,_ZNSt11char_traitsIcE7compareEPKcS2_m
FN:393,400,_ZNSt11char_traitsIcE6lengthEPKc
FN:427,436,_ZNSt11char_traitsIcE4copyEPcPKcm
FN:451,452,_ZNSt11char_traitsIcE12to_char_typeERKi
FN:461,462,_ZNSt11char_traitsIcE11eq_int_typeERKiS2_
FN:466,467,_ZNSt11char_traitsIcE3eofEv
FNDA:0,_ZN9__gnu_cxx11char_traitsIcE2eqERKcS3_
FNDA:0,_ZN9__gnu_cxx11char_traitsIcE6lengthEPKc
FNDA:2935,_ZNSt11char_traitsIcE6assignERcRKc
FNDA:0,_ZNSt11char_traitsIcE2ltERKcS2_
FNDA:241,_ZNSt11char_traitsIcE7compareEPKcS2_m
FNDA:396,_ZNSt11char_traitsIcE6lengthEPKc
FNDA:0,_ZNSt11char_traitsIcE4copyEPcPKcm
FNDA:2965,_ZNSt11char_traitsIcE12to_char_typeERKi
FNDA:17806,_ZNSt11char_traitsIcE11eq_int_typeERKiS2_
FNDA:2969,_ZNSt11char_traitsIcE3eofEv
FNF:10
FNH:6
DA:136,0
DA:137,0
DA:199,0
DA:202,0
DA:203,0
DA:204,0
DA:205,0
DA:351,2935
DA:358,2935
DA:359,2935
DA:366,0
DA:369,0
DA:370,0
DA:374,241
DA:376,241
DA:377,0
DA:379,241
DA:381,0
DA:382,0
DA:383,0
DA:384,0
DA:385,0
DA:386,0
DA:389,241
DA:393,396
DA:396,396
DA:397,0
DA:399,396
DA:427,0
DA:429,0
DA:430,0
DA:435,0
DA:451,2965
DA:452,2965
DA:461,17806
DA:462,17806
DA:466,2969
DA:467,2969
LF:38
LH:16
end_of_record
TN:
SF:/usr/include/c++/13/bits/chrono.h
FN:1244,1248,_ZNSt6chrono3_V212system_clock9to_time_tERKNS_10time_pointIS1_NS_8durationIlSt5ratioILl1ELl1000000000EEEEEE
FN:208,213,_ZNSt6chrono20__duration_cast_implINS_8durationIlSt5ratioILl1ELl1EEEES2_ILl1ELl1000000000EElLb1ELb0EE6__castIlS5_EES4_RKNS1_IT_T0_EE
FN:273,291,_ZNSt6chrono13duration_castINS_8durationIlSt5ratioILl1ELl1EEEElS2_ILl1ELl1000000000EEEENSt9enable_ifIXsrNS_13__is_durationIT_EE5valueES8_E4typeERKNS1_IT0_T1_EE
FN:573,574,_ZNSt6chrono8durationIlSt5ratioILl1ELl1EEEC1IlvEERKT_
FN:589,590,_ZNKSt6chrono8durationIlSt5ratioILl1ELl1000000000EEE5countEv
FN:589,590,_ZNKSt6chrono8durationIlSt5ratioILl1ELl1EEE5countEv
FN:949,950,_ZNKSt6chrono10time_pointINS_3_V212system_clockENS_8durationIlSt5ratioILl1ELl1000000000EEEEE16time_since_epochEv
FNDA:2,_ZNSt6chrono3_V212system_clock9to_time_tERKNS_10time_pointIS1_NS_8durationIlSt5ratioILl1ELl1000000000EEEEEE
FNDA:2,_ZNSt6chrono20__duration_cast_implINS_8durationIlSt5ratioILl1ELl1EEEES2_ILl1ELl1000000000EElLb1ELb0EE6__castIlS5_EES4_RKNS1_IT_T0_EE
FNDA:2,_ZNSt6chrono13duration_castINS_8durationIlSt5ratioILl1ELl1EEEElS2_ILl1ELl1000000000EEEENSt9enable_ifIXsrNS_13__is_durationIT_EE5valueES8_E4typeERKNS1_IT0_T1_EE
FNDA:2,_ZNSt6chrono8durationIlSt5ratioILl1ELl1EEEC1IlvEERKT_
FNDA:2,_ZNKSt6chrono8durationIlSt5ratioILl1ELl1000000000EEE5countEv
FNDA:2,_ZNKSt6chrono8durationIlSt5ratioILl1ELl1EEE5countEv
FNDA:2,_ZNKSt6chrono10time_pointINS_3_V212system_clockENS_8durationIlSt5ratioILl1ELl1000000000EEEEE16time_since_epochEv
FNF:7
FNH:7
DA:208,2
DA:211,4
DA:212,2
DA:273,2
DA:287,2
DA:573,2
DA:574,2
DA:589,4
DA:590,4
DA:949,2
DA:950,2
DA:1244,2
DA:1247,2
LF:13
LH:13
end_of_record
TN:
SF:/usr/include/c++/13/bits/cpp_type_traits.h
FN:607,608,_ZSt12__miter_baseIN9__gnu_cxx17__normal_iteratorIPN5sqlcc10PermissionESt6vectorIS3_SaIS3_EEEEET_S9_
FNDA:0,_ZSt12__miter_baseIN9__gnu_cxx17__normal_iteratorIPN5sqlcc10PermissionESt6vectorIS3_SaIS3_EEEEET_S9_
FNF:1
FNH:0
DA:607,0
DA:608,0
LF:2
LH:0
end_of_record
TN:
SF:/usr/include/c++/13/bits/functional_hash.h
FN:204,206,_ZNSt10_Hash_impl4hashEPKvmm
FNDA:2,_ZNSt10_Hash_impl4hashEPKvmm
FNF:1
FNH:1
DA:204,2
DA:206,2
LF:2
LH:2
end_of_record
TN:
SF:/usr/include/c++/13/bits/hashtable.h
FN:1595,1610,_ZNSt10_HashtableINSt7__cxx1112basic_stringIcSt11char_traitsIcESaIcEEESt4pairIKS5_N5sqlcc4UserEESaISA_ENSt8__detail10_Select1stESt8equal_toIS5_ESt4hashIS5_ENSC_18_Mod_range_hashingENSC_20_Default_ranged_hashENSC_20_Prime_rehash_policyENSC_17_Hashtable_traitsILb1ELb0ELb1EEEED2Ev
FN:1664,1680,_ZNSt10_HashtableINSt7__cxx1112basic_stringIcSt11char_traitsIcESaIcEEESt4pairIKS5_N5sqlcc4UserEESaISA_ENSt8__detail10_Select1stESt8equal_toIS5_ESt4hashIS5_ENSC_18_Mod_range_hashingENSC_20_Default_ranged_hashENSC_20_Prime_rehash_policyENSC_17_Hashtable_traitsILb1ELb0ELb1EEEE4findERS7_
FN:1919,1939,_ZNSt10_HashtableINSt7__cxx1112basic_stringIcSt11char_traitsIcESaIcEEESt4pairIKS5_N5sqlcc4UserEESaISA_ENSt8__detail10_Select1stESt8equal_toIS5_ESt4hashIS5_ENSC_18_Mod_range_hashingENSC_20_Default_ranged_hashENSC_20_Prime_rehash_policyENSC_17_Hashtable_traitsILb1ELb0ELb1EEEE19_M_find_before_nodeERS7_
FN:1948,1970,_ZNKSt10_HashtableINSt7__cxx1112basic_stringIcSt11char_traitsIcESaIcEEESt4pairIKS5_N5sqlcc4UserEESaISA_ENSt8__detail10_Select1stESt8equal_toIS5_ESt4hashIS5_ENSC_18_Mod_range_hashingENSC_20_Default_ranged_hashENSC_20_Prime_rehash_policyENSC_17_Hashtable_traitsILb1ELb0ELb1EEEE19_M_find_before_nodeEmRS7_m
FN:2007,2033,_ZNSt10_HashtableINSt7__cxx1112basic_stringIcSt11char_traitsIcESaIcEEESt4pairIKS5_N5sqlcc4UserEESaISA_ENSt8__detail10_Select1stESt8equal_toIS5_ESt4hashIS5_ENSC_18_Mod_range_hashingENSC_20_Default_ranged_hashENSC_20_Prime_rehash_policyENSC_17_Hashtable_traitsILb1ELb0ELb1EEEE22_M_insert_bucket_beginEmPNSC_10_Hash_nodeISA_Lb1EEE
FN:2040,2057,_ZNSt10_HashtableINSt7__cxx1112basic_stringIcSt11char_traitsIcESaIcEEESt4pairIKS5_N5sqlcc4UserEESaISA_ENSt8__detail10_Select1stESt8equal_toIS5_ESt4hashIS5_ENSC_18_Mod_range_hashingENSC_20_Default_ranged_hashENSC_20_Prime_rehash_policyENSC_17_Hashtable_traitsILb1ELb0ELb1EEEE22_M_remove_bucket_beginEmPNSC_10_Hash_nodeISA_Lb1EEEm
FN:2166,2189,_ZNSt10_HashtableINSt7__cxx1112basic_stringIcSt11char_traitsIcESaIcEEESt4pairIKS5_N5sqlcc4UserEESaISA_ENSt8__detail10_Select1stESt8equal_toIS5_ESt4hashIS5_ENSC_18_Mod_range_hashingENSC_20_Default_ranged_hashENSC_20_Prime_rehash_policyENSC_17_Hashtable_traitsILb1ELb0ELb1EEEE21_M_insert_unique_nodeEmmPNSC_10_Hash_nodeISA_Lb1EEEm
FN:2336,2357,_ZNSt10_HashtableINSt7__cxx1112basic_stringIcSt11char_traitsIcESaIcEEESt4pairIKS5_N5sqlcc4UserEESaISA_ENSt8__detail10_Select1stESt8equal_toIS5_ESt4hashIS5_ENSC_18_Mod_range_hashingENSC_20_Default_ranged_hashENSC_20_Prime_rehash_policyENSC_17_Hashtable_traitsILb1ELb0ELb1EEEE8_M_eraseEmPNSC_15_Hash_node_baseEPNSC_10_Hash_nodeISA_Lb1EEE
FN:2364,2398,_ZNSt10_HashtableINSt7__cxx1112basic_stringIcSt11char_traitsIcESaIcEEESt4pairIKS5_N5sqlcc4UserEESaISA_ENSt8__detail10_Select1stESt8equal_toIS5_ESt4hashIS5_ENSC_18_Mod_range_hashingENSC_20_Default_ranged_hashENSC_20_Prime_rehash_policyENSC_17_Hashtable_traitsILb1ELb0ELb1EEEE8_M_eraseESt17integral_constantIbLb1EERS7_
FN:2520,2529,_ZNSt10_HashtableINSt7__cxx1112basic_stringIcSt11char_traitsIcESaIcEEESt4pairIKS5_N5sqlcc4UserEESaISA_ENSt8__detail10_Select1stESt8equal_toIS5_ESt4hashIS5_ENSC_18_Mod_range_hashingENSC_20_Default_ranged_hashENSC_20_Prime_rehash_policyENSC_17_Hashtable_traitsILb1ELb0ELb1EEEE5clearEv
FN:2559,2574,_ZNSt10_HashtableINSt7__cxx1112basic_stringIcSt11char_traitsIcESaIcEEESt4pairIKS5_N5sqlcc4UserEESaISA_ENSt8__detail10_Select1stESt8equal_toIS5_ESt4hashIS5_ENSC_18_Mod_range_hashingENSC_20_Default_ranged_hashENSC_20_Prime_rehash_policyENSC_17_Hashtable_traitsILb1ELb0ELb1EEEE9_M_rehashEmRKm
FN:2582,2616,_ZNSt10_HashtableINSt7__cxx1112basic_stringIcSt11char_traitsIcESaIcEEESt4pairIKS5_N5sqlcc4UserEESaISA_ENSt8__detail10_Select1stESt8equal_toIS5_ESt4hashIS5_ENSC_18_Mod_range_hashingENSC_20_Default_ranged_hashENSC_20_Prime_rehash_policyENSC_17_Hashtable_traitsILb1ELb0ELb1EEEE13_M_rehash_auxEmSt17integral_constantIbLb1EE
FN:305,308,_ZNSt10_HashtableINSt7__cxx1112basic_stringIcSt11char_traitsIcESaIcEEESt4pairIKS5_N5sqlcc4UserEESaISA_ENSt8__detail10_Select1stESt8equal_toIS5_ESt4hashIS5_ENSC_18_Mod_range_hashingENSC_20_Default_ranged_hashENSC_20_Prime_rehash_policyENSC_17_Hashtable_traitsILb1ELb0ELb1EEEE12_Scoped_nodeC2IJRKSt21piecewise_construct_tSt5tupleIJRS7_EEST_IJEEEEEPNSC_16_Hashtable_allocISaINSC_10_Hash_nodeISA_Lb1EEEEEEDpOT_
FN:311,311,_ZNSt10_HashtableINSt7__cxx1112basic_stringIcSt11char_traitsIcESaIcEEESt4pairIKS5_N5sqlcc4UserEESaISA_ENSt8__detail10_Select1stESt8equal_toIS5_ESt4hashIS5_ENSC_18_Mod_range_hashingENSC_20_Default_ranged_hashENSC_20_Prime_rehash_policyENSC_17_Hashtable_traitsILb1ELb0ELb1EEEE12_Scoped_nodeD2Ev
FN:416,417,_ZNKSt10_HashtableINSt7__cxx1112basic_stringIcSt11char_traitsIcESaIcEEESt4pairIKS5_N5sqlcc4UserEESaISA_ENSt8__detail10_Select1stESt8equal_toIS5_ESt4hashIS5_ENSC_18_Mod_range_hashingENSC_20_Default_ranged_hashENSC_20_Prime_rehash_policyENSC_17_Hashtable_traitsILb1ELb0ELb1EEEE21_M_uses_single_bucketEPPNSC_15_Hash_node_baseE
FN:424,428,_ZNSt10_HashtableINSt7__cxx1112basic_stringIcSt11char_traitsIcESaIcEEESt4pairIKS5_N5sqlcc4UserEESaISA_ENSt8__detail10_Select1stESt8equal_toIS5_ESt4hashIS5_ENSC_18_Mod_range_hashingENSC_20_Default_ranged_hashENSC_20_Prime_rehash_policyENSC_17_Hashtable_traitsILb1ELb0ELb1EEEE22__small_size_thresholdEv
FN:434,443,_ZNSt10_HashtableINSt7__cxx1112basic_stringIcSt11char_traitsIcESaIcEEESt4pairIKS5_N5sqlcc4UserEESaISA_ENSt8__detail10_Select1stESt8equal_toIS5_ESt4hashIS5_ENSC_18_Mod_range_hashingENSC_20_Default_ranged_hashENSC_20_Prime_rehash_policyENSC_17_Hashtable_traitsILb1ELb0ELb1EEEE19_M_allocate_bucketsEm
FN:446,452,_ZNSt10_HashtableINSt7__cxx1112basic_stringIcSt11char_traitsIcESaIcEEESt4pairIKS5_N5sqlcc4UserEESaISA_ENSt8__detail10_Select1stESt8equal_toIS5_ESt4hashIS5_ENSC_18_Mod_range_hashingENSC_20_Default_ranged_hashENSC_20_Prime_rehash_policyENSC_17_Hashtable_traitsILb1ELb0ELb1EEEE21_M_deallocate_bucketsEPPNSC_15_Hash_node_baseEm
FN:455,456,_ZNSt10_HashtableINSt7__cxx1112basic_stringIcSt11char_traitsIcESaIcEEESt4pairIKS5_N5sqlcc4UserEESaISA_ENSt8__detail10_Select1stESt8equal_toIS5_ESt4hashIS5_ENSC_18_Mod_range_hashingENSC_20_Default_ranged_hashENSC_20_Prime_rehash_policyENSC_17_Hashtable_traitsILb1ELb0ELb1EEEE21_M_deallocate_bucketsEv
FN:464,465,_ZNKSt10_HashtableINSt7__cxx1112basic_stringIcSt11char_traitsIcESaIcEEESt4pairIKS5_N5sqlcc4UserEESaISA_ENSt8__detail10_Select1stESt8equal_toIS5_ESt4hashIS5_ENSC_18_Mod_range_hashingENSC_20_Default_ranged_hashENSC_20_Prime_rehash_policyENSC_17_Hashtable_traitsILb1ELb0ELb1EEEE8_M_beginEv
FN:530,530,_ZNSt10_HashtableINSt7__cxx1112basic_stringIcSt11char_traitsIcESaIcEEESt4pairIKS5_N5sqlcc4UserEESaISA_ENSt8__detail10_Select1stESt8equal_toIS5_ESt4hashIS5_ENSC_18_Mod_range_hashingENSC_20_Default_ranged_hashENSC_20_Prime_rehash_policyENSC_17_Hashtable_traitsILb1ELb0ELb1EEEEC2Ev
FN:623,624,_ZNSt10_HashtableINSt7__cxx1112basic_stringIcSt11char_traitsIcESaIcEEESt4pairIKS5_N5sqlcc4UserEESaISA_ENSt8__detail10_Select1stESt8equal_toIS5_ESt4hashIS5_ENSC_18_Mod_range_hashingENSC_20_Default_ranged_hashENSC_20_Prime_rehash_policyENSC_17_Hashtable_traitsILb1ELb0ELb1EEEE5beginEv
FN:627,628,_ZNKSt10_HashtableINSt7__cxx1112basic_stringIcSt11char_traitsIcESaIcEEESt4pairIKS5_N5sqlcc4UserEESaISA_ENSt8__detail10_Select1stESt8equal_toIS5_ESt4hashIS5_ENSC_18_Mod_range_hashingENSC_20_Default_ranged_hashENSC_20_Prime_rehash_policyENSC_17_Hashtable_traitsILb1ELb0ELb1EEEE5beginEv
FN:631,632,_ZNSt10_HashtableINSt7__cxx1112basic_stringIcSt11char_traitsIcESaIcEEESt4pairIKS5_N5sqlcc4UserEESaISA_ENSt8__detail10_Select1stESt8equal_toIS5_ESt4hashIS5_ENSC_18_Mod_range_hashingENSC_20_Default_ranged_hashENSC_20_Prime_rehash_policyENSC_17_Hashtable_traitsILb1ELb0ELb1EEEE3endEv
FN:635,636,_ZNKSt10_HashtableINSt7__cxx1112basic_stringIcSt11char_traitsIcESaIcEEESt4pairIKS5_N5sqlcc4UserEESaISA_ENSt8__detail10_Select1stESt8equal_toIS5_ESt4hashIS5_ENSC_18_Mod_range_hashingENSC_20_Default_ranged_hashENSC_20_Prime_rehash_policyENSC_17_Hashtable_traitsILb1ELb0ELb1EEEE3endEv
FN:647,648,_ZNKSt10_HashtableINSt7__cxx1112basic_stringIcSt11char_traitsIcESaIcEEESt4pairIKS5_N5sqlcc4UserEESaISA_ENSt8__detail10_Select1stESt8equal_toIS5_ESt4hashIS5_ENSC_18_Mod_range_hashingENSC_20_Default_ranged_hashENSC_20_Prime_rehash_policyENSC_17_Hashtable_traitsILb1ELb0ELb1EEEE4sizeEv
FN:792,793,_ZNKSt10_HashtableINSt7__cxx1112basic_stringIcSt11char_traitsIcESaIcEEESt4pairIKS5_N5sqlcc4UserEESaISA_ENSt8__detail10_Select1stESt8equal_toIS5_ESt4hashIS5_ENSC_18_Mod_range_hashingENSC_20_Default_ranged_hashENSC_20_Prime_rehash_policyENSC_17_Hashtable_traitsILb1ELb0ELb1EEEE15_M_bucket_indexERKNSC_16_Hash_node_valueISA_Lb1EEE
FN:796,797,_ZNKSt10_HashtableINSt7__cxx1112basic_stringIcSt11char_traitsIcESaIcEEESt4pairIKS5_N5sqlcc4UserEESaISA_ENSt8__detail10_Select1stESt8equal_toIS5_ESt4hashIS5_ENSC_18_Mod_range_hashingENSC_20_Default_ranged_hashENSC_20_Prime_rehash_policyENSC_17_Hashtable_traitsILb1ELb0ELb1EEEE15_M_bucket_indexEm
FN:812,819,_ZNKSt10_HashtableINSt7__cxx1112basic_stringIcSt11char_traitsIcESaIcEEESt4pairIKS5_N5sqlcc4UserEESaISA_ENSt8__detail10_Select1stESt8equal_toIS5_ESt4hashIS5_ENSC_18_Mod_range_hashingENSC_20_Default_ranged_hashENSC_20_Prime_rehash_policyENSC_17_Hashtable_traitsILb1ELb0ELb1EEEE12_M_find_nodeEmRS7_m
FN:983,984,_ZNSt10_HashtableINSt7__cxx1112basic_stringIcSt11char_traitsIcESaIcEEESt4pairIKS5_N5sqlcc4UserEESaISA_ENSt8__detail10_Select1stESt8equal_toIS5_ESt4hashIS5_ENSC_18_Mod_range_hashingENSC_20_Default_ranged_hashENSC_20_Prime_rehash_policyENSC_17_Hashtable_traitsILb1ELb0ELb1EEEE5eraseERS7_
FNDA:2,_ZNSt10_HashtableINSt7__cxx1112basic_stringIcSt11char_traitsIcESaIcEEESt4pairIKS5_N5sqlcc4UserEESaISA_ENSt8__detail10_Select1stESt8equal_toIS5_ESt4hashIS5_ENSC_18_Mod_range_hashingENSC_20_Default_ranged_hashENSC_20_Prime_rehash_policyENSC_17_Hashtable_traitsILb1ELb0ELb1EEEED2Ev
FNDA:7,_ZNSt10_HashtableINSt7__cxx1112basic_stringIcSt11char_traitsIcESaIcEEESt4pairIKS5_N5sqlcc4UserEESaISA_ENSt8__detail10_Select1stESt8equal_toIS5_ESt4hashIS5_ENSC_18_Mod_range_hashingENSC_20_Default_ranged_hashENSC_20_Prime_rehash_policyENSC_17_Hashtable_traitsILb1ELb0ELb1EEEE4findERS7_
FNDA:0,_ZNSt10_HashtableINSt7__cxx1112basic_stringIcSt11char_traitsIcESaIcEEESt4pairIKS5_N5sqlcc4UserEESaISA_ENSt8__detail10_Select1stESt8equal_toIS5_ESt4hashIS5_ENSC_18_Mod_range_hashingENSC_20_Default_ranged_hashENSC_20_Prime_rehash_policyENSC_17_Hashtable_traitsILb1ELb0ELb1EEEE19_M_find_before_nodeERS7_
FNDA:2,_ZNKSt10_HashtableINSt7__cxx1112basic_stringIcSt11char_traitsIcESaIcEEESt4pairIKS5_N5sqlcc4UserEESaISA_ENSt8__detail10_Select1stESt8equal_toIS5_ESt4hashIS5_ENSC_18_Mod_range_hashingENSC_20_Default_ranged_hashENSC_20_Prime_rehash_policyENSC_17_Hashtable_traitsILb1ELb0ELb1EEEE19_M_find_before_nodeEmRS7_m
FNDA:2,_ZNSt10_HashtableINSt7__cxx1112basic_stringIcSt11char_traitsIcESaIcEEESt4pairIKS5_N5sqlcc4UserEESaISA_ENSt8__detail10_Select1stESt8equal_toIS5_ESt4hashIS5_ENSC_18_Mod_range_hashingENSC_20_Default_ranged_hashENSC_20_Prime_rehash_policyENSC_17_Hashtable_traitsILb1ELb0ELb1EEEE22_M_insert_bucket_beginEmPNSC_10_Hash_nodeISA_Lb1EEE
FNDA:0,_ZNSt10_HashtableINSt7__cxx1112basic_stringIcSt11char_traitsIcESaIcEEESt4pairIKS5_N5sqlcc4UserEESaISA_ENSt8__detail10_Select1stESt8equal_toIS5_ESt4hashIS5_ENSC_18_Mod_range_hashingENSC_20_Default_ranged_hashENSC_20_Prime_rehash_policyENSC_17_Hashtable_traitsILb1ELb0ELb1EEEE22_M_remove_bucket_beginEmPNSC_10_Hash_nodeISA_Lb1EEEm
FNDA:2,_ZNSt10_HashtableINSt7__cxx1112basic_stringIcSt11char_traitsIcESaIcEEESt4pairIKS5_N5sqlcc4UserEESaISA_ENSt8__detail10_Select1stESt8equal_toIS5_ESt4hashIS5_ENSC_18_Mod_range_hashingENSC_20_Default_ranged_hashENSC_20_Prime_rehash_policyENSC_17_Hashtable_traitsILb1ELb0ELb1EEEE21_M_insert_unique_nodeEmmPNSC_10_Hash_nodeISA_Lb1EEEm
FNDA:0,_ZNSt10_HashtableINSt7__cxx1112basic_stringIcSt11char_traitsIcESaIcEEESt4pairIKS5_N5sqlcc4UserEESaISA_ENSt8__detail10_Select1stESt8equal_toIS5_ESt4hashIS5_ENSC_18_Mod_range_hashingENSC_20_Default_ranged_hashENSC_20_Prime_rehash_policyENSC_17_Hashtable_traitsILb1ELb0ELb1EEEE8_M_eraseEmPNSC_15_Hash_node_baseEPNSC_10_Hash_nodeISA_Lb1EEE
FNDA:0,_ZNSt10_HashtableINSt7__cxx1112basic_stringIcSt11char_traitsIcESaIcEEESt4pairIKS5_N5sqlcc4UserEESaISA_ENSt8__detail10_Select1stESt8equal_toIS5_ESt4hashIS5_ENSC_18_Mod_range_hashingENSC_20_Default_ranged_hashENSC_20_Prime_rehash_policyENSC_17_Hashtable_traitsILb1ELb0ELb1EEEE8_M_eraseESt17integral_constantIbLb1EERS7_
FNDA:2,_ZNSt10_HashtableINSt7__cxx1112basic_stringIcSt11char_traitsIcESaIcEEESt4pairIKS5_N5sqlcc4UserEESaISA_ENSt8__detail10_Select1stESt8equal_toIS5_ESt4hashIS5_ENSC_18_Mod_range_hashingENSC_20_Default_ranged_hashENSC_20_Prime_rehash_policyENSC_17_Hashtable_traitsILb1ELb0ELb1EEEE5clearEv
FNDA:2,_ZNSt10_HashtableINSt7__cxx1112basic_stringIcSt11char_traitsIcESaIcEEESt4pairIKS5_N5sqlcc4UserEESaISA_ENSt8__detail10_Select1stESt8equal_toIS5_ESt4hashIS5_ENSC_18_Mod_range_hashingENSC_20_Default_ranged_hashENSC_20_Prime_rehash_policyENSC_17_Hashtable_traitsILb1ELb0ELb1EEEE9_M_rehashEmRKm
FNDA:2,_ZNSt10_HashtableINSt7__cxx1112basic_stringIcSt11char_traitsIcESaIcEEESt4pairIKS5_N5sqlcc4UserEESaISA_ENSt8__detail10_Select1stESt8equal_toIS5_ESt4hashIS5_ENSC_18_Mod_range_hashingENSC_20_Default_ranged_hashENSC_20_Prime_rehash_policyENSC_17_Hashtable_traitsILb1ELb0ELb1EEEE13_M_rehash_auxEmSt17integral_constantIbLb1EE
FNDA:2,_ZNSt10_HashtableINSt7__cxx1112basic_stringIcSt11char_traitsIcESaIcEEESt4pairIKS5_N5sqlcc4UserEESaISA_ENSt8__detail10_Select1stESt8equal_toIS5_ESt4hashIS5_ENSC_18_Mod_range_hashingENSC_20_Default_ranged_hashENSC_20_Prime_rehash_policyENSC_17_Hashtable_traitsILb1ELb0ELb1EEEE12_Scoped_nodeC2IJRKSt21piecewise_construct_tSt5tupleIJRS7_EEST_IJEEEEEPNSC_16_Hashtable_allocISaINSC_10_Hash_nodeISA_Lb1EEEEEEDpOT_
FNDA:2,_ZNSt10_HashtableINSt7__cxx1112basic_stringIcSt11char_traitsIcESaIcEEESt4pairIKS5_N5sqlcc4UserEESaISA_ENSt8__detail10_Select1stESt8equal_toIS5_ESt4hashIS5_ENSC_18_Mod_range_hashingENSC_20_Default_ranged_hashENSC_20_Prime_rehash_policyENSC_17_Hashtable_traitsILb1ELb0ELb1EEEE12_Scoped_nodeD2Ev
FNDA:4,_ZNKSt10_HashtableINSt7__cxx1112basic_stringIcSt11char_traitsIcESaIcEEESt4pairIKS5_N5sqlcc4UserEESaISA_ENSt8__detail10_Select1stESt8equal_toIS5_ESt4hashIS5_ENSC_18_Mod_range_hashingENSC_20_Default_ranged_hashENSC_20_Prime_rehash_policyENSC_17_Hashtable_traitsILb1ELb0ELb1EEEE21_M_uses_single_bucketEPPNSC_15_Hash_node_baseE
FNDA:7,_ZNSt10_HashtableINSt7__cxx1112basic_stringIcSt11char_traitsIcESaIcEEESt4pairIKS5_N5sqlcc4UserEESaISA_ENSt8__detail10_Select1stESt8equal_toIS5_ESt4hashIS5_ENSC_18_Mod_range_hashingENSC_20_Default_ranged_hashENSC_20_Prime_rehash_policyENSC_17_Hashtable_traitsILb1ELb0ELb1EEEE22__small_size_thresholdEv
FNDA:2,_ZNSt10_HashtableINSt7__cxx1112basic_stringIcSt11char_traitsIcESaIcEEESt4pairIKS5_N5sqlcc4UserEESaISA_ENSt8__detail10_Select1stESt8equal_toIS5_ESt4hashIS5_ENSC_18_Mod_range_hashingENSC_20_Default_ranged_hashENSC_20_Prime_rehash_policyENSC_17_Hashtable_traitsILb1ELb0ELb1EEEE19_M_allocate_bucketsEm
FNDA:4,_ZNSt10_HashtableINSt7__cxx1112basic_stringIcSt11char_traitsIcESaIcEEESt4pairIKS5_N5sqlcc4UserEESaISA_ENSt8__detail10_Select1stESt8equal_toIS5_ESt4hashIS5_ENSC_18_Mod_range_hashingENSC_20_Default_ranged_hashENSC_20_Prime_rehash_policyENSC_17_Hashtable_traitsILb1ELb0ELb1EEEE21_M_deallocate_bucketsEPPNSC_15_Hash_node_baseEm
FNDA:4,_ZNSt10_HashtableINSt7__cxx1112basic_stringIcSt11char_traitsIcESaIcEEESt4pairIKS5_N5sqlcc4UserEESaISA_ENSt8__detail10_Select1stESt8equal_toIS5_ESt4hashIS5_ENSC_18_Mod_range_hashingENSC_20_Default_ranged_hashENSC_20_Prime_rehash_policyENSC_17_Hashtable_traitsILb1ELb0ELb1EEEE21_M_deallocate_bucketsEv
FNDA:11,_ZNKSt10_HashtableINSt7__cxx1112basic_stringIcSt11char_traitsIcESaIcEEESt4pairIKS5_N5sqlcc4UserEESaISA_ENSt8__detail10_Select1stESt8equal_toIS5_ESt4hashIS5_ENSC_18_Mod_range_hashingENSC_20_Default_ranged_hashENSC_20_Prime_rehash_policyENSC_17_Hashtable_traitsILb1ELb0ELb1EEEE8_M_beginEv
FNDA:2,_ZNSt10_HashtableINSt7__cxx1112basic_stringIcSt11char_traitsIcESaIcEEESt4pairIKS5_N5sqlcc4UserEESaISA_ENSt8__detail10_Select1stESt8equal_toIS5_ESt4hashIS5_ENSC_18_Mod_range_hashingENSC_20_Default_ranged_hashENSC_20_Prime_rehash_policyENSC_17_Hashtable_traitsILb1ELb0ELb1EEEEC2Ev
FNDA:7,_ZNSt10_HashtableINSt7__cxx1112basic_stringIcSt11char_traitsIcESaIcEEESt4pairIKS5_N5sqlcc4UserEESaISA_ENSt8__detail10_Select1stESt8equal_toIS5_ESt4hashIS5_ENSC_18_Mod_range_hashingENSC_20_Default_ranged_hashENSC_20_Prime_rehash_policyENSC_17_Hashtable_traitsILb1ELb0ELb1EEEE5beginEv
FNDA:0,_ZNKSt10_HashtableINSt7__cxx1112basic_stringIcSt11char_traitsIcESaIcEEESt4pairIKS5_N5sqlcc4UserEESaISA_ENSt8__detail10_Select1stESt8equal_toIS5_ESt4hashIS5_ENSC_18_Mod_range_hashingENSC_20_Default_ranged_hashENSC_20_Prime_rehash_policyENSC_17_Hashtable_traitsILb1ELb0ELb1EEEE5beginEv
FNDA:24,_ZNSt10_HashtableINSt7__cxx1112basic_stringIcSt11char_traitsIcESaIcEEESt4pairIKS5_N5sqlcc4UserEESaISA_ENSt8__detail10_Select1stESt8equal_toIS5_ESt4hashIS5_ENSC_18_Mod_range_hashingENSC_20_Default_ranged_hashENSC_20_Prime_rehash_policyENSC_17_Hashtable_traitsILb1ELb0ELb1EEEE3endEv
FNDA:0,_ZNKSt10_HashtableINSt7__cxx1112basic_stringIcSt11char_traitsIcESaIcEEESt4pairIKS5_N5sqlcc4UserEESaISA_ENSt8__detail10_Select1stESt8equal_toIS5_ESt4hashIS5_ENSC_18_Mod_range_hashingENSC_20_Default_ranged_hashENSC_20_Prime_rehash_policyENSC_17_Hashtable_traitsILb1ELb0ELb1EEEE3endEv
FNDA:7,_ZNKSt10_HashtableINSt7__cxx1112basic_stringIcSt11char_traitsIcESaIcEEESt4pairIKS5_N5sqlcc4UserEESaISA_ENSt8__detail10_Select1stESt8equal_toIS5_ESt4hashIS5_ENSC_18_Mod_range_hashingENSC_20_Default_ranged_hashENSC_20_Prime_rehash_policyENSC_17_Hashtable_traitsILb1ELb0ELb1EEEE4sizeEv
FNDA:0,_ZNKSt10_HashtableINSt7__cxx1112basic_stringIcSt11char_traitsIcESaIcEEESt4pairIKS5_N5sqlcc4UserEESaISA_ENSt8__detail10_Select1stESt8equal_toIS5_ESt4hashIS5_ENSC_18_Mod_range_hashingENSC_20_Default_ranged_hashENSC_20_Prime_rehash_policyENSC_17_Hashtable_traitsILb1ELb0ELb1EEEE15_M_bucket_indexERKNSC_16_Hash_node_valueISA_Lb1EEE
FNDA:4,_ZNKSt10_HashtableINSt7__cxx1112basic_stringIcSt11char_traitsIcESaIcEEESt4pairIKS5_N5sqlcc4UserEESaISA_ENSt8__detail10_Select1stESt8equal_toIS5_ESt4hashIS5_ENSC_18_Mod_range_hashingENSC_20_Default_ranged_hashENSC_20_Prime_rehash_policyENSC_17_Hashtable_traitsILb1ELb0ELb1EEEE15_M_bucket_indexEm
FNDA:2,_ZNKSt10_HashtableINSt7__cxx1112basic_stringIcSt11char_traitsIcESaIcEEESt4pairIKS5_N5sqlcc4UserEESaISA_ENSt8__detail10_Select1stESt8equal_toIS5_ESt4hashIS5_ENSC_18_Mod_range_hashingENSC_20_Default_ranged_hashENSC_20_Prime_rehash_policyENSC_17_Hashtable_traitsILb1ELb0ELb1EEEE12_M_find_nodeEmRS7_m
FNDA:0,_ZNSt10_HashtableINSt7__cxx1112basic_stringIcSt11char_traitsIcESaIcEEESt4pairIKS5_N5sqlcc4UserEESaISA_ENSt8__detail10_Select1stESt8equal_toIS5_ESt4hashIS5_ENSC_18_Mod_range_hashingENSC_20_Default_ranged_hashENSC_20_Prime_rehash_policyENSC_17_Hashtable_traitsILb1ELb0ELb1EEEE5eraseERS7_
FNF:30
FNH:22
DA:305,2
DA:306,2
DA:307,2
DA:308,2
DA:311,2
DA:416,4
DA:417,4
DA:424,7
DA:427,7
DA:434,2
DA:436,2
DA:438,0
DA:439,0
DA:442,2
DA:446,4
DA:448,4
DA:449,2
DA:451,2
DA:455,4
DA:456,4
DA:464,11
DA:465,11
DA:530,2
DA:623,7
DA:624,7
DA:627,0
DA:628,0
DA:631,24
DA:632,24
DA:635,0
DA:636,0
DA:647,7
DA:648,7
DA:792,0
DA:793,0
DA:796,4
DA:797,4
DA:812,2
DA:815,2
DA:816,2
DA:817,0
DA:818,2
DA:983,0
DA:984,0
DA:1595,2
DA:1608,2
DA:1609,2
DA:1610,2
DA:1664,7
DA:1669,7
DA:1671,12
DA:1672,7
DA:1673,2
DA:1674,5
DA:1677,0
DA:1678,0
DA:1679,0
DA:1919,0
DA:1924,0
DA:1925,0
DA:1926,0
DA:1928,0
DA:1929,0
DA:1930,0
DA:1932,0
DA:1933,0
DA:1935,0
DA:1938,0
DA:1948,2
DA:1954,2
DA:1955,2
DA:1956,2
DA:1958,0
DA:1959,0
DA:1961,0
DA:1962,0
DA:1964,0
DA:1965,0
DA:1966,0
DA:1969,0
DA:2007,2
DA:2011,2
DA:2015,0
DA:2016,0
DA:2023,2
DA:2024,2
DA:2026,2
DA:2029,0
DA:2031,2
DA:2033,2
DA:2040,0
DA:2045,0
DA:2049,0
DA:2050,0
DA:2053,0
DA:2054,0
DA:2055,0
DA:2057,0
DA:2166,2
DA:2172,2
DA:2174,2
DA:2177,2
DA:2179,2
DA:2180,2
DA:2183,2
DA:2186,2
DA:2187,2
DA:2188,2
DA:2336,0
DA:2341,0
DA:2342,0
DA:2343,0
DA:2344,0
DA:2346,0
DA:2347,0
DA:2348,0
DA:2351,0
DA:2352,0
DA:2353,0
DA:2354,0
DA:2356,0
DA:2364,0
DA:2372,0
DA:2374,0
DA:2375,0
DA:2376,0
DA:2379,0
DA:2380,0
DA:2384,0
DA:2385,0
DA:2388,0
DA:2389,0
DA:2390,0
DA:2393,0
DA:2396,0
DA:2397,0
DA:2520,2
DA:2524,2
DA:2525,2
DA:2526,2
DA:2527,2
DA:2528,2
DA:2529,2
DA:2559,2
DA:2565,2
DA:2567,0
DA:2571,0
DA:2572,0
DA:2574,2
DA:2582,2
DA:2586,2
DA:2587,2
DA:2588,2
DA:2589,2
DA:2590,2
DA:2592,0
DA:2594,0
DA:2595,0
DA:2597,0
DA:2598,0
DA:2599,0
DA:2600,0
DA:2601,0
DA:2602,0
DA:2606,0
DA:2607,0
DA:2610,0
DA:2613,2
DA:2614,2
DA:2615,2
DA:2616,2
LF:171
LH:84
end_of_record
TN:
SF:/usr/include/c++/13/bits/hashtable_policy.h
FN:112,113,_ZNKSt8__detail10_Select1stclIRKSt4pairIKNSt7__cxx1112basic_stringIcSt11char_traitsIcESaIcEEEN5sqlcc4UserEEEEONS0_10__1st_typeIT_E4typeEOSG_
FN:1218,1218,_ZNSt8__detail21_Hashtable_ebo_helperILi0ESaINS_10_Hash_nodeISt4pairIKNSt7__cxx1112basic_stringIcSt11char_traitsIcESaIcEEEN5sqlcc4UserEELb1EEEELb1EEC2Ev
FN:1218,1218,_ZNSt8__detail21_Hashtable_ebo_helperILi0ESt8equal_toINSt7__cxx1112basic_stringIcSt11char_traitsIcESaIcEEEELb1EEC2Ev
FN:1218,1218,_ZNSt8__detail21_Hashtable_ebo_helperILi1ESt4hashINSt7__cxx1112basic_stringIcSt11char_traitsIcESaIcEEEELb1EEC2Ev
FN:1225,1225,_ZNKSt8__detail21_Hashtable_ebo_helperILi0ESt8equal_toINSt7__cxx1112basic_stringIcSt11char_traitsIcESaIcEEEELb1EE7_M_cgetEv
FN:1225,1225,_ZNKSt8__detail21_Hashtable_ebo_helperILi1ESt4hashINSt7__cxx1112basic_stringIcSt11char_traitsIcESaIcEEEELb1EE7_M_cgetEv
FN:1226,1226,_ZNSt8__detail21_Hashtable_ebo_helperILi0ESaINS_10_Hash_nodeISt4pairIKNSt7__cxx1112basic_stringIcSt11char_traitsIcESaIcEEEN5sqlcc4UserEELb1EEEELb1EE6_M_getEv
FN:1301,1301,_ZNSt8__detail15_Hash_code_baseINSt7__cxx1112basic_stringIcSt11char_traitsIcESaIcEEESt4pairIKS6_N5sqlcc4UserEENS_10_Select1stESt4hashIS6_ENS_18_Mod_range_hashingENS_20_Default_ranged_hashELb1EEC2Ev
FN:1306,1311,_ZNKSt8__detail15_Hash_code_baseINSt7__cxx1112basic_stringIcSt11char_traitsIcESaIcEEESt4pairIKS6_N5sqlcc4UserEENS_10_Select1stESt4hashIS6_ENS_18_Mod_range_hashingENS_20_Default_ranged_hashELb1EE12_M_hash_codeERS8_
FN:1331,1332,_ZNKSt8__detail15_Hash_code_baseINSt7__cxx1112basic_stringIcSt11char_traitsIcESaIcEEESt4pairIKS6_N5sqlcc4UserEENS_10_Select1stESt4hashIS6_ENS_18_Mod_range_hashingENS_20_Default_ranged_hashELb1EE15_M_bucket_indexEmm
FN:1346,1350,_ZNKSt8__detail15_Hash_code_baseINSt7__cxx1112basic_stringIcSt11char_traitsIcESaIcEEESt4pairIKS6_N5sqlcc4UserEENS_10_Select1stESt4hashIS6_ENS_18_Mod_range_hashingENS_20_Default_ranged_hashELb1EE15_M_bucket_indexERKNS_16_Hash_node_valueISB_Lb1EEEm
FN:1362,1363,_ZNKSt8__detail15_Hash_code_baseINSt7__cxx1112basic_stringIcSt11char_traitsIcESaIcEEESt4pairIKS6_N5sqlcc4UserEENS_10_Select1stESt4hashIS6_ENS_18_Mod_range_hashingENS_20_Default_ranged_hashELb1EE13_M_store_codeERNS_21_Hash_node_code_cacheILb1EEEm
FN:1375,1375,_ZNKSt8__detail15_Hash_code_baseINSt7__cxx1112basic_stringIcSt11char_traitsIcESaIcEEESt4pairIKS6_N5sqlcc4UserEENS_10_Select1stESt4hashIS6_ENS_18_Mod_range_hashingENS_20_Default_ranged_hashELb1EE7_M_hashEv
FN:1692,1693,_ZNSt8__detail15_Hashtable_baseINSt7__cxx1112basic_stringIcSt11char_traitsIcESaIcEEESt4pairIKS6_N5sqlcc4UserEENS_10_Select1stESt8equal_toIS6_ESt4hashIS6_ENS_18_Mod_range_hashingENS_20_Default_ranged_hashENS_17_Hashtable_traitsILb1ELb0ELb1EEEE9_S_equalsEmRKNS_21_Hash_node_code_cacheILb1EEE
FN:1701,1701,_ZNSt8__detail15_Hashtable_baseINSt7__cxx1112basic_stringIcSt11char_traitsIcESaIcEEESt4pairIKS6_N5sqlcc4UserEENS_10_Select1stESt8equal_toIS6_ESt4hashIS6_ENS_18_Mod_range_hashingENS_20_Default_ranged_hashENS_17_Hashtable_traitsILb1ELb0ELb1EEEEC2Ev
FN:1708,1716,_ZNKSt8__detail15_Hashtable_baseINSt7__cxx1112basic_stringIcSt11char_traitsIcESaIcEEESt4pairIKS6_N5sqlcc4UserEENS_10_Select1stESt8equal_toIS6_ESt4hashIS6_ENS_18_Mod_range_hashingENS_20_Default_ranged_hashENS_17_Hashtable_traitsILb1ELb0ELb1EEEE13_M_key_equalsERS8_RKNS_16_Hash_node_valueISB_Lb1EEE
FN:1732,1734,_ZNKSt8__detail15_Hashtable_baseINSt7__cxx1112basic_stringIcSt11char_traitsIcESaIcEEESt4pairIKS6_N5sqlcc4UserEENS_10_Select1stESt8equal_toIS6_ESt4hashIS6_ENS_18_Mod_range_hashingENS_20_Default_ranged_hashENS_17_Hashtable_traitsILb1ELb0ELb1EEEE9_M_equalsERS8_mRKNS_16_Hash_node_valueISB_Lb1EEE
FN:1760,1760,_ZNKSt8__detail15_Hashtable_baseINSt7__cxx1112basic_stringIcSt11char_traitsIcESaIcEEESt4pairIKS6_N5sqlcc4UserEENS_10_Select1stESt8equal_toIS6_ESt4hashIS6_ENS_18_Mod_range_hashingENS_20_Default_ranged_hashENS_17_Hashtable_traitsILb1ELb0ELb1EEEE5_M_eqEv
FN:1940,1940,_ZNSt8__detail16_Hashtable_allocISaINS_10_Hash_nodeISt4pairIKNSt7__cxx1112basic_stringIcSt11char_traitsIcESaIcEEEN5sqlcc4UserEELb1EEEEEC2Ev
FN:1950,1951,_ZNSt8__detail16_Hashtable_allocISaINS_10_Hash_nodeISt4pairIKNSt7__cxx1112basic_stringIcSt11char_traitsIcESaIcEEEN5sqlcc4UserEELb1EEEEE17_M_node_allocatorEv
FN:1987,2005,_ZNSt8__detail16_Hashtable_allocISaINS_10_Hash_nodeISt4pairIKNSt7__cxx1112basic_stringIcSt11char_traitsIcESaIcEEEN5sqlcc4UserEELb1EEEEE16_M_allocate_nodeIJRKSt21piecewise_construct_tSt5tupleIJRS9_EESK_IJEEEEEPSD_DpOT_
FN:2009,2013,_ZNSt8__detail16_Hashtable_allocISaINS_10_Hash_nodeISt4pairIKNSt7__cxx1112basic_stringIcSt11char_traitsIcESaIcEEEN5sqlcc4UserEELb1EEEEE18_M_deallocate_nodeEPSD_
FN:2017,2023,_ZNSt8__detail16_Hashtable_allocISaINS_10_Hash_nodeISt4pairIKNSt7__cxx1112basic_stringIcSt11char_traitsIcESaIcEEEN5sqlcc4UserEELb1EEEEE22_M_deallocate_node_ptrEPSD_
FN:2027,2035,_ZNSt8__detail16_Hashtable_allocISaINS_10_Hash_nodeISt4pairIKNSt7__cxx1112basic_stringIcSt11char_traitsIcESaIcEEEN5sqlcc4UserEELb1EEEEE19_M_deallocate_nodesEPSD_
FN:2039,2048,_ZNSt8__detail16_Hashtable_allocISaINS_10_Hash_nodeISt4pairIKNSt7__cxx1112basic_stringIcSt11char_traitsIcESaIcEEEN5sqlcc4UserEELb1EEEEE19_M_allocate_bucketsEm
FN:2052,2060,_ZNSt8__detail16_Hashtable_allocISaINS_10_Hash_nodeISt4pairIKNSt7__cxx1112basic_stringIcSt11char_traitsIcESaIcEEEN5sqlcc4UserEELb1EEEEE21_M_deallocate_bucketsEPPNS_15_Hash_node_baseEm
FN:297,298,_ZNSt8__detail22_Hashtable_hash_traitsISt4hashINSt7__cxx1112basic_stringIcSt11char_traitsIcESaIcEEEEE22__small_size_thresholdEv
FN:313,313,_ZNSt8__detail15_Hash_node_baseC2Ev
FN:380,381,_ZNKSt8__detail10_Hash_nodeISt4pairIKNSt7__cxx1112basic_stringIcSt11char_traitsIcESaIcEEEN5sqlcc4UserEELb1EE7_M_nextEv
FN:393,394,_ZNSt8__detail19_Node_iterator_baseISt4pairIKNSt7__cxx1112basic_stringIcSt11char_traitsIcESaIcEEEN5sqlcc4UserEELb1EEC2EPNS_10_Hash_nodeISB_Lb1EEE
FN:397,398,_ZNSt8__detail19_Node_iterator_baseISt4pairIKNSt7__cxx1112basic_stringIcSt11char_traitsIcESaIcEEEN5sqlcc4UserEELb1EE7_M_incrEv
FN:401,403,_ZNSt8__detaileqERKNS_19_Node_iterator_baseISt4pairIKNSt7__cxx1112basic_stringIcSt11char_traitsIcESaIcEEEN5sqlcc4UserEELb1EEESE_
FN:407,409,_ZNSt8__detailneERKNS_19_Node_iterator_baseISt4pairIKNSt7__cxx1112basic_stringIcSt11char_traitsIcESaIcEEEN5sqlcc4UserEELb1EEESE_
FN:436,437,_ZNSt8__detail14_Node_iteratorISt4pairIKNSt7__cxx1112basic_stringIcSt11char_traitsIcESaIcEEEN5sqlcc4UserEELb0ELb1EEC2EPNS_10_Hash_nodeISB_Lb1EEE
FN:444,445,_ZNKSt8__detail14_Node_iteratorISt4pairIKNSt7__cxx1112basic_stringIcSt11char_traitsIcESaIcEEEN5sqlcc4UserEELb0ELb1EEptEv
FN:448,452,_ZNSt8__detail14_Node_iteratorISt4pairIKNSt7__cxx1112basic_stringIcSt11char_traitsIcESaIcEEEN5sqlcc4UserEELb0ELb1EEppEv
FN:483,484,_ZNSt8__detail20_Node_const_iteratorISt4pairIKNSt7__cxx1112basic_stringIcSt11char_traitsIcESaIcEEEN5sqlcc4UserEELb0ELb1EEC2EPNS_10_Hash_nodeISB_Lb1EEE
FN:491,492,_ZNKSt8__detail20_Node_const_iteratorISt4pairIKNSt7__cxx1112basic_stringIcSt11char_traitsIcESaIcEEEN5sqlcc4UserEELb0ELb1EEdeEv
FN:499,503,_ZNSt8__detail20_Node_const_iteratorISt4pairIKNSt7__cxx1112basic_stringIcSt11char_traitsIcESaIcEEEN5sqlcc4UserEELb0ELb1EEppEv
FN:526,528,_ZNKSt8__detail18_Mod_range_hashingclEmm
FN:544,545,_ZNSt8__detail20_Prime_rehash_policyC2Ef
FN:571,572,_ZNKSt8__detail20_Prime_rehash_policy8_M_stateEv
FN:579,580,_ZNSt8__detail20_Prime_rehash_policy8_M_resetEm
FN:807,828,_ZNSt8__detail9_Map_baseINSt7__cxx1112basic_stringIcSt11char_traitsIcESaIcEEESt4pairIKS6_N5sqlcc4UserEESaISB_ENS_10_Select1stESt8equal_toIS6_ESt4hashIS6_ENS_18_Mod_range_hashingENS_20_Default_ranged_hashENS_20_Prime_rehash_policyENS_17_Hashtable_traitsILb1ELb0ELb1EEELb1EEixERS8_
FNDA:7,_ZNKSt8__detail10_Select1stclIRKSt4pairIKNSt7__cxx1112basic_stringIcSt11char_traitsIcESaIcEEEN5sqlcc4UserEEEEONS0_10__1st_typeIT_E4typeEOSG_
FNDA:2,_ZNSt8__detail21_Hashtable_ebo_helperILi0ESaINS_10_Hash_nodeISt4pairIKNSt7__cxx1112basic_stringIcSt11char_traitsIcESaIcEEEN5sqlcc4UserEELb1EEEELb1EEC2Ev
FNDA:2,_ZNSt8__detail21_Hashtable_ebo_helperILi0ESt8equal_toINSt7__cxx1112basic_stringIcSt11char_traitsIcESaIcEEEELb1EEC2Ev
FNDA:2,_ZNSt8__detail21_Hashtable_ebo_helperILi1ESt4hashINSt7__cxx1112basic_stringIcSt11char_traitsIcESaIcEEEELb1EEC2Ev
FNDA:7,_ZNKSt8__detail21_Hashtable_ebo_helperILi0ESt8equal_toINSt7__cxx1112basic_stringIcSt11char_traitsIcESaIcEEEELb1EE7_M_cgetEv
FNDA:2,_ZNKSt8__detail21_Hashtable_ebo_helperILi1ESt4hashINSt7__cxx1112basic_stringIcSt11char_traitsIcESaIcEEEELb1EE7_M_cgetEv
FNDA:12,_ZNSt8__detail21_Hashtable_ebo_helperILi0ESaINS_10_Hash_nodeISt4pairIKNSt7__cxx1112basic_stringIcSt11char_traitsIcESaIcEEEN5sqlcc4UserEELb1EEEELb1EE6_M_getEv
FNDA:2,_ZNSt8__detail15_Hash_code_baseINSt7__cxx1112basic_stringIcSt11char_traitsIcESaIcEEESt4pairIKS6_N5sqlcc4UserEENS_10_Select1stESt4hashIS6_ENS_18_Mod_range_hashingENS_20_Default_ranged_hashELb1EEC2Ev
FNDA:2,_ZNKSt8__detail15_Hash_code_baseINSt7__cxx1112basic_stringIcSt11char_traitsIcESaIcEEESt4pairIKS6_N5sqlcc4UserEENS_10_Select1stESt4hashIS6_ENS_18_Mod_range_hashingENS_20_Default_ranged_hashELb1EE12_M_hash_codeERS8_
FNDA:4,_ZNKSt8__detail15_Hash_code_baseINSt7__cxx1112basic_stringIcSt11char_traitsIcESaIcEEESt4pairIKS6_N5sqlcc4UserEENS_10_Select1stESt4hashIS6_ENS_18_Mod_range_hashingENS_20_Default_ranged_hashELb1EE15_M_bucket_indexEmm
FNDA:0,_ZNKSt8__detail15_Hash_code_baseINSt7__cxx1112basic_stringIcSt11char_traitsIcESaIcEEESt4pairIKS6_N5sqlcc4UserEENS_10_Select1stESt4hashIS6_ENS_18_Mod_range_hashingENS_20_Default_ranged_hashELb1EE15_M_bucket_indexERKNS_16_Hash_node_valueISB_Lb1EEEm
FNDA:2,_ZNKSt8__detail15_Hash_code_baseINSt7__cxx1112basic_stringIcSt11char_traitsIcESaIcEEESt4pairIKS6_N5sqlcc4UserEENS_10_Select1stESt4hashIS6_ENS_18_Mod_range_hashingENS_20_Default_ranged_hashELb1EE13_M_store_codeERNS_21_Hash_node_code_cacheILb1EEEm
FNDA:2,_ZNKSt8__detail15_Hash_code_baseINSt7__cxx1112basic_stringIcSt11char_traitsIcESaIcEEESt4pairIKS6_N5sqlcc4UserEENS_10_Select1stESt4hashIS6_ENS_18_Mod_range_hashingENS_20_Default_ranged_hashELb1EE7_M_hashEv
FNDA:0,_ZNSt8__detail15_Hashtable_baseINSt7__cxx1112basic_stringIcSt11char_traitsIcESaIcEEESt4pairIKS6_N5sqlcc4UserEENS_10_Select1stESt8equal_toIS6_ESt4hashIS6_ENS_18_Mod_range_hashingENS_20_Default_ranged_hashENS_17_Hashtable_traitsILb1ELb0ELb1EEEE9_S_equalsEmRKNS_21_Hash_node_code_cacheILb1EEE
FNDA:2,_ZNSt8__detail15_Hashtable_baseINSt7__cxx1112basic_stringIcSt11char_traitsIcESaIcEEESt4pairIKS6_N5sqlcc4UserEENS_10_Select1stESt8equal_toIS6_ESt4hashIS6_ENS_18_Mod_range_hashingENS_20_Default_ranged_hashENS_17_Hashtable_traitsILb1ELb0ELb1EEEEC2Ev
FNDA:7,_ZNKSt8__detail15_Hashtable_baseINSt7__cxx1112basic_stringIcSt11char_traitsIcESaIcEEESt4pairIKS6_N5sqlcc4UserEENS_10_Select1stESt8equal_toIS6_ESt4hashIS6_ENS_18_Mod_range_hashingENS_20_Default_ranged_hashENS_17_Hashtable_traitsILb1ELb0ELb1EEEE13_M_key_equalsERS8_RKNS_16_Hash_node_valueISB_Lb1EEE
FNDA:0,_ZNKSt8__detail15_Hashtable_baseINSt7__cxx1112basic_stringIcSt11char_traitsIcESaIcEEESt4pairIKS6_N5sqlcc4UserEENS_10_Select1stESt8equal_toIS6_ESt4hashIS6_ENS_18_Mod_range_hashingENS_20_Default_ranged_hashENS_17_Hashtable_traitsILb1ELb0ELb1EEEE9_M_equalsERS8_mRKNS_16_Hash_node_valueISB_Lb1EEE
FNDA:7,_ZNKSt8__detail15_Hashtable_baseINSt7__cxx1112basic_stringIcSt11char_traitsIcESaIcEEESt4pairIKS6_N5sqlcc4UserEENS_10_Select1stESt8equal_toIS6_ESt4hashIS6_ENS_18_Mod_range_hashingENS_20_Default_ranged_hashENS_17_Hashtable_traitsILb1ELb0ELb1EEEE5_M_eqEv
FNDA:2,_ZNSt8__detail16_Hashtable_allocISaINS_10_Hash_nodeISt4pairIKNSt7__cxx1112basic_stringIcSt11char_traitsIcESaIcEEEN5sqlcc4UserEELb1EEEEEC2Ev
FNDA:12,_ZNSt8__detail16_Hashtable_allocISaINS_10_Hash_nodeISt4pairIKNSt7__cxx1112basic_stringIcSt11char_traitsIcESaIcEEEN5sqlcc4UserEELb1EEEEE17_M_node_allocatorEv
FNDA:2,_ZNSt8__detail16_Hashtable_allocISaINS_10_Hash_nodeISt4pairIKNSt7__cxx1112basic_stringIcSt11char_traitsIcESaIcEEEN5sqlcc4UserEELb1EEEEE16_M_allocate_nodeIJRKSt21piecewise_construct_tSt5tupleIJRS9_EESK_IJEEEEEPSD_DpOT_
FNDA:2,_ZNSt8__detail16_Hashtable_allocISaINS_10_Hash_nodeISt4pairIKNSt7__cxx1112basic_stringIcSt11char_traitsIcESaIcEEEN5sqlcc4UserEELb1EEEEE18_M_deallocate_nodeEPSD_
FNDA:2,_ZNSt8__detail16_Hashtable_allocISaINS_10_Hash_nodeISt4pairIKNSt7__cxx1112basic_stringIcSt11char_traitsIcESaIcEEEN5sqlcc4UserEELb1EEEEE22_M_deallocate_node_ptrEPSD_
FNDA:2,_ZNSt8__detail16_Hashtable_allocISaINS_10_Hash_nodeISt4pairIKNSt7__cxx1112basic_stringIcSt11char_traitsIcESaIcEEEN5sqlcc4UserEELb1EEEEE19_M_deallocate_nodesEPSD_
FNDA:2,_ZNSt8__detail16_Hashtable_allocISaINS_10_Hash_nodeISt4pairIKNSt7__cxx1112basic_stringIcSt11char_traitsIcESaIcEEEN5sqlcc4UserEELb1EEEEE19_M_allocate_bucketsEm
FNDA:2,_ZNSt8__detail16_Hashtable_allocISaINS_10_Hash_nodeISt4pairIKNSt7__cxx1112basic_stringIcSt11char_traitsIcESaIcEEEN5sqlcc4UserEELb1EEEEE21_M_deallocate_bucketsEPPNS_15_Hash_node_baseEm
FNDA:7,_ZNSt8__detail22_Hashtable_hash_traitsISt4hashINSt7__cxx1112basic_stringIcSt11char_traitsIcESaIcEEEEE22__small_size_thresholdEv
FNDA:4,_ZNSt8__detail15_Hash_node_baseC2Ev
FNDA:7,_ZNKSt8__detail10_Hash_nodeISt4pairIKNSt7__cxx1112basic_stringIcSt11char_traitsIcESaIcEEEN5sqlcc4UserEELb1EE7_M_nextEv
FNDA:33,_ZNSt8__detail19_Node_iterator_baseISt4pairIKNSt7__cxx1112basic_stringIcSt11char_traitsIcESaIcEEEN5sqlcc4UserEELb1EEC2EPNS_10_Hash_nodeISB_Lb1EEE
FNDA:5,_ZNSt8__detail19_Node_iterator_baseISt4pairIKNSt7__cxx1112basic_stringIcSt11char_traitsIcESaIcEEEN5sqlcc4UserEELb1EE7_M_incrEv
FNDA:7,_ZNSt8__detaileqERKNS_19_Node_iterator_baseISt4pairIKNSt7__cxx1112basic_stringIcSt11char_traitsIcESaIcEEEN5sqlcc4UserEELb1EEESE_
FNDA:12,_ZNSt8__detailneERKNS_19_Node_iterator_baseISt4pairIKNSt7__cxx1112basic_stringIcSt11char_traitsIcESaIcEEEN5sqlcc4UserEELb1EEESE_
FNDA:33,_ZNSt8__detail14_Node_iteratorISt4pairIKNSt7__cxx1112basic_stringIcSt11char_traitsIcESaIcEEEN5sqlcc4UserEELb0ELb1EEC2EPNS_10_Hash_nodeISB_Lb1EEE
FNDA:2,_ZNKSt8__detail14_Node_iteratorISt4pairIKNSt7__cxx1112basic_stringIcSt11char_traitsIcESaIcEEEN5sqlcc4UserEELb0ELb1EEptEv
FNDA:5,_ZNSt8__detail14_Node_iteratorISt4pairIKNSt7__cxx1112basic_stringIcSt11char_traitsIcESaIcEEEN5sqlcc4UserEELb0ELb1EEppEv
FNDA:0,_ZNSt8__detail20_Node_const_iteratorISt4pairIKNSt7__cxx1112basic_stringIcSt11char_traitsIcESaIcEEEN5sqlcc4UserEELb0ELb1EEC2EPNS_10_Hash_nodeISB_Lb1EEE
FNDA:0,_ZNKSt8__detail20_Node_const_iteratorISt4pairIKNSt7__cxx1112basic_stringIcSt11char_traitsIcESaIcEEEN5sqlcc4UserEELb0ELb1EEdeEv
FNDA:0,_ZNSt8__detail20_Node_const_iteratorISt4pairIKNSt7__cxx1112basic_stringIcSt11char_traitsIcESaIcEEEN5sqlcc4UserEELb0ELb1EEppEv
FNDA:4,_ZNKSt8__detail18_Mod_range_hashingclEmm
FNDA:2,_ZNSt8__detail20_Prime_rehash_policyC2Ef
FNDA:2,_ZNKSt8__detail20_Prime_rehash_policy8_M_stateEv
FNDA:0,_ZNSt8__detail20_Prime_rehash_policy8_M_resetEm
FNDA:2,_ZNSt8__detail9_Map_baseINSt7__cxx1112basic_stringIcSt11char_traitsIcESaIcEEESt4pairIKS6_N5sqlcc4UserEESaISB_ENS_10_Select1stESt8equal_toIS6_ESt4hashIS6_ENS_18_Mod_range_hashingENS_20_Default_ranged_hashENS_20_Prime_rehash_policyENS_17_Hashtable_traitsILb1ELb0ELb1EEELb1EEixERS8_
FNF:44
FNH:37
DA:112,7
DA:113,7
DA:297,7
DA:298,7
DA:313,4
DA:333,6
DA:338,7
DA:343,0
DA:348,7
DA:380,7
DA:381,7
DA:393,33
DA:394,33
DA:397,5
DA:398,5
DA:401,7
DA:403,7
DA:407,12
DA:409,12
DA:436,33
DA:437,33
DA:444,2
DA:445,4
DA:448,5
DA:450,5
DA:451,5
DA:483,0
DA:484,0
DA:491,0
DA:492,0
DA:499,0
DA:501,0
DA:502,0
DA:526,4
DA:528,4
DA:544,2
DA:545,2
DA:571,2
DA:572,2
DA:579,0
DA:580,0
DA:807,2
DA:812,2
DA:813,2
DA:814,2
DA:815,2
DA:816,0
DA:818,2
DA:821,2
DA:822,0
DA:825,2
DA:826,2
DA:827,2
DA:828,2
DA:1218,6
DA:1225,9
DA:1226,12
DA:1301,2
DA:1306,2
DA:1310,2
DA:1331,4
DA:1332,4
DA:1346,0
DA:1350,0
DA:1362,2
DA:1363,2
DA:1375,2
DA:1692,0
DA:1693,0
DA:1701,2
DA:1708,7
DA:1715,14
DA:1732,0
DA:1734,0
DA:1760,7
DA:1940,2
DA:1950,12
DA:1951,12
DA:1987,2
DA:1990,2
DA:1991,2
DA:1994,2
DA:1995,4
DA:1998,2
DA:2000,0
DA:2002,0
DA:2003,0
DA:2009,2
DA:2011,4
DA:2012,2
DA:2013,2
DA:2017,2
DA:2020,2
DA:2021,2
DA:2022,2
DA:2023,2
DA:2027,2
DA:2029,4
DA:2031,2
DA:2032,2
DA:2033,2
DA:2035,2
DA:2039,2
DA:2042,2
DA:2044,2
DA:2045,2
DA:2046,2
DA:2047,4
DA:2052,2
DA:2057,2
DA:2058,2
DA:2060,2
LF:112
LH:91
end_of_record
TN:
SF:/usr/include/c++/13/bits/move.h
FN:138,139,_ZSt9addressofINSt8__detail10_Hash_nodeISt4pairIKNSt7__cxx1112basic_stringIcSt11char_traitsIcESaIcEEEN5sqlcc4UserEELb1EEEEPT_RSE_
FN:138,139,_ZSt9addressofIPNSt8__detail15_Hash_node_baseEEPT_RS3_
FN:189,200,_ZSt4swapIPN5sqlcc11UserManagerEENSt9enable_ifIXsrSt6__and_IJSt6__not_ISt15__is_tuple_likeIT_EESt21is_move_constructibleIS7_ESt18is_move_assignableIS7_EEE5valueEvE4typeERS7_SH_
FN:51,52,_ZSt11__addressofIN5sqlcc10PermissionEEPT_RS2_
FN:51,52,_ZSt11__addressofIN5sqlcc4UserEEPT_RS2_
FN:51,52,_ZSt11__addressofINSt7__cxx1112basic_stringIcSt11char_traitsIcESaIcEEEEPT_RS6_
FN:51,52,_ZSt11__addressofINSt8__detail10_Hash_nodeISt4pairIKNSt7__cxx1112basic_stringIcSt11char_traitsIcESaIcEEEN5sqlcc4UserEELb1EEEEPT_RSE_
FN:51,52,_ZSt11__addressofIPNSt8__detail15_Hash_node_baseEEPT_RS3_
FN:51,52,_ZSt11__addressofISaISt23_Sp_counted_ptr_inplaceIN5sqlcc11UserManagerESaIvELN9__gnu_cxx12_Lock_policyE2EEEEPT_RS8_
FN:70,71,_ZSt7forwardIN5sqlcc10PermissionEEOT_RNSt16remove_referenceIS2_E4typeE
FN:70,71,_ZSt7forwardIN5sqlcc4UserEEOT_RNSt16remove_referenceIS2_E4typeE
FN:70,71,_ZSt7forwardINSt7__cxx1112basic_stringIcSt11char_traitsIcESaIcEEEEOT_RNSt16remove_referenceIS6_E4typeE
FN:70,71,_ZSt7forwardIRKN5sqlcc10PermissionEEOT_RNSt16remove_referenceIS4_E4typeE
FN:70,71,_ZSt7forwardIRKN5sqlcc4UserEEOT_RNSt16remove_referenceIS4_E4typeE
FN:70,71,_ZSt7forwardIRKNSt7__cxx1112basic_stringIcSt11char_traitsIcESaIcEEEEOT_RNSt16remove_referenceIS8_E4typeE
FN:70,71,_ZSt7forwardIRKSt21piecewise_construct_tEOT_RNSt16remove_referenceIS3_E4typeE
FN:70,71,_ZSt7forwardIRKSt4pairIKNSt7__cxx1112basic_stringIcSt11char_traitsIcESaIcEEEN5sqlcc4UserEEEOT_RNSt16remove_referenceISD_E4typeE
FN:70,71,_ZSt7forwardISt5tupleIJEEEOT_RNSt16remove_referenceIS2_E4typeE
FN:70,71,_ZSt7forwardISt5tupleIJRKNSt7__cxx1112basic_stringIcSt11char_traitsIcESaIcEEEEEEOT_RNSt16remove_referenceISA_E4typeE
FN:97,98,_ZSt4moveIRN5sqlcc10PermissionEEONSt16remove_referenceIT_E4typeEOS4_
FN:97,98,_ZSt4moveIRN5sqlcc4UserEEONSt16remove_referenceIT_E4typeEOS4_
FN:97,98,_ZSt4moveIRNSt7__cxx1112basic_stringIcSt11char_traitsIcESaIcEEEEONSt16remove_referenceIT_E4typeEOS8_
FN:97,98,_ZSt4moveIRPN5sqlcc11UserManagerEEONSt16remove_referenceIT_E4typeEOS5_
FN:97,98,_ZSt4moveIRSaIcEEONSt16remove_referenceIT_E4typeEOS3_
FN:97,98,_ZSt4moveIRSt10shared_ptrIN5sqlcc11UserManagerEEEONSt16remove_referenceIT_E4typeEOS6_
FN:97,98,_ZSt4moveIRSt12__shared_ptrIN5sqlcc11UserManagerELN9__gnu_cxx12_Lock_policyE2EEEONSt16remove_referenceIT_E4typeEOS8_
FN:97,98,_ZSt4moveIRZN5sqlcc11UserManager15RevokePrivilegeERKNSt7__cxx1112basic_stringIcSt11char_traitsIcESaIcEEES9_S9_S9_EUlRKNS0_10PermissionEE_EONSt16remove_referenceIT_E4typeEOSG_
FN:97,98,_ZSt4moveIRZN5sqlcc11UserManager20RemoveUserPrivilegesERKNSt7__cxx1112basic_stringIcSt11char_traitsIcESaIcEEEEUlRKNS0_10PermissionEE_EONSt16remove_referenceIT_E4typeEOSG_
FNDA:2,_ZSt9addressofINSt8__detail10_Hash_nodeISt4pairIKNSt7__cxx1112basic_stringIcSt11char_traitsIcESaIcEEEN5sqlcc4UserEELb1EEEEPT_RSE_
FNDA:2,_ZSt9addressofIPNSt8__detail15_Hash_node_baseEEPT_RS3_
FNDA:2,_ZSt4swapIPN5sqlcc11UserManagerEENSt9enable_ifIXsrSt6__and_IJSt6__not_ISt15__is_tuple_likeIT_EESt21is_move_constructibleIS7_ESt18is_move_assignableIS7_EEE5valueEvE4typeERS7_SH_
FNDA:2,_ZSt11__addressofIN5sqlcc10PermissionEEPT_RS2_
FNDA:0,_ZSt11__addressofIN5sqlcc4UserEEPT_RS2_
FNDA:170,_ZSt11__addressofINSt7__cxx1112basic_stringIcSt11char_traitsIcESaIcEEEEPT_RS6_
FNDA:2,_ZSt11__addressofINSt8__detail10_Hash_nodeISt4pairIKNSt7__cxx1112basic_stringIcSt11char_traitsIcESaIcEEEN5sqlcc4UserEELb1EEEEPT_RSE_
FNDA:2,_ZSt11__addressofIPNSt8__detail15_Hash_node_baseEEPT_RS3_
FNDA:4,_ZSt11__addressofISaISt23_Sp_counted_ptr_inplaceIN5sqlcc11UserManagerESaIvELN9__gnu_cxx12_Lock_policyE2EEEEPT_RS8_
FNDA:0,_ZSt7forwardIN5sqlcc10PermissionEEOT_RNSt16remove_referenceIS2_E4typeE
FNDA:0,_ZSt7forwardIN5sqlcc4UserEEOT_RNSt16remove_referenceIS2_E4typeE
FNDA:199,_ZSt7forwardINSt7__cxx1112basic_stringIcSt11char_traitsIcESaIcEEEEOT_RNSt16remove_referenceIS6_E4typeE
FNDA:6,_ZSt7forwardIRKN5sqlcc10PermissionEEOT_RNSt16remove_referenceIS4_E4typeE
FNDA:0,_ZSt7forwardIRKN5sqlcc4UserEEOT_RNSt16remove_referenceIS4_E4typeE
FNDA:2,_ZSt7forwardIRKNSt7__cxx1112basic_stringIcSt11char_traitsIcESaIcEEEEOT_RNSt16remove_referenceIS8_E4typeE
FNDA:8,_ZSt7forwardIRKSt21piecewise_construct_tEOT_RNSt16remove_referenceIS3_E4typeE
FNDA:7,_ZSt7forwardIRKSt4pairIKNSt7__cxx1112basic_stringIcSt11char_traitsIcESaIcEEEN5sqlcc4UserEEEOT_RNSt16remove_referenceISD_E4typeE
FNDA:8,_ZSt7forwardISt5tupleIJEEEOT_RNSt16remove_referenceIS2_E4typeE
FNDA:8,_ZSt7forwardISt5tupleIJRKNSt7__cxx1112basic_stringIcSt11char_traitsIcESaIcEEEEEEOT_RNSt16remove_referenceISA_E4typeE
FNDA:0,_ZSt4moveIRN5sqlcc10PermissionEEONSt16remove_referenceIT_E4typeEOS4_
FNDA:0,_ZSt4moveIRN5sqlcc4UserEEONSt16remove_referenceIT_E4typeEOS4_
FNDA:79,_ZSt4moveIRNSt7__cxx1112basic_stringIcSt11char_traitsIcESaIcEEEEONSt16remove_referenceIT_E4typeEOS8_
FNDA:6,_ZSt4moveIRPN5sqlcc11UserManagerEEONSt16remove_referenceIT_E4typeEOS5_
FNDA:0,_ZSt4moveIRSaIcEEONSt16remove_referenceIT_E4typeEOS3_
FNDA:2,_ZSt4moveIRSt10shared_ptrIN5sqlcc11UserManagerEEEONSt16remove_referenceIT_E4typeEOS6_
FNDA:2,_ZSt4moveIRSt12__shared_ptrIN5sqlcc11UserManagerELN9__gnu_cxx12_Lock_policyE2EEEONSt16remove_referenceIT_E4typeEOS8_
FNDA:0,_ZSt4moveIRZN5sqlcc11UserManager15RevokePrivilegeERKNSt7__cxx1112basic_stringIcSt11char_traitsIcESaIcEEES9_S9_S9_EUlRKNS0_10PermissionEE_EONSt16remove_referenceIT_E4typeEOSG_
FNDA:0,_ZSt4moveIRZN5sqlcc11UserManager20RemoveUserPrivilegesERKNSt7__cxx1112basic_stringIcSt11char_traitsIcESaIcEEEEUlRKNS0_10PermissionEE_EONSt16remove_referenceIT_E4typeEOSG_
FNF:28
FNH:19
DA:51,180
DA:52,180
DA:70,238
DA:71,238
DA:97,89
DA:98,89
DA:138,4
DA:139,4
DA:189,2
DA:197,2
DA:198,2
DA:199,2
DA:200,2
LF:13
LH:13
end_of_record
TN:
SF:/usr/include/c++/13/bits/new_allocator.h
FN:104,104,_ZNSt15__new_allocatorIN5sqlcc10PermissionEED2Ev
FN:104,104,_ZNSt15__new_allocatorIN5sqlcc4UserEED2Ev
FN:104,104,_ZNSt15__new_allocatorINSt7__cxx1112basic_stringIcSt11char_traitsIcESaIcEEEED2Ev
FN:104,104,_ZNSt15__new_allocatorINSt8__detail10_Hash_nodeISt4pairIKNSt7__cxx1112basic_stringIcSt11char_traitsIcESaIcEEEN5sqlcc4UserEELb1EEEED2Ev
FN:104,104,_ZNSt15__new_allocatorIPNSt8__detail15_Hash_node_baseEED2Ev
FN:104,104,_ZNSt15__new_allocatorISt23_Sp_counted_ptr_inplaceIN5sqlcc11UserManagerESaIvELN9__gnu_cxx12_Lock_policyE2EEED2Ev
FN:104,104,_ZNSt15__new_allocatorIcED2Ev
FN:126,152,_ZNSt15__new_allocatorIN5sqlcc10PermissionEE8allocateEmPKv
FN:126,152,_ZNSt15__new_allocatorIN5sqlcc4UserEE8allocateEmPKv
FN:126,152,_ZNSt15__new_allocatorINSt7__cxx1112basic_stringIcSt11char_traitsIcESaIcEEEE8allocateEmPKv
FN:126,152,_ZNSt15__new_allocatorINSt8__detail10_Hash_nodeISt4pairIKNSt7__cxx1112basic_stringIcSt11char_traitsIcESaIcEEEN5sqlcc4UserEELb1EEEE8allocateEmPKv
FN:126,152,_ZNSt15__new_allocatorIPNSt8__detail15_Hash_node_baseEE8allocateEmPKv
FN:126,152,_ZNSt15__new_allocatorISt23_Sp_counted_ptr_inplaceIN5sqlcc11UserManagerESaIvELN9__gnu_cxx12_Lock_policyE2EEE8allocateEmPKv
FN:156,173,_ZNSt15__new_allocatorIN5sqlcc10PermissionEE10deallocateEPS1_m
FN:156,173,_ZNSt15__new_allocatorIN5sqlcc4UserEE10deallocateEPS1_m
FN:156,173,_ZNSt15__new_allocatorINSt7__cxx1112basic_stringIcSt11char_traitsIcESaIcEEEE10deallocateEPS5_m
FN:156,173,_ZNSt15__new_allocatorINSt8__detail10_Hash_nodeISt4pairIKNSt7__cxx1112basic_stringIcSt11char_traitsIcESaIcEEEN5sqlcc4UserEELb1EEEE10deallocateEPSD_m
FN:156,173,_ZNSt15__new_allocatorIPNSt8__detail15_Hash_node_baseEE10deallocateEPS2_m
FN:156,173,_ZNSt15__new_allocatorISt23_Sp_counted_ptr_inplaceIN5sqlcc11UserManagerESaIvELN9__gnu_cxx12_Lock_policyE2EEE10deallocateEPS6_m
FNDA:2,_ZNSt15__new_allocatorIN5sqlcc10PermissionEED2Ev
FNDA:0,_ZNSt15__new_allocatorIN5sqlcc4UserEED2Ev
FNDA:2,_ZNSt15__new_allocatorINSt7__cxx1112basic_stringIcSt11char_traitsIcESaIcEEEED2Ev
FNDA:2,_ZNSt15__new_allocatorINSt8__detail10_Hash_nodeISt4pairIKNSt7__cxx1112basic_stringIcSt11char_traitsIcESaIcEEEN5sqlcc4UserEELb1EEEED2Ev
FNDA:4,_ZNSt15__new_allocatorIPNSt8__detail15_Hash_node_baseEED2Ev
FNDA:4,_ZNSt15__new_allocatorISt23_Sp_counted_ptr_inplaceIN5sqlcc11UserManagerESaIvELN9__gnu_cxx12_Lock_policyE2EEED2Ev
FNDA:85,_ZNSt15__new_allocatorIcED2Ev
FNDA:2,_ZNSt15__new_allocatorIN5sqlcc10PermissionEE8allocateEmPKv
FNDA:0,_ZNSt15__new_allocatorIN5sqlcc4UserEE8allocateEmPKv
FNDA:11,_ZNSt15__new_allocatorINSt7__cxx1112basic_stringIcSt11char_traitsIcESaIcEEEE8allocateEmPKv
FNDA:2,_ZNSt15__new_allocatorINSt8__detail10_Hash_nodeISt4pairIKNSt7__cxx1112basic_stringIcSt11char_traitsIcESaIcEEEN5sqlcc4UserEELb1EEEE8allocateEmPKv
FNDA:2,_ZNSt15__new_allocatorIPNSt8__detail15_Hash_node_baseEE8allocateEmPKv
FNDA:2,_ZNSt15__new_allocatorISt23_Sp_counted_ptr_inplaceIN5sqlcc11UserManagerESaIvELN9__gnu_cxx12_Lock_policyE2EEE8allocateEmPKv
FNDA:2,_ZNSt15__new_allocatorIN5sqlcc10PermissionEE10deallocateEPS1_m
FNDA:0,_ZNSt15__new_allocatorIN5sqlcc4UserEE10deallocateEPS1_m
FNDA:11,_ZNSt15__new_allocatorINSt7__cxx1112basic_stringIcSt11char_traitsIcESaIcEEEE10deallocateEPS5_m
FNDA:2,_ZNSt15__new_allocatorINSt8__detail10_Hash_nodeISt4pairIKNSt7__cxx1112basic_stringIcSt11char_traitsIcESaIcEEEN5sqlcc4UserEELb1EEEE10deallocateEPSD_m
FNDA:2,_ZNSt15__new_allocatorIPNSt8__detail15_Hash_node_baseEE10deallocateEPS2_m
FNDA:2,_ZNSt15__new_allocatorISt23_Sp_counted_ptr_inplaceIN5sqlcc11UserManagerESaIvELN9__gnu_cxx12_Lock_policyE2EEE10deallocateEPS6_m
FNF:19
FNH:16
DA:88,55
DA:92,11
DA:104,99
DA:126,19
DA:134,19
DA:138,0
DA:139,0
DA:140,0
DA:151,19
DA:156,19
DA:172,19
DA:183,26
DA:191,82
DA:198,48
DA:233,45
LF:15
LH:12
end_of_record
TN:
SF:/usr/include/c++/13/bits/predefined_ops.h
FN:310,312,_ZN9__gnu_cxx5__ops10_Iter_predIZN5sqlcc11UserManager15RevokePrivilegeERKNSt7__cxx1112basic_stringIcSt11char_traitsIcESaIcEEESB_SB_SB_EUlRKNS2_10PermissionEE_EC2ESF_
FN:310,312,_ZN9__gnu_cxx5__ops10_Iter_predIZN5sqlcc11UserManager20RemoveUserPrivilegesERKNSt7__cxx1112basic_stringIcSt11char_traitsIcESaIcEEEEUlRKNS2_10PermissionEE_EC2ESF_
FN:317,318,_ZN9__gnu_cxx5__ops10_Iter_predIZN5sqlcc11UserManager15RevokePrivilegeERKNSt7__cxx1112basic_stringIcSt11char_traitsIcESaIcEEESB_SB_SB_EUlRKNS2_10PermissionEE_EclINS_17__normal_iteratorIPSC_St6vectorISC_SaISC_EEEEEEbT_
FN:317,318,_ZN9__gnu_cxx5__ops10_Iter_predIZN5sqlcc11UserManager20RemoveUserPrivilegesERKNSt7__cxx1112basic_stringIcSt11char_traitsIcESaIcEEEEUlRKNS2_10PermissionEE_EclINS_17__normal_iteratorIPSC_St6vectorISC_SaISC_EEEEEEbT_
FN:324,325,_ZN9__gnu_cxx5__ops11__pred_iterIZN5sqlcc11UserManager15RevokePrivilegeERKNSt7__cxx1112basic_stringIcSt11char_traitsIcESaIcEEESB_SB_SB_EUlRKNS2_10PermissionEE_EENS0_10_Iter_predIT_EESH_
FN:324,325,_ZN9__gnu_cxx5__ops11__pred_iterIZN5sqlcc11UserManager20RemoveUserPrivilegesERKNSt7__cxx1112basic_stringIcSt11char_traitsIcESaIcEEEEUlRKNS2_10PermissionEE_EENS0_10_Iter_predIT_EESH_
FNDA:0,_ZN9__gnu_cxx5__ops10_Iter_predIZN5sqlcc11UserManager15RevokePrivilegeERKNSt7__cxx1112basic_stringIcSt11char_traitsIcESaIcEEESB_SB_SB_EUlRKNS2_10PermissionEE_EC2ESF_
FNDA:0,_ZN9__gnu_cxx5__ops10_Iter_predIZN5sqlcc11UserManager20RemoveUserPrivilegesERKNSt7__cxx1112basic_stringIcSt11char_traitsIcESaIcEEEEUlRKNS2_10PermissionEE_EC2ESF_
FNDA:0,_ZN9__gnu_cxx5__ops10_Iter_predIZN5sqlcc11UserManager15RevokePrivilegeERKNSt7__cxx1112basic_stringIcSt11char_traitsIcESaIcEEESB_SB_SB_EUlRKNS2_10PermissionEE_EclINS_17__normal_iteratorIPSC_St6vectorISC_SaISC_EEEEEEbT_
FNDA:0,_ZN9__gnu_cxx5__ops10_Iter_predIZN5sqlcc11UserManager20RemoveUserPrivilegesERKNSt7__cxx1112basic_stringIcSt11char_traitsIcESaIcEEEEUlRKNS2_10PermissionEE_EclINS_17__normal_iteratorIPSC_St6vectorISC_SaISC_EEEEEEbT_
FNDA:0,_ZN9__gnu_cxx5__ops11__pred_iterIZN5sqlcc11UserManager15RevokePrivilegeERKNSt7__cxx1112basic_stringIcSt11char_traitsIcESaIcEEESB_SB_SB_EUlRKNS2_10PermissionEE_EENS0_10_Iter_predIT_EESH_
FNDA:0,_ZN9__gnu_cxx5__ops11__pred_iterIZN5sqlcc11UserManager20RemoveUserPrivilegesERKNSt7__cxx1112basic_stringIcSt11char_traitsIcESaIcEEEEUlRKNS2_10PermissionEE_EENS0_10_Iter_predIT_EESH_
FNF:6
FNH:0
DA:310,0
DA:311,0
DA:312,0
DA:317,0
DA:318,0
DA:324,0
DA:325,0
LF:7
LH:0
end_of_record
TN:
SF:/usr/include/c++/13/bits/ptr_traits.h
FN:141,142,_ZNSt19__ptr_traits_ptr_toIPNSt8__detail10_Hash_nodeISt4pairIKNSt7__cxx1112basic_stringIcSt11char_traitsIcESaIcEEEN5sqlcc4UserEELb1EEESD_Lb0EE10pointer_toERSD_
FN:141,142,_ZNSt19__ptr_traits_ptr_toIPPNSt8__detail15_Hash_node_baseES2_Lb0EE10pointer_toERS2_
FN:212,216,_ZSt12__to_addressINSt8__detail10_Hash_nodeISt4pairIKNSt7__cxx1112basic_stringIcSt11char_traitsIcESaIcEEEN5sqlcc4UserEELb1EEEEPT_SF_
FN:212,216,_ZSt12__to_addressIPNSt8__detail15_Hash_node_baseEEPT_S4_
FN:212,216,_ZSt12__to_addressISt23_Sp_counted_ptr_inplaceIN5sqlcc11UserManagerESaIvELN9__gnu_cxx12_Lock_policyE2EEEPT_S8_
FNDA:2,_ZNSt19__ptr_traits_ptr_toIPNSt8__detail10_Hash_nodeISt4pairIKNSt7__cxx1112basic_stringIcSt11char_traitsIcESaIcEEEN5sqlcc4UserEELb1EEESD_Lb0EE10pointer_toERSD_
FNDA:2,_ZNSt19__ptr_traits_ptr_toIPPNSt8__detail15_Hash_node_baseES2_Lb0EE10pointer_toERS2_
FNDA:2,_ZSt12__to_addressINSt8__detail10_Hash_nodeISt4pairIKNSt7__cxx1112basic_stringIcSt11char_traitsIcESaIcEEEN5sqlcc4UserEELb1EEEEPT_SF_
FNDA:2,_ZSt12__to_addressIPNSt8__detail15_Hash_node_baseEEPT_S4_
FNDA:2,_ZSt12__to_addressISt23_Sp_counted_ptr_inplaceIN5sqlcc11UserManagerESaIvELN9__gnu_cxx12_Lock_policyE2EEEPT_S8_
FNF:5
FNH:5
DA:141,4
DA:142,4
DA:212,6
DA:215,6
LF:4
LH:4
end_of_record
TN:
SF:/usr/include/c++/13/bits/shared_ptr.h
FN:1005,1011,_ZSt11make_sharedIN5sqlcc11UserManagerEJEESt10shared_ptrINSt9enable_ifIXntsrSt8is_arrayIT_E5valueES5_E4typeEEDpOT0_
FN:202,202,_ZNSt10shared_ptrIN5sqlcc11UserManagerEEC2Ev
FN:438,442,_ZNSt10shared_ptrIN5sqlcc11UserManagerEEaSEOS2_
FN:463,465,_ZNSt10shared_ptrIN5sqlcc11UserManagerEEC2ISaIvEJEEESt20_Sp_alloc_shared_tagIT_EDpOT0_
FNDA:2,_ZSt11make_sharedIN5sqlcc11UserManagerEJEESt10shared_ptrINSt9enable_ifIXntsrSt8is_arrayIT_E5valueES5_E4typeEEDpOT0_
FNDA:2,_ZNSt10shared_ptrIN5sqlcc11UserManagerEEC2Ev
FNDA:2,_ZNSt10shared_ptrIN5sqlcc11UserManagerEEaSEOS2_
FNDA:2,_ZNSt10shared_ptrIN5sqlcc11UserManagerEEC2ISaIvEJEEESt20_Sp_alloc_shared_tagIT_EDpOT0_
FNF:4
FNH:4
DA:202,2
DA:438,2
DA:440,2
DA:441,2
DA:463,2
DA:464,2
DA:465,2
DA:1005,2
DA:1010,4
LF:9
LH:9
end_of_record
TN:
SF:/usr/include/c++/13/bits/shared_ptr_base.h
FN:1068,1072,_ZNSt14__shared_countILN9__gnu_cxx12_Lock_policyE2EED2Ev
FN:1097,1102,_ZNSt14__shared_countILN9__gnu_cxx12_Lock_policyE2EE7_M_swapERS2_
FN:129,130,_ZNSt16_Sp_counted_baseILN9__gnu_cxx12_Lock_policyE2EEC2Ev
FN:133,134,_ZNSt16_Sp_counted_baseILN9__gnu_cxx12_Lock_policyE2EED0Ev
FN:133,134,_ZNSt16_Sp_counted_baseILN9__gnu_cxx12_Lock_policyE2EED2Ev
FN:1354,1358,_ZNKSt19__shared_ptr_accessIN5sqlcc11UserManagerELN9__gnu_cxx12_Lock_policyE2ELb0ELb0EEptEv
FN:1362,1363,_ZNKSt19__shared_ptr_accessIN5sqlcc11UserManagerELN9__gnu_cxx12_Lock_policyE2ELb0ELb0EE6_M_getEv
FN:143,144,_ZNSt16_Sp_counted_baseILN9__gnu_cxx12_Lock_policyE2EE10_M_destroyEv
FN:1462,1464,_ZNSt12__shared_ptrIN5sqlcc11UserManagerELN9__gnu_cxx12_Lock_policyE2EEC2Ev
FN:1524,1524,_ZNSt12__shared_ptrIN5sqlcc11UserManagerELN9__gnu_cxx12_Lock_policyE2EED2Ev
FN:1531,1536,_ZNSt12__shared_ptrIN5sqlcc11UserManagerELN9__gnu_cxx12_Lock_policyE2EEC2EOS4_
FN:1618,1622,_ZNSt12__shared_ptrIN5sqlcc11UserManagerELN9__gnu_cxx12_Lock_policyE2EEaSEOS4_
FN:1665,1666,_ZNKSt12__shared_ptrIN5sqlcc11UserManagerELN9__gnu_cxx12_Lock_policyE2EE3getEv
FN:1684,1688,_ZNSt12__shared_ptrIN5sqlcc11UserManagerELN9__gnu_cxx12_Lock_policyE2EE4swapERS4_
FN:1711,1713,_ZNSt12__shared_ptrIN5sqlcc11UserManagerELN9__gnu_cxx12_Lock_policyE2EEC2ISaIvEJEEESt20_Sp_alloc_shared_tagIT_EDpOT0_
FN:172,193,_ZNSt16_Sp_counted_baseILN9__gnu_cxx12_Lock_policyE2EE19_M_release_last_useEv
FN:1765,1766,_ZNSt12__shared_ptrIN5sqlcc11UserManagerELN9__gnu_cxx12_Lock_policyE2EE31_M_enable_shared_from_this_withIS1_S1_EENSt9enable_ifIXntsrNS4_15__has_esft_baseIT0_vEE5valueEvE4typeEPT_
FN:198,199,_ZNSt16_Sp_counted_baseILN9__gnu_cxx12_Lock_policyE2EE24_M_release_last_use_coldEv
FN:317,363,_ZNSt16_Sp_counted_baseILN9__gnu_cxx12_Lock_policyE2EE10_M_releaseEv
FN:470,470,_ZNSt14_Sp_ebo_helperILi0ESaIvELb1EEC2ERKS0_
FN:474,474,_ZNSt14_Sp_ebo_helperILi0ESaIvELb1EE6_S_getERS1_
FN:564,568,_ZNSt19_Sp_make_shared_tag5_S_tiEv
FN:587,587,_ZNSt23_Sp_counted_ptr_inplaceIN5sqlcc11UserManagerESaIvELN9__gnu_cxx12_Lock_policyE2EE5_ImplC2ES2_
FN:589,589,_ZNSt23_Sp_counted_ptr_inplaceIN5sqlcc11UserManagerESaIvELN9__gnu_cxx12_Lock_policyE2EE5_Impl8_M_allocEv
FN:599,606,_ZNSt23_Sp_counted_ptr_inplaceIN5sqlcc11UserManagerESaIvELN9__gnu_cxx12_Lock_policyE2EEC2IJEEES2_DpOT_
FN:608,608,_ZNSt23_Sp_counted_ptr_inplaceIN5sqlcc11UserManagerESaIvELN9__gnu_cxx12_Lock_policyE2EED0Ev
FN:608,608,_ZNSt23_Sp_counted_ptr_inplaceIN5sqlcc11UserManagerESaIvELN9__gnu_cxx12_Lock_policyE2EED2Ev
FN:611,614,_ZNSt23_Sp_counted_ptr_inplaceIN5sqlcc11UserManagerESaIvELN9__gnu_cxx12_Lock_policyE2EE10_M_disposeEv
FN:618,623,_ZNSt23_Sp_counted_ptr_inplaceIN5sqlcc11UserManagerESaIvELN9__gnu_cxx12_Lock_policyE2EE10_M_destroyEv
FN:631,648,_ZNSt23_Sp_counted_ptr_inplaceIN5sqlcc11UserManagerESaIvELN9__gnu_cxx12_Lock_policyE2EE14_M_get_deleterERKSt9type_info
FN:650,650,_ZNSt23_Sp_counted_ptr_inplaceIN5sqlcc11UserManagerESaIvELN9__gnu_cxx12_Lock_policyE2EE6_M_ptrEv
FN:908,909,_ZNSt14__shared_countILN9__gnu_cxx12_Lock_policyE2EEC2Ev
FN:964,976,_ZNSt14__shared_countILN9__gnu_cxx12_Lock_policyE2EEC2IN5sqlcc11UserManagerESaIvEJEEERPT_St20_Sp_alloc_shared_tagIT0_EDpOT1_
FNDA:6,_ZNSt14__shared_countILN9__gnu_cxx12_Lock_policyE2EED2Ev
FNDA:4,_ZNSt14__shared_countILN9__gnu_cxx12_Lock_policyE2EE7_M_swapERS2_
FNDA:2,_ZNSt16_Sp_counted_baseILN9__gnu_cxx12_Lock_policyE2EEC2Ev
FNDA:0,_ZNSt16_Sp_counted_baseILN9__gnu_cxx12_Lock_policyE2EED0Ev
FNDA:2,_ZNSt16_Sp_counted_baseILN9__gnu_cxx12_Lock_policyE2EED2Ev
FNDA:15,_ZNKSt19__shared_ptr_accessIN5sqlcc11UserManagerELN9__gnu_cxx12_Lock_policyE2ELb0ELb0EEptEv
FNDA:15,_ZNKSt19__shared_ptr_accessIN5sqlcc11UserManagerELN9__gnu_cxx12_Lock_policyE2ELb0ELb0EE6_M_getEv
FNDA:0,_ZNSt16_Sp_counted_baseILN9__gnu_cxx12_Lock_policyE2EE10_M_destroyEv
FNDA:2,_ZNSt12__shared_ptrIN5sqlcc11UserManagerELN9__gnu_cxx12_Lock_policyE2EEC2Ev
FNDA:6,_ZNSt12__shared_ptrIN5sqlcc11UserManagerELN9__gnu_cxx12_Lock_policyE2EED2Ev
FNDA:2,_ZNSt12__shared_ptrIN5sqlcc11UserManagerELN9__gnu_cxx12_Lock_policyE2EEC2EOS4_
FNDA:2,_ZNSt12__shared_ptrIN5sqlcc11UserManagerELN9__gnu_cxx12_Lock_policyE2EEaSEOS4_
FNDA:15,_ZNKSt12__shared_ptrIN5sqlcc11UserManagerELN9__gnu_cxx12_Lock_policyE2EE3getEv
FNDA:2,_ZNSt12__shared_ptrIN5sqlcc11UserManagerELN9__gnu_cxx12_Lock_policyE2EE4swapERS4_
FNDA:2,_ZNSt12__shared_ptrIN5sqlcc11UserManagerELN9__gnu_cxx12_Lock_policyE2EEC2ISaIvEJEEESt20_Sp_alloc_shared_tagIT_EDpOT0_
FNDA:0,_ZNSt16_Sp_counted_baseILN9__gnu_cxx12_Lock_policyE2EE19_M_release_last_useEv
FNDA:2,_ZNSt12__shared_ptrIN5sqlcc11UserManagerELN9__gnu_cxx12_Lock_policyE2EE31_M_enable_shared_from_this_withIS1_S1_EENSt9enable_ifIXntsrNS4_15__has_esft_baseIT0_vEE5valueEvE4typeEPT_
FNDA:0,_ZNSt16_Sp_counted_baseILN9__gnu_cxx12_Lock_policyE2EE24_M_release_last_use_coldEv
FNDA:2,_ZNSt16_Sp_counted_baseILN9__gnu_cxx12_Lock_policyE2EE10_M_releaseEv
FNDA:2,_ZNSt14_Sp_ebo_helperILi0ESaIvELb1EEC2ERKS0_
FNDA:4,_ZNSt14_Sp_ebo_helperILi0ESaIvELb1EE6_S_getERS1_
FNDA:0,_ZNSt19_Sp_make_shared_tag5_S_tiEv
FNDA:2,_ZNSt23_Sp_counted_ptr_inplaceIN5sqlcc11UserManagerESaIvELN9__gnu_cxx12_Lock_policyE2EE5_ImplC2ES2_
FNDA:4,_ZNSt23_Sp_counted_ptr_inplaceIN5sqlcc11UserManagerESaIvELN9__gnu_cxx12_Lock_policyE2EE5_Impl8_M_allocEv
FNDA:2,_ZNSt23_Sp_counted_ptr_inplaceIN5sqlcc11UserManagerESaIvELN9__gnu_cxx12_Lock_policyE2EEC2IJEEES2_DpOT_
FNDA:0,_ZNSt23_Sp_counted_ptr_inplaceIN5sqlcc11UserManagerESaIvELN9__gnu_cxx12_Lock_policyE2EED0Ev
FNDA:2,_ZNSt23_Sp_counted_ptr_inplaceIN5sqlcc11UserManagerESaIvELN9__gnu_cxx12_Lock_policyE2EED2Ev
FNDA:2,_ZNSt23_Sp_counted_ptr_inplaceIN5sqlcc11UserManagerESaIvELN9__gnu_cxx12_Lock_policyE2EE10_M_disposeEv
FNDA:2,_ZNSt23_Sp_counted_ptr_inplaceIN5sqlcc11UserManagerESaIvELN9__gnu_cxx12_Lock_policyE2EE10_M_destroyEv
FNDA:0,_ZNSt23_Sp_counted_ptr_inplaceIN5sqlcc11UserManagerESaIvELN9__gnu_cxx12_Lock_policyE2EE14_M_get_deleterERKSt9type_info
FNDA:6,_ZNSt23_Sp_counted_ptr_inplaceIN5sqlcc11UserManagerESaIvELN9__gnu_cxx12_Lock_policyE2EE6_M_ptrEv
FNDA:4,_ZNSt14__shared_countILN9__gnu_cxx12_Lock_policyE2EEC2Ev
FNDA:2,_ZNSt14__shared_countILN9__gnu_cxx12_Lock_policyE2EEC2IN5sqlcc11UserManagerESaIvEJEEERPT_St20_Sp_alloc_shared_tagIT0_EDpOT1_
FNF:33
FNH:26
DA:129,2
DA:130,2
DA:133,2
DA:134,2
DA:143,0
DA:144,0
DA:172,0
DA:175,0
DA:187,0
DA:188,0
DA:191,0
DA:193,0
DA:198,0
DA:199,0
DA:317,2
DA:321,2
DA:324,2
DA:328,2
DA:331,2
DA:332,2
DA:333,2
DA:334,2
DA:337,2
DA:343,2
DA:346,2
DA:347,2
DA:348,2
DA:350,0
DA:351,0
DA:353,0
DA:354,0
DA:470,2
DA:474,4
DA:564,0
DA:567,0
DA:587,2
DA:589,4
DA:599,2
DA:600,2
DA:604,2
DA:606,2
DA:608,2
DA:611,2
DA:613,2
DA:614,2
DA:618,2
DA:620,2
DA:621,2
DA:622,2
DA:623,2
DA:631,0
DA:633,0
DA:638,0
DA:639,0
DA:641,0
DA:646,0
DA:647,0
DA:650,6
DA:908,4
DA:909,4
DA:964,2
DA:968,2
DA:969,2
DA:970,2
DA:971,2
DA:973,2
DA:974,2
DA:975,2
DA:976,4
DA:1068,6
DA:1070,6
DA:1071,2
DA:1072,6
DA:1097,4
DA:1099,4
DA:1100,4
DA:1101,4
DA:1102,4
DA:1354,15
DA:1357,15
DA:1362,15
DA:1363,15
DA:1462,2
DA:1463,2
DA:1464,2
DA:1524,6
DA:1531,2
DA:1532,2
DA:1534,2
DA:1535,2
DA:1536,2
DA:1618,2
DA:1620,2
DA:1621,2
DA:1665,15
DA:1666,15
DA:1684,2
DA:1686,2
DA:1687,2
DA:1688,2
DA:1711,2
DA:1712,2
DA:1713,2
DA:1765,2
DA:1766,2
LF:105
LH:82
end_of_record
TN:
SF:/usr/include/c++/13/bits/std_mutex.h
FN:104,104,_ZNSt5mutexC2Ev
FN:111,118,_ZNSt5mutex4lockEv
FN:129,133,_ZNSt5mutex6unlockEv
FN:248,249,_ZNSt10lock_guardISt5mutexEC2ERS0_
FN:254,255,_ZNSt10lock_guardISt5mutexED2Ev
FN:67,67,_ZNSt12__mutex_baseC2Ev
FNDA:2,_ZNSt5mutexC2Ev
FNDA:7,_ZNSt5mutex4lockEv
FNDA:7,_ZNSt5mutex6unlockEv
FNDA:7,_ZNSt10lock_guardISt5mutexEC2ERS0_
FNDA:7,_ZNSt10lock_guardISt5mutexED2Ev
FNDA:2,_ZNSt12__mutex_baseC2Ev
FNF:6
FNH:6
DA:67,2
DA:104,2
DA:111,7
DA:113,7
DA:116,7
DA:117,0
DA:118,7
DA:129,7
DA:132,7
DA:133,7
DA:248,7
DA:249,7
DA:254,7
DA:255,7
LF:14
LH:13
end_of_record
TN:
SF:/usr/include/c++/13/bits/stl_algo.h
FN:870,882,_ZSt9remove_ifIN9__gnu_cxx17__normal_iteratorIPN5sqlcc10PermissionESt6vectorIS3_SaIS3_EEEEZNS2_11UserManager15RevokePrivilegeERKNSt7__cxx1112basic_stringIcSt11char_traitsIcESaIcEEESH_SH_SH_EUlRKS3_E_ET_SL_SL_T0_
FN:870,882,_ZSt9remove_ifIN9__gnu_cxx17__normal_iteratorIPN5sqlcc10PermissionESt6vectorIS3_SaIS3_EEEEZNS2_11UserManager20RemoveUserPrivilegesERKNSt7__cxx1112basic_stringIcSt11char_traitsIcESaIcEEEEUlRKS3_E_ET_SL_SL_T0_
FNDA:0,_ZSt9remove_ifIN9__gnu_cxx17__normal_iteratorIPN5sqlcc10PermissionESt6vectorIS3_SaIS3_EEEEZNS2_11UserManager15RevokePrivilegeERKNSt7__cxx1112basic_stringIcSt11char_traitsIcESaIcEEESH_SH_SH_EUlRKS3_E_ET_SL_SL_T0_
FNDA:0,_ZSt9remove_ifIN9__gnu_cxx17__normal_iteratorIPN5sqlcc10PermissionESt6vectorIS3_SaIS3_EEEEZNS2_11UserManager20RemoveUserPrivilegesERKNSt7__cxx1112basic_stringIcSt11char_traitsIcESaIcEEEEUlRKS3_E_ET_SL_SL_T0_
FNF:2
FNH:0
DA:870,0
DA:880,0
DA:881,0
LF:3
LH:0
end_of_record
TN:
SF:/usr/include/c++/13/bits/stl_algobase.h
FN:2064,2110,_ZSt9__find_ifIN9__gnu_cxx17__normal_iteratorIPN5sqlcc10PermissionESt6vectorIS3_SaIS3_EEEENS0_5__ops10_Iter_predIZNS2_11UserManager15RevokePrivilegeERKNSt7__cxx1112basic_stringIcSt11char_traitsIcESaIcEEESJ_SJ_SJ_EUlRKS3_E_EEET_SO_SO_T0_St26random_access_iterator_tag
FN:2064,2110,_ZSt9__find_ifIN9__gnu_cxx17__normal_iteratorIPN5sqlcc10PermissionESt6vectorIS3_SaIS3_EEEENS0_5__ops10_Iter_predIZNS2_11UserManager20RemoveUserPrivilegesERKNSt7__cxx1112basic_stringIcSt11char_traitsIcESaIcEEEEUlRKS3_E_EEET_SO_SO_T0_St26random_access_iterator_tag
FN:2115,2119,_ZSt9__find_ifIN9__gnu_cxx17__normal_iteratorIPN5sqlcc10PermissionESt6vectorIS3_SaIS3_EEEENS0_5__ops10_Iter_predIZNS2_11UserManager15RevokePrivilegeERKNSt7__cxx1112basic_stringIcSt11char_traitsIcESaIcEEESJ_SJ_SJ_EUlRKS3_E_EEET_SO_SO_T0_
FN:2115,2119,_ZSt9__find_ifIN9__gnu_cxx17__normal_iteratorIPN5sqlcc10PermissionESt6vectorIS3_SaIS3_EEEENS0_5__ops10_Iter_predIZNS2_11UserManager20RemoveUserPrivilegesERKNSt7__cxx1112basic_stringIcSt11char_traitsIcESaIcEEEEUlRKS3_E_EEET_SO_SO_T0_
FN:2136,2151,_ZSt11__remove_ifIN9__gnu_cxx17__normal_iteratorIPN5sqlcc10PermissionESt6vectorIS3_SaIS3_EEEENS0_5__ops10_Iter_predIZNS2_11UserManager15RevokePrivilegeERKNSt7__cxx1112basic_stringIcSt11char_traitsIcESaIcEEESJ_SJ_SJ_EUlRKS3_E_EEET_SO_SO_T0_
FN:2136,2151,_ZSt11__remove_ifIN9__gnu_cxx17__normal_iteratorIPN5sqlcc10PermissionESt6vectorIS3_SaIS3_EEEENS0_5__ops10_Iter_predIZNS2_11UserManager20RemoveUserPrivilegesERKNSt7__cxx1112basic_stringIcSt11char_traitsIcESaIcEEEEUlRKS3_E_EEET_SO_SO_T0_
FN:233,241,_ZSt3minImERKT_S2_S2_
FN:257,265,_ZSt3maxImERKT_S2_S2_
FN:316,318,_ZSt12__niter_baseIPN5sqlcc10PermissionEET_S3_
FN:316,318,_ZSt12__niter_baseIPN5sqlcc4UserEET_S3_
FN:316,318,_ZSt12__niter_baseIPNSt7__cxx1112basic_stringIcSt11char_traitsIcESaIcEEEET_S7_
FN:331,332,_ZSt12__niter_wrapIN9__gnu_cxx17__normal_iteratorIPN5sqlcc10PermissionESt6vectorIS3_SaIS3_EEEES4_ET_S9_T0_
FN:408,418,_ZNSt11__copy_moveILb1ELb0ESt26random_access_iterator_tagE8__copy_mIPN5sqlcc10PermissionES5_EET0_T_S7_S6_
FN:497,507,_ZSt14__copy_move_a2ILb1EPN5sqlcc10PermissionES2_ET1_T0_S4_S3_
FN:532,533,_ZSt14__copy_move_a1ILb1EPN5sqlcc10PermissionES2_ET1_T0_S4_S3_
FN:538,544,_ZSt13__copy_move_aILb1EN9__gnu_cxx17__normal_iteratorIPN5sqlcc10PermissionESt6vectorIS3_SaIS3_EEEES8_ET1_T0_SA_S9_
FN:657,667,_ZSt4moveIN9__gnu_cxx17__normal_iteratorIPN5sqlcc10PermissionESt6vectorIS3_SaIS3_EEEES8_ET0_T_SA_S9_
FNDA:0,_ZSt9__find_ifIN9__gnu_cxx17__normal_iteratorIPN5sqlcc10PermissionESt6vectorIS3_SaIS3_EEEENS0_5__ops10_Iter_predIZNS2_11UserManager15RevokePrivilegeERKNSt7__cxx1112basic_stringIcSt11char_traitsIcESaIcEEESJ_SJ_SJ_EUlRKS3_E_EEET_SO_SO_T0_St26random_access_iterator_tag
FNDA:0,_ZSt9__find_ifIN9__gnu_cxx17__normal_iteratorIPN5sqlcc10PermissionESt6vectorIS3_SaIS3_EEEENS0_5__ops10_Iter_predIZNS2_11UserManager20RemoveUserPrivilegesERKNSt7__cxx1112basic_stringIcSt11char_traitsIcESaIcEEEEUlRKS3_E_EEET_SO_SO_T0_St26random_access_iterator_tag
FNDA:0,_ZSt9__find_ifIN9__gnu_cxx17__normal_iteratorIPN5sqlcc10PermissionESt6vectorIS3_SaIS3_EEEENS0_5__ops10_Iter_predIZNS2_11UserManager15RevokePrivilegeERKNSt7__cxx1112basic_stringIcSt11char_traitsIcESaIcEEESJ_SJ_SJ_EUlRKS3_E_EEET_SO_SO_T0_
FNDA:0,_ZSt9__find_ifIN9__gnu_cxx17__normal_iteratorIPN5sqlcc10PermissionESt6vectorIS3_SaIS3_EEEENS0_5__ops10_Iter_predIZNS2_11UserManager20RemoveUserPrivilegesERKNSt7__cxx1112basic_stringIcSt11char_traitsIcESaIcEEEEUlRKS3_E_EEET_SO_SO_T0_
FNDA:0,_ZSt11__remove_ifIN9__gnu_cxx17__normal_iteratorIPN5sqlcc10PermissionESt6vectorIS3_SaIS3_EEEENS0_5__ops10_Iter_predIZNS2_11UserManager15RevokePrivilegeERKNSt7__cxx1112basic_stringIcSt11char_traitsIcESaIcEEESJ_SJ_SJ_EUlRKS3_E_EEET_SO_SO_T0_
FNDA:0,_ZSt11__remove_ifIN9__gnu_cxx17__normal_iteratorIPN5sqlcc10PermissionESt6vectorIS3_SaIS3_EEEENS0_5__ops10_Iter_predIZNS2_11UserManager20RemoveUserPrivilegesERKNSt7__cxx1112basic_stringIcSt11char_traitsIcESaIcEEEEUlRKS3_E_EEET_SO_SO_T0_
FNDA:26,_ZSt3minImERKT_S2_S2_
FNDA:13,_ZSt3maxImERKT_S2_S2_
FNDA:12,_ZSt12__niter_baseIPN5sqlcc10PermissionEET_S3_
FNDA:0,_ZSt12__niter_baseIPN5sqlcc4UserEET_S3_
FNDA:66,_ZSt12__niter_baseIPNSt7__cxx1112basic_stringIcSt11char_traitsIcESaIcEEEET_S7_
FNDA:0,_ZSt12__niter_wrapIN9__gnu_cxx17__normal_iteratorIPN5sqlcc10PermissionESt6vectorIS3_SaIS3_EEEES4_ET_S9_T0_
FNDA:0,_ZNSt11__copy_moveILb1ELb0ESt26random_access_iterator_tagE8__copy_mIPN5sqlcc10PermissionES5_EET0_T_S7_S6_
FNDA:0,_ZSt14__copy_move_a2ILb1EPN5sqlcc10PermissionES2_ET1_T0_S4_S3_
FNDA:0,_ZSt14__copy_move_a1ILb1EPN5sqlcc10PermissionES2_ET1_T0_S4_S3_
FNDA:0,_ZSt13__copy_move_aILb1EN9__gnu_cxx17__normal_iteratorIPN5sqlcc10PermissionESt6vectorIS3_SaIS3_EEEES8_ET1_T0_SA_S9_
FNDA:0,_ZSt4moveIN9__gnu_cxx17__normal_iteratorIPN5sqlcc10PermissionESt6vectorIS3_SaIS3_EEEES8_ET0_T_SA_S9_
FNF:17
FNH:4
DA:233,26
DA:238,26
DA:239,0
DA:240,26
DA:257,13
DA:262,13
DA:263,4
DA:264,9
DA:316,78
DA:318,78
DA:331,0
DA:332,0
DA:408,0
DA:411,0
DA:413,0
DA:414,0
DA:415,0
DA:417,0
DA:497,0
DA:506,0
DA:532,0
DA:533,0
DA:538,0
DA:540,0
DA:543,0
DA:657,0
DA:665,0
DA:666,0
DA:2064,0
DA:2068,0
DA:2070,0
DA:2072,0
DA:2073,0
DA:2074,0
DA:2076,0
DA:2077,0
DA:2078,0
DA:2080,0
DA:2081,0
DA:2082,0
DA:2084,0
DA:2085,0
DA:2086,0
DA:2089,0
DA:2091,0
DA:2092,0
DA:2093,0
DA:2094,0
DA:2096,0
DA:2097,0
DA:2098,0
DA:2099,0
DA:2101,0
DA:2102,0
DA:2103,0
DA:2104,0
DA:2106,0
DA:2108,0
DA:2115,0
DA:2117,0
DA:2118,0
DA:2136,0
DA:2139,0
DA:2140,0
DA:2141,0
DA:2142,0
DA:2143,0
DA:2144,0
DA:2145,0
DA:2147,0
DA:2148,0
DA:2150,0
LF:72
LH:9
end_of_record
TN:
SF:/usr/include/c++/13/bits/stl_construct.h
FN:109,120,_ZSt10_ConstructIN5sqlcc11UserManagerEJEEvPT_DpOT0_
FN:146,153,_ZSt8_DestroyIN5sqlcc10PermissionEEvPT_
FN:146,153,_ZSt8_DestroyIN5sqlcc11UserManagerEEvPT_
FN:146,153,_ZSt8_DestroyIN5sqlcc4UserEEvPT_
FN:146,153,_ZSt8_DestroyINSt7__cxx1112basic_stringIcSt11char_traitsIcESaIcEEEEvPT_
FN:160,164,_ZNSt12_Destroy_auxILb0EE9__destroyIPN5sqlcc10PermissionEEEvT_S5_
FN:160,164,_ZNSt12_Destroy_auxILb0EE9__destroyIPN5sqlcc4UserEEEvT_S5_
FN:160,164,_ZNSt12_Destroy_auxILb0EE9__destroyIPNSt7__cxx1112basic_stringIcSt11char_traitsIcESaIcEEEEEvT_S9_
FN:182,197,_ZSt8_DestroyIPN5sqlcc10PermissionEEvT_S3_
FN:182,197,_ZSt8_DestroyIPN5sqlcc4UserEEvT_S3_
FN:182,197,_ZSt8_DestroyIPNSt7__cxx1112basic_stringIcSt11char_traitsIcESaIcEEEEvT_S7_
FNDA:2,_ZSt10_ConstructIN5sqlcc11UserManagerEJEEvPT_DpOT0_
FNDA:2,_ZSt8_DestroyIN5sqlcc10PermissionEEvPT_
FNDA:2,_ZSt8_DestroyIN5sqlcc11UserManagerEEvPT_
FNDA:0,_ZSt8_DestroyIN5sqlcc4UserEEvPT_
FNDA:32,_ZSt8_DestroyINSt7__cxx1112basic_stringIcSt11char_traitsIcESaIcEEEEvPT_
FNDA:2,_ZNSt12_Destroy_auxILb0EE9__destroyIPN5sqlcc10PermissionEEEvT_S5_
FNDA:0,_ZNSt12_Destroy_auxILb0EE9__destroyIPN5sqlcc4UserEEEvT_S5_
FNDA:2,_ZNSt12_Destroy_auxILb0EE9__destroyIPNSt7__cxx1112basic_stringIcSt11char_traitsIcESaIcEEEEEvT_S9_
FNDA:2,_ZSt8_DestroyIPN5sqlcc10PermissionEEvT_S3_
FNDA:0,_ZSt8_DestroyIPN5sqlcc4UserEEvT_S3_
FNDA:2,_ZSt8_DestroyIPNSt7__cxx1112basic_stringIcSt11char_traitsIcESaIcEEEEvT_S7_
FNF:11
FNH:8
DA:109,2
DA:119,2
DA:120,2
DA:146,36
DA:151,36
DA:153,36
DA:160,4
DA:162,38
DA:163,34
DA:164,4
DA:182,4
DA:196,4
DA:197,4
LF:13
LH:13
end_of_record
TN:
SF:/usr/include/c++/13/bits/stl_function.h
FN:377,378,_ZNKSt8equal_toINSt7__cxx1112basic_stringIcSt11char_traitsIcESaIcEEEEclERKS5_S8_
FNDA:7,_ZNKSt8equal_toINSt7__cxx1112basic_stringIcSt11char_traitsIcESaIcEEEEclERKS5_S8_
FNF:1
FNH:1
DA:377,7
DA:378,7
LF:2
LH:2
end_of_record
TN:
SF:/usr/include/c++/13/bits/stl_iterator.h
FN:1076,1077,_ZN9__gnu_cxx17__normal_iteratorIPKN5sqlcc10PermissionESt6vectorIS2_SaIS2_EEEC2ERKS4_
FN:1076,1077,_ZN9__gnu_cxx17__normal_iteratorIPN5sqlcc10PermissionESt6vectorIS2_SaIS2_EEEC2ERKS3_
FN:1076,1077,_ZN9__gnu_cxx17__normal_iteratorIPN5sqlcc4UserESt6vectorIS2_SaIS2_EEEC2ERKS3_
FN:1076,1077,_ZN9__gnu_cxx17__normal_iteratorIPNSt7__cxx1112basic_stringIcSt11char_traitsIcESaIcEEESt6vectorIS6_SaIS6_EEEC2ERKS7_
FN:1083,1094,_ZN9__gnu_cxx17__normal_iteratorIPKN5sqlcc10PermissionESt6vectorIS2_SaIS2_EEEC2IPS2_vEERKNS0_IT_S7_EE
FN:1099,1100,_ZNK9__gnu_cxx17__normal_iteratorIPKN5sqlcc10PermissionESt6vectorIS2_SaIS2_EEEdeEv
FN:1099,1100,_ZNK9__gnu_cxx17__normal_iteratorIPN5sqlcc10PermissionESt6vectorIS2_SaIS2_EEEdeEv
FN:1099,1100,_ZNK9__gnu_cxx17__normal_iteratorIPNSt7__cxx1112basic_stringIcSt11char_traitsIcESaIcEEESt6vectorIS6_SaIS6_EEEdeEv
FN:1109,1113,_ZN9__gnu_cxx17__normal_iteratorIPKN5sqlcc10PermissionESt6vectorIS2_SaIS2_EEEppEv
FN:1109,1113,_ZN9__gnu_cxx17__normal_iteratorIPN5sqlcc10PermissionESt6vectorIS2_SaIS2_EEEppEv
FN:1147,1148,_ZNK9__gnu_cxx17__normal_iteratorIPN5sqlcc10PermissionESt6vectorIS2_SaIS2_EEEplEl
FN:1157,1158,_ZNK9__gnu_cxx17__normal_iteratorIPNSt7__cxx1112basic_stringIcSt11char_traitsIcESaIcEEESt6vectorIS6_SaIS6_EEEmiEl
FN:1162,1163,_ZNK9__gnu_cxx17__normal_iteratorIPKN5sqlcc10PermissionESt6vectorIS2_SaIS2_EEE4baseEv
FN:1162,1163,_ZNK9__gnu_cxx17__normal_iteratorIPN5sqlcc10PermissionESt6vectorIS2_SaIS2_EEE4baseEv
FN:1162,1163,_ZNK9__gnu_cxx17__normal_iteratorIPN5sqlcc4UserESt6vectorIS2_SaIS2_EEE4baseEv
FN:1162,1163,_ZNK9__gnu_cxx17__normal_iteratorIPNSt7__cxx1112basic_stringIcSt11char_traitsIcESaIcEEESt6vectorIS6_SaIS6_EEE4baseEv
FN:1225,1228,_ZN9__gnu_cxxeqIPN5sqlcc10PermissionESt6vectorIS2_SaIS2_EEEEbRKNS_17__normal_iteratorIT_T0_EESC_
FN:1241,1244,_ZN9__gnu_cxxneIPKN5sqlcc10PermissionESt6vectorIS2_SaIS2_EEEEbRKNS_17__normal_iteratorIT_T0_EESD_
FN:1241,1244,_ZN9__gnu_cxxneIPN5sqlcc10PermissionESt6vectorIS2_SaIS2_EEEEbRKNS_17__normal_iteratorIT_T0_EESC_
FN:1334,1337,_ZN9__gnu_cxxmiIPKN5sqlcc10PermissionESt6vectorIS2_SaIS2_EEEENS_17__normal_iteratorIT_T0_E15difference_typeERKSB_SE_
FN:1334,1337,_ZN9__gnu_cxxmiIPN5sqlcc10PermissionESt6vectorIS2_SaIS2_EEEENS_17__normal_iteratorIT_T0_E15difference_typeERKSA_SD_
FN:1334,1337,_ZN9__gnu_cxxmiIPN5sqlcc4UserESt6vectorIS2_SaIS2_EEEENS_17__normal_iteratorIT_T0_E15difference_typeERKSA_SD_
FN:1334,1337,_ZN9__gnu_cxxmiIPNSt7__cxx1112basic_stringIcSt11char_traitsIcESaIcEEESt6vectorIS6_SaIS6_EEEENS_17__normal_iteratorIT_T0_E15difference_typeERKSE_SH_
FN:1357,1359,_ZSt12__niter_baseIPN5sqlcc10PermissionESt6vectorIS1_SaIS1_EEET_N9__gnu_cxx17__normal_iteratorIS6_T0_EE
FNDA:0,_ZN9__gnu_cxx17__normal_iteratorIPKN5sqlcc10PermissionESt6vectorIS2_SaIS2_EEEC2ERKS4_
FNDA:4,_ZN9__gnu_cxx17__normal_iteratorIPN5sqlcc10PermissionESt6vectorIS2_SaIS2_EEEC2ERKS3_
FNDA:0,_ZN9__gnu_cxx17__normal_iteratorIPN5sqlcc4UserESt6vectorIS2_SaIS2_EEEC2ERKS3_
FNDA:86,_ZN9__gnu_cxx17__normal_iteratorIPNSt7__cxx1112basic_stringIcSt11char_traitsIcESaIcEEESt6vectorIS6_SaIS6_EEEC2ERKS7_
FNDA:0,_ZN9__gnu_cxx17__normal_iteratorIPKN5sqlcc10PermissionESt6vectorIS2_SaIS2_EEEC2IPS2_vEERKNS0_IT_S7_EE
FNDA:0,_ZNK9__gnu_cxx17__normal_iteratorIPKN5sqlcc10PermissionESt6vectorIS2_SaIS2_EEEdeEv
FNDA:0,_ZNK9__gnu_cxx17__normal_iteratorIPN5sqlcc10PermissionESt6vectorIS2_SaIS2_EEEdeEv
FNDA:32,_ZNK9__gnu_cxx17__normal_iteratorIPNSt7__cxx1112basic_stringIcSt11char_traitsIcESaIcEEESt6vectorIS6_SaIS6_EEEdeEv
FNDA:0,_ZN9__gnu_cxx17__normal_iteratorIPKN5sqlcc10PermissionESt6vectorIS2_SaIS2_EEEppEv
FNDA:0,_ZN9__gnu_cxx17__normal_iteratorIPN5sqlcc10PermissionESt6vectorIS2_SaIS2_EEEppEv
FNDA:0,_ZNK9__gnu_cxx17__normal_iteratorIPN5sqlcc10PermissionESt6vectorIS2_SaIS2_EEEplEl
FNDA:32,_ZNK9__gnu_cxx17__normal_iteratorIPNSt7__cxx1112basic_stringIcSt11char_traitsIcESaIcEEESt6vectorIS6_SaIS6_EEEmiEl
FNDA:0,_ZNK9__gnu_cxx17__normal_iteratorIPKN5sqlcc10PermissionESt6vectorIS2_SaIS2_EEE4baseEv
FNDA:8,_ZNK9__gnu_cxx17__normal_iteratorIPN5sqlcc10PermissionESt6vectorIS2_SaIS2_EEE4baseEv
FNDA:0,_ZNK9__gnu_cxx17__normal_iteratorIPN5sqlcc4UserESt6vectorIS2_SaIS2_EEE4baseEv
FNDA:44,_ZNK9__gnu_cxx17__normal_iteratorIPNSt7__cxx1112basic_stringIcSt11char_traitsIcESaIcEEESt6vectorIS6_SaIS6_EEE4baseEv
FNDA:0,_ZN9__gnu_cxxeqIPN5sqlcc10PermissionESt6vectorIS2_SaIS2_EEEEbRKNS_17__normal_iteratorIT_T0_EESC_
FNDA:0,_ZN9__gnu_cxxneIPKN5sqlcc10PermissionESt6vectorIS2_SaIS2_EEEEbRKNS_17__normal_iteratorIT_T0_EESD_
FNDA:0,_ZN9__gnu_cxxneIPN5sqlcc10PermissionESt6vectorIS2_SaIS2_EEEEbRKNS_17__normal_iteratorIT_T0_EESC_
FNDA:0,_ZN9__gnu_cxxmiIPKN5sqlcc10PermissionESt6vectorIS2_SaIS2_EEEENS_17__normal_iteratorIT_T0_E15difference_typeERKSB_SE_
FNDA:2,_ZN9__gnu_cxxmiIPN5sqlcc10PermissionESt6vectorIS2_SaIS2_EEEENS_17__normal_iteratorIT_T0_E15difference_typeERKSA_SD_
FNDA:0,_ZN9__gnu_cxxmiIPN5sqlcc4UserESt6vectorIS2_SaIS2_EEEENS_17__normal_iteratorIT_T0_E15difference_typeERKSA_SD_
FNDA:11,_ZN9__gnu_cxxmiIPNSt7__cxx1112basic_stringIcSt11char_traitsIcESaIcEEESt6vectorIS6_SaIS6_EEEENS_17__normal_iteratorIT_T0_E15difference_typeERKSE_SH_
FNDA:0,_ZSt12__niter_baseIPN5sqlcc10PermissionESt6vectorIS1_SaIS1_EEET_N9__gnu_cxx17__normal_iteratorIS6_T0_EE
FNF:24
FNH:8
DA:1076,90
DA:1077,90
DA:1083,0
DA:1094,0
DA:1099,32
DA:1100,32
DA:1109,0
DA:1111,0
DA:1112,0
DA:1147,0
DA:1148,0
DA:1157,32
DA:1158,32
DA:1162,52
DA:1163,52
DA:1225,0
DA:1228,0
DA:1241,0
DA:1244,0
DA:1334,13
DA:1337,13
DA:1357,0
DA:1359,0
LF:23
LH:10
end_of_record
TN:
SF:/usr/include/c++/13/bits/stl_iterator_base_funcs.h
FNF:0
FNH:0
DA:106,548
DA:151,1096
DA:152,1096
LF:3
LH:3
end_of_record
TN:
SF:/usr/include/c++/13/bits/stl_iterator_base_types.h
FNF:0
FNH:0
DA:240,550
LF:1
LH:1
end_of_record
TN:
SF:/usr/include/c++/13/bits/stl_pair.h
FNF:0
FNH:0
LF:0
LH:0
end_of_record
TN:
SF:/usr/include/c++/13/bits/stl_uninitialized.h
FN:1069,1079,_ZSt19__relocate_object_aIN5sqlcc10PermissionES1_SaIS1_EEvPT_PT0_RT1_
FN:1069,1079,_ZSt19__relocate_object_aIN5sqlcc4UserES1_SaIS1_EEvPT_PT0_RT1_
FN:1069,1079,_ZSt19__relocate_object_aINSt7__cxx1112basic_stringIcSt11char_traitsIcESaIcEEES5_SaIS5_EEvPT_PT0_RT1_
FN:1091,1108,_ZSt14__relocate_a_1IPN5sqlcc10PermissionES2_SaIS1_EET0_T_S5_S4_RT1_
FN:1091,1108,_ZSt14__relocate_a_1IPN5sqlcc4UserES2_SaIS1_EET0_T_S5_S4_RT1_
FN:1091,1108,_ZSt14__relocate_a_1IPNSt7__cxx1112basic_stringIcSt11char_traitsIcESaIcEEES6_SaIS5_EET0_T_S9_S8_RT1_
FN:1141,1150,_ZSt12__relocate_aIPN5sqlcc10PermissionES2_SaIS1_EET0_T_S5_S4_RT1_
FN:1141,1150,_ZSt12__relocate_aIPN5sqlcc4UserES2_SaIS1_EET0_T_S5_S4_RT1_
FN:1141,1150,_ZSt12__relocate_aIPNSt7__cxx1112basic_stringIcSt11char_traitsIcESaIcEEES6_SaIS5_EET0_T_S9_S8_RT1_
FNDA:0,_ZSt19__relocate_object_aIN5sqlcc10PermissionES1_SaIS1_EEvPT_PT0_RT1_
FNDA:0,_ZSt19__relocate_object_aIN5sqlcc4UserES1_SaIS1_EEvPT_PT0_RT1_
FNDA:46,_ZSt19__relocate_object_aINSt7__cxx1112basic_stringIcSt11char_traitsIcESaIcEEES5_SaIS5_EEvPT_PT0_RT1_
FNDA:4,_ZSt14__relocate_a_1IPN5sqlcc10PermissionES2_SaIS1_EET0_T_S5_S4_RT1_
FNDA:0,_ZSt14__relocate_a_1IPN5sqlcc4UserES2_SaIS1_EET0_T_S5_S4_RT1_
FNDA:22,_ZSt14__relocate_a_1IPNSt7__cxx1112basic_stringIcSt11char_traitsIcESaIcEEES6_SaIS5_EET0_T_S9_S8_RT1_
FNDA:4,_ZSt12__relocate_aIPN5sqlcc10PermissionES2_SaIS1_EET0_T_S5_S4_RT1_
FNDA:0,_ZSt12__relocate_aIPN5sqlcc4UserES2_SaIS1_EET0_T_S5_S4_RT1_
FNDA:22,_ZSt12__relocate_aIPNSt7__cxx1112basic_stringIcSt11char_traitsIcESaIcEEES6_SaIS5_EET0_T_S9_S8_RT1_
FNF:9
FNH:5
DA:1069,46
DA:1077,46
DA:1078,46
DA:1079,46
DA:1091,26
DA:1103,26
DA:1104,72
DA:1105,46
DA:1107,26
DA:1141,26
DA:1147,26
DA:1149,26
LF:12
LH:12
end_of_record
TN:
SF:/usr/include/c++/13/bits/stl_vector.h
FN:1126,1130,_ZNSt6vectorINSt7__cxx1112basic_stringIcSt11char_traitsIcESaIcEEESaIS5_EEixEm
FN:1233,1237,_ZNSt6vectorINSt7__cxx1112basic_stringIcSt11char_traitsIcESaIcEEESaIS5_EE4backEv
FN:1281,1293,_ZNSt6vectorIN5sqlcc10PermissionESaIS1_EE9push_backERKS1_
FN:1281,1293,_ZNSt6vectorIN5sqlcc4UserESaIS1_EE9push_backERKS1_
FN:1298,1299,_ZNSt6vectorINSt7__cxx1112basic_stringIcSt11char_traitsIcESaIcEEESaIS5_EE9push_backEOS5_
FN:137,143,_ZNSt12_Vector_baseIN5sqlcc10PermissionESaIS1_EE12_Vector_implC2Ev
FN:137,143,_ZNSt12_Vector_baseIN5sqlcc4UserESaIS1_EE12_Vector_implC2Ev
FN:137,143,_ZNSt12_Vector_baseINSt7__cxx1112basic_stringIcSt11char_traitsIcESaIcEEESaIS5_EE12_Vector_implC2Ev
FN:1562,1567,_ZNSt6vectorIN5sqlcc10PermissionESaIS1_EE5eraseEN9__gnu_cxx17__normal_iteratorIPKS1_S3_EES8_
FN:1896,1903,_ZNKSt6vectorIN5sqlcc10PermissionESaIS1_EE12_M_check_lenEmPKc
FN:1896,1903,_ZNKSt6vectorIN5sqlcc4UserESaIS1_EE12_M_check_lenEmPKc
FN:1896,1903,_ZNKSt6vectorINSt7__cxx1112basic_stringIcSt11char_traitsIcESaIcEEESaIS5_EE12_M_check_lenEmPKc
FN:1916,1925,_ZNSt6vectorIN5sqlcc10PermissionESaIS1_EE11_S_max_sizeERKS2_
FN:1916,1925,_ZNSt6vectorIN5sqlcc4UserESaIS1_EE11_S_max_sizeERKS2_
FN:1916,1925,_ZNSt6vectorINSt7__cxx1112basic_stringIcSt11char_traitsIcESaIcEEESaIS5_EE11_S_max_sizeERKS6_
FN:1933,1942,_ZNSt6vectorIN5sqlcc10PermissionESaIS1_EE15_M_erase_at_endEPS1_
FN:301,302,_ZNSt12_Vector_baseIN5sqlcc10PermissionESaIS1_EE19_M_get_Tp_allocatorEv
FN:301,302,_ZNSt12_Vector_baseIN5sqlcc4UserESaIS1_EE19_M_get_Tp_allocatorEv
FN:301,302,_ZNSt12_Vector_baseINSt7__cxx1112basic_stringIcSt11char_traitsIcESaIcEEESaIS5_EE19_M_get_Tp_allocatorEv
FN:306,307,_ZNKSt12_Vector_baseIN5sqlcc10PermissionESaIS1_EE19_M_get_Tp_allocatorEv
FN:306,307,_ZNKSt12_Vector_baseIN5sqlcc4UserESaIS1_EE19_M_get_Tp_allocatorEv
FN:306,307,_ZNKSt12_Vector_baseINSt7__cxx1112basic_stringIcSt11char_traitsIcESaIcEEESaIS5_EE19_M_get_Tp_allocatorEv
FN:315,315,_ZNSt12_Vector_baseIN5sqlcc10PermissionESaIS1_EEC2Ev
FN:315,315,_ZNSt12_Vector_baseIN5sqlcc4UserESaIS1_EEC2Ev
FN:315,315,_ZNSt12_Vector_baseINSt7__cxx1112basic_stringIcSt11char_traitsIcESaIcEEESaIS5_EEC2Ev
FN:367,371,_ZNSt12_Vector_baseIN5sqlcc10PermissionESaIS1_EED2Ev
FN:367,371,_ZNSt12_Vector_baseIN5sqlcc4UserESaIS1_EED2Ev
FN:367,371,_ZNSt12_Vector_baseINSt7__cxx1112basic_stringIcSt11char_traitsIcESaIcEEESaIS5_EED2Ev
FN:378,382,_ZNSt12_Vector_baseIN5sqlcc10PermissionESaIS1_EE11_M_allocateEm
FN:378,382,_ZNSt12_Vector_baseIN5sqlcc4UserESaIS1_EE11_M_allocateEm
FN:378,382,_ZNSt12_Vector_baseINSt7__cxx1112basic_stringIcSt11char_traitsIcESaIcEEESaIS5_EE11_M_allocateEm
FN:386,391,_ZNSt12_Vector_baseIN5sqlcc10PermissionESaIS1_EE13_M_deallocateEPS1_m
FN:386,391,_ZNSt12_Vector_baseIN5sqlcc4UserESaIS1_EE13_M_deallocateEPS1_m
FN:386,391,_ZNSt12_Vector_baseINSt7__cxx1112basic_stringIcSt11char_traitsIcESaIcEEESaIS5_EE13_M_deallocateEPS5_m
FN:504,514,_ZNSt6vectorIN5sqlcc10PermissionESaIS1_EE11_S_relocateEPS1_S4_S4_RS2_
FN:504,514,_ZNSt6vectorIN5sqlcc4UserESaIS1_EE11_S_relocateEPS1_S4_S4_RS2_
FN:504,514,_ZNSt6vectorINSt7__cxx1112basic_stringIcSt11char_traitsIcESaIcEEESaIS5_EE11_S_relocateEPS5_S8_S8_RS6_
FN:531,531,_ZNSt6vectorIN5sqlcc10PermissionESaIS1_EEC2Ev
FN:531,531,_ZNSt6vectorIN5sqlcc4UserESaIS1_EEC2Ev
FN:531,531,_ZNSt6vectorINSt7__cxx1112basic_stringIcSt11char_traitsIcESaIcEEESaIS5_EEC2Ev
FN:733,738,_ZNSt6vectorIN5sqlcc10PermissionESaIS1_EED2Ev
FN:733,738,_ZNSt6vectorIN5sqlcc4UserESaIS1_EED2Ev
FN:733,738,_ZNSt6vectorINSt7__cxx1112basic_stringIcSt11char_traitsIcESaIcEEESaIS5_EED2Ev
FN:873,874,_ZNSt6vectorIN5sqlcc10PermissionESaIS1_EE5beginEv
FN:873,874,_ZNSt6vectorIN5sqlcc4UserESaIS1_EE5beginEv
FN:873,874,_ZNSt6vectorINSt7__cxx1112basic_stringIcSt11char_traitsIcESaIcEEESaIS5_EE5beginEv
FN:883,884,_ZNKSt6vectorIN5sqlcc10PermissionESaIS1_EE5beginEv
FN:893,894,_ZNSt6vectorIN5sqlcc10PermissionESaIS1_EE3endEv
FN:893,894,_ZNSt6vectorIN5sqlcc4UserESaIS1_EE3endEv
FN:893,894,_ZNSt6vectorINSt7__cxx1112basic_stringIcSt11char_traitsIcESaIcEEESaIS5_EE3endEv
FN:903,904,_ZNKSt6vectorIN5sqlcc10PermissionESaIS1_EE3endEv
FN:954,955,_ZNKSt6vectorIN5sqlcc10PermissionESaIS1_EE6cbeginEv
FN:99,101,_ZNSt12_Vector_baseIN5sqlcc10PermissionESaIS1_EE17_Vector_impl_dataC2Ev
FN:99,101,_ZNSt12_Vector_baseIN5sqlcc4UserESaIS1_EE17_Vector_impl_dataC2Ev
FN:99,101,_ZNSt12_Vector_baseINSt7__cxx1112basic_stringIcSt11char_traitsIcESaIcEEESaIS5_EE17_Vector_impl_dataC2Ev
FN:992,993,_ZNKSt6vectorIN5sqlcc10PermissionESaIS1_EE4sizeEv
FN:992,993,_ZNKSt6vectorIN5sqlcc4UserESaIS1_EE4sizeEv
FN:992,993,_ZNKSt6vectorINSt7__cxx1112basic_stringIcSt11char_traitsIcESaIcEEESaIS5_EE4sizeEv
FN:998,999,_ZNKSt6vectorIN5sqlcc10PermissionESaIS1_EE8max_sizeEv
FN:998,999,_ZNKSt6vectorIN5sqlcc4UserESaIS1_EE8max_sizeEv
FN:998,999,_ZNKSt6vectorINSt7__cxx1112basic_stringIcSt11char_traitsIcESaIcEEESaIS5_EE8max_sizeEv
FNDA:82,_ZNSt6vectorINSt7__cxx1112basic_stringIcSt11char_traitsIcESaIcEEESaIS5_EEixEm
FNDA:32,_ZNSt6vectorINSt7__cxx1112basic_stringIcSt11char_traitsIcESaIcEEESaIS5_EE4backEv
FNDA:2,_ZNSt6vectorIN5sqlcc10PermissionESaIS1_EE9push_backERKS1_
FNDA:0,_ZNSt6vectorIN5sqlcc4UserESaIS1_EE9push_backERKS1_
FNDA:32,_ZNSt6vectorINSt7__cxx1112basic_stringIcSt11char_traitsIcESaIcEEESaIS5_EE9push_backEOS5_
FNDA:2,_ZNSt12_Vector_baseIN5sqlcc10PermissionESaIS1_EE12_Vector_implC2Ev
FNDA:0,_ZNSt12_Vector_baseIN5sqlcc4UserESaIS1_EE12_Vector_implC2Ev
FNDA:2,_ZNSt12_Vector_baseINSt7__cxx1112basic_stringIcSt11char_traitsIcESaIcEEESaIS5_EE12_Vector_implC2Ev
FNDA:0,_ZNSt6vectorIN5sqlcc10PermissionESaIS1_EE5eraseEN9__gnu_cxx17__normal_iteratorIPKS1_S3_EES8_
FNDA:2,_ZNKSt6vectorIN5sqlcc10PermissionESaIS1_EE12_M_check_lenEmPKc
FNDA:0,_ZNKSt6vectorIN5sqlcc4UserESaIS1_EE12_M_check_lenEmPKc
FNDA:11,_ZNKSt6vectorINSt7__cxx1112basic_stringIcSt11char_traitsIcESaIcEEESaIS5_EE12_M_check_lenEmPKc
FNDA:4,_ZNSt6vectorIN5sqlcc10PermissionESaIS1_EE11_S_max_sizeERKS2_
FNDA:0,_ZNSt6vectorIN5sqlcc4UserESaIS1_EE11_S_max_sizeERKS2_
FNDA:22,_ZNSt6vectorINSt7__cxx1112basic_stringIcSt11char_traitsIcESaIcEEESaIS5_EE11_S_max_sizeERKS6_
FNDA:0,_ZNSt6vectorIN5sqlcc10PermissionESaIS1_EE15_M_erase_at_endEPS1_
FNDA:6,_ZNSt12_Vector_baseIN5sqlcc10PermissionESaIS1_EE19_M_get_Tp_allocatorEv
FNDA:0,_ZNSt12_Vector_baseIN5sqlcc4UserESaIS1_EE19_M_get_Tp_allocatorEv
FNDA:24,_ZNSt12_Vector_baseINSt7__cxx1112basic_stringIcSt11char_traitsIcESaIcEEESaIS5_EE19_M_get_Tp_allocatorEv
FNDA:4,_ZNKSt12_Vector_baseIN5sqlcc10PermissionESaIS1_EE19_M_get_Tp_allocatorEv
FNDA:0,_ZNKSt12_Vector_baseIN5sqlcc4UserESaIS1_EE19_M_get_Tp_allocatorEv
FNDA:22,_ZNKSt12_Vector_baseINSt7__cxx1112basic_stringIcSt11char_traitsIcESaIcEEESaIS5_EE19_M_get_Tp_allocatorEv
FNDA:2,_ZNSt12_Vector_baseIN5sqlcc10PermissionESaIS1_EEC2Ev
FNDA:0,_ZNSt12_Vector_baseIN5sqlcc4UserESaIS1_EEC2Ev
FNDA:2,_ZNSt12_Vector_baseINSt7__cxx1112basic_stringIcSt11char_traitsIcESaIcEEESaIS5_EEC2Ev
FNDA:2,_ZNSt12_Vector_baseIN5sqlcc10PermissionESaIS1_EED2Ev
FNDA:0,_ZNSt12_Vector_baseIN5sqlcc4UserESaIS1_EED2Ev
FNDA:2,_ZNSt12_Vector_baseINSt7__cxx1112basic_stringIcSt11char_traitsIcESaIcEEESaIS5_EED2Ev
FNDA:2,_ZNSt12_Vector_baseIN5sqlcc10PermissionESaIS1_EE11_M_allocateEm
FNDA:0,_ZNSt12_Vector_baseIN5sqlcc4UserESaIS1_EE11_M_allocateEm
FNDA:11,_ZNSt12_Vector_baseINSt7__cxx1112basic_stringIcSt11char_traitsIcESaIcEEESaIS5_EE11_M_allocateEm
FNDA:4,_ZNSt12_Vector_baseIN5sqlcc10PermissionESaIS1_EE13_M_deallocateEPS1_m
FNDA:0,_ZNSt12_Vector_baseIN5sqlcc4UserESaIS1_EE13_M_deallocateEPS1_m
FNDA:13,_ZNSt12_Vector_baseINSt7__cxx1112basic_stringIcSt11char_traitsIcESaIcEEESaIS5_EE13_M_deallocateEPS5_m
FNDA:4,_ZNSt6vectorIN5sqlcc10PermissionESaIS1_EE11_S_relocateEPS1_S4_S4_RS2_
FNDA:0,_ZNSt6vectorIN5sqlcc4UserESaIS1_EE11_S_relocateEPS1_S4_S4_RS2_
FNDA:22,_ZNSt6vectorINSt7__cxx1112basic_stringIcSt11char_traitsIcESaIcEEESaIS5_EE11_S_relocateEPS5_S8_S8_RS6_
FNDA:2,_ZNSt6vectorIN5sqlcc10PermissionESaIS1_EEC2Ev
FNDA:0,_ZNSt6vectorIN5sqlcc4UserESaIS1_EEC2Ev
FNDA:2,_ZNSt6vectorINSt7__cxx1112basic_stringIcSt11char_traitsIcESaIcEEESaIS5_EEC2Ev
FNDA:2,_ZNSt6vectorIN5sqlcc10PermissionESaIS1_EED2Ev
FNDA:0,_ZNSt6vectorIN5sqlcc4UserESaIS1_EED2Ev
FNDA:2,_ZNSt6vectorINSt7__cxx1112basic_stringIcSt11char_traitsIcESaIcEEESaIS5_EED2Ev
FNDA:2,_ZNSt6vectorIN5sqlcc10PermissionESaIS1_EE5beginEv
FNDA:0,_ZNSt6vectorIN5sqlcc4UserESaIS1_EE5beginEv
FNDA:11,_ZNSt6vectorINSt7__cxx1112basic_stringIcSt11char_traitsIcESaIcEEESaIS5_EE5beginEv
FNDA:0,_ZNKSt6vectorIN5sqlcc10PermissionESaIS1_EE5beginEv
FNDA:2,_ZNSt6vectorIN5sqlcc10PermissionESaIS1_EE3endEv
FNDA:0,_ZNSt6vectorIN5sqlcc4UserESaIS1_EE3endEv
FNDA:43,_ZNSt6vectorINSt7__cxx1112basic_stringIcSt11char_traitsIcESaIcEEESaIS5_EE3endEv
FNDA:0,_ZNKSt6vectorIN5sqlcc10PermissionESaIS1_EE3endEv
FNDA:0,_ZNKSt6vectorIN5sqlcc10PermissionESaIS1_EE6cbeginEv
FNDA:2,_ZNSt12_Vector_baseIN5sqlcc10PermissionESaIS1_EE17_Vector_impl_dataC2Ev
FNDA:0,_ZNSt12_Vector_baseIN5sqlcc4UserESaIS1_EE17_Vector_impl_dataC2Ev
FNDA:2,_ZNSt12_Vector_baseINSt7__cxx1112basic_stringIcSt11char_traitsIcESaIcEEESaIS5_EE17_Vector_impl_dataC2Ev
FNDA:8,_ZNKSt6vectorIN5sqlcc10PermissionESaIS1_EE4sizeEv
FNDA:0,_ZNKSt6vectorIN5sqlcc4UserESaIS1_EE4sizeEv
FNDA:80,_ZNKSt6vectorINSt7__cxx1112basic_stringIcSt11char_traitsIcESaIcEEESaIS5_EE4sizeEv
FNDA:4,_ZNKSt6vectorIN5sqlcc10PermissionESaIS1_EE8max_sizeEv
FNDA:0,_ZNKSt6vectorIN5sqlcc4UserESaIS1_EE8max_sizeEv
FNDA:22,_ZNKSt6vectorINSt7__cxx1112basic_stringIcSt11char_traitsIcESaIcEEESaIS5_EE8max_sizeEv
FNF:61
FNH:38
DA:99,4
DA:100,4
DA:101,4
DA:137,4
DA:142,4
DA:143,4
DA:301,30
DA:302,30
DA:306,26
DA:307,26
DA:315,4
DA:367,4
DA:369,4
DA:370,4
DA:371,4
DA:378,13
DA:381,26
DA:386,17
DA:389,17
DA:390,13
DA:391,17
DA:504,26
DA:509,26
DA:531,4
DA:733,4
DA:735,4
DA:736,4
DA:738,4
DA:873,13
DA:874,13
DA:883,0
DA:884,0
DA:893,45
DA:894,45
DA:903,0
DA:904,0
DA:954,0
DA:955,0
DA:992,88
DA:993,88
DA:998,26
DA:999,26
DA:1126,82
DA:1129,82
DA:1233,32
DA:1236,32
DA:1281,2
DA:1283,2
DA:1286,0
DA:1288,0
DA:1292,2
DA:1293,2
DA:1298,32
DA:1299,32
DA:1562,0
DA:1564,0
DA:1565,0
DA:1566,0
DA:1896,13
DA:1898,13
DA:1899,0
DA:1901,13
DA:1902,13
DA:1916,26
DA:1921,26
DA:1923,26
DA:1924,26
DA:1933,0
DA:1935,0
DA:1937,0
DA:1938,0
DA:1939,0
DA:1942,0
LF:73
LH:54
end_of_record
TN:
SF:/usr/include/c++/13/bits/streambuf_iterator.h
FN:118,119,_ZNSt19istreambuf_iteratorIcSt11char_traitsIcEEC2Ev
FN:133,134,_ZNSt19istreambuf_iteratorIcSt11char_traitsIcEEC2ERSi
FN:150,162,_ZNKSt19istreambuf_iteratorIcSt11char_traitsIcEEdeEv
FN:166,176,_ZNSt19istreambuf_iteratorIcSt11char_traitsIcEEppEv
FN:199,200,_ZNKSt19istreambuf_iteratorIcSt11char_traitsIcEE5equalERKS2_
FN:204,210,_ZNKSt19istreambuf_iteratorIcSt11char_traitsIcEE6_M_getEv
FN:213,214,_ZNKSt19istreambuf_iteratorIcSt11char_traitsIcEE9_M_at_eofEv
FN:217,221,_ZNSt19istreambuf_iteratorIcSt11char_traitsIcEE9_S_is_eofEi
FN:242,244,_ZStneIcSt11char_traitsIcEEbRKSt19istreambuf_iteratorIT_T0_ES7_
FNDA:2,_ZNSt19istreambuf_iteratorIcSt11char_traitsIcEEC2Ev
FNDA:2,_ZNSt19istreambuf_iteratorIcSt11char_traitsIcEEC2ERSi
FNDA:2965,_ZNKSt19istreambuf_iteratorIcSt11char_traitsIcEEdeEv
FNDA:2965,_ZNSt19istreambuf_iteratorIcSt11char_traitsIcEEppEv
FNDA:2969,_ZNKSt19istreambuf_iteratorIcSt11char_traitsIcEE5equalERKS2_
FNDA:8903,_ZNKSt19istreambuf_iteratorIcSt11char_traitsIcEE6_M_getEv
FNDA:5938,_ZNKSt19istreambuf_iteratorIcSt11char_traitsIcEE9_M_at_eofEv
FNDA:17806,_ZNSt19istreambuf_iteratorIcSt11char_traitsIcEE9_S_is_eofEi
FNDA:2969,_ZStneIcSt11char_traitsIcEEbRKSt19istreambuf_iteratorIT_T0_ES7_
FNF:9
FNH:9
DA:118,2
DA:119,2
DA:133,2
DA:134,2
DA:150,2965
DA:152,2965
DA:161,5930
DA:166,2965
DA:173,2965
DA:174,2965
DA:175,2965
DA:199,2969
DA:200,2969
DA:204,8903
DA:206,8903
DA:207,8903
DA:208,2
DA:209,8903
DA:213,5938
DA:214,5938
DA:217,17806
DA:219,17806
DA:220,17806
DA:242,2969
DA:244,2969
LF:25
LH:25
end_of_record
TN:
SF:/usr/include/c++/13/bits/unordered_map.h
FN:148,148,_ZNSt13unordered_mapINSt7__cxx1112basic_stringIcSt11char_traitsIcESaIcEEEN5sqlcc4UserESt4hashIS5_ESt8equal_toIS5_ESaISt4pairIKS5_S7_EEEC2Ev
FN:341,342,_ZNKSt13unordered_mapINSt7__cxx1112basic_stringIcSt11char_traitsIcESaIcEEEN5sqlcc4UserESt4hashIS5_ESt8equal_toIS5_ESaISt4pairIKS5_S7_EEE5beginEv
FN:354,355,_ZNSt13unordered_mapINSt7__cxx1112basic_stringIcSt11char_traitsIcESaIcEEEN5sqlcc4UserESt4hashIS5_ESt8equal_toIS5_ESaISt4pairIKS5_S7_EEE3endEv
FN:363,364,_ZNKSt13unordered_mapINSt7__cxx1112basic_stringIcSt11char_traitsIcESaIcEEEN5sqlcc4UserESt4hashIS5_ESt8equal_toIS5_ESaISt4pairIKS5_S7_EEE3endEv
FN:769,770,_ZNSt13unordered_mapINSt7__cxx1112basic_stringIcSt11char_traitsIcESaIcEEEN5sqlcc4UserESt4hashIS5_ESt8equal_toIS5_ESaISt4pairIKS5_S7_EEE5eraseERSD_
FN:875,876,_ZNSt13unordered_mapINSt7__cxx1112basic_stringIcSt11char_traitsIcESaIcEEEN5sqlcc4UserESt4hashIS5_ESt8equal_toIS5_ESaISt4pairIKS5_S7_EEE4findERSD_
FN:986,987,_ZNSt13unordered_mapINSt7__cxx1112basic_stringIcSt11char_traitsIcESaIcEEEN5sqlcc4UserESt4hashIS5_ESt8equal_toIS5_ESaISt4pairIKS5_S7_EEEixERSD_
FNDA:2,_ZNSt13unordered_mapINSt7__cxx1112basic_stringIcSt11char_traitsIcESaIcEEEN5sqlcc4UserESt4hashIS5_ESt8equal_toIS5_ESaISt4pairIKS5_S7_EEEC2Ev
FNDA:0,_ZNKSt13unordered_mapINSt7__cxx1112basic_stringIcSt11char_traitsIcESaIcEEEN5sqlcc4UserESt4hashIS5_ESt8equal_toIS5_ESaISt4pairIKS5_S7_EEE5beginEv
FNDA:7,_ZNSt13unordered_mapINSt7__cxx1112basic_stringIcSt11char_traitsIcESaIcEEEN5sqlcc4UserESt4hashIS5_ESt8equal_toIS5_ESaISt4pairIKS5_S7_EEE3endEv
FNDA:0,_ZNKSt13unordered_mapINSt7__cxx1112basic_stringIcSt11char_traitsIcESaIcEEEN5sqlcc4UserESt4hashIS5_ESt8equal_toIS5_ESaISt4pairIKS5_S7_EEE3endEv
FNDA:0,_ZNSt13unordered_mapINSt7__cxx1112basic_stringIcSt11char_traitsIcESaIcEEEN5sqlcc4UserESt4hashIS5_ESt8equal_toIS5_ESaISt4pairIKS5_S7_EEE5eraseERSD_
FNDA:7,_ZNSt13unordered_mapINSt7__cxx1112basic_stringIcSt11char_traitsIcESaIcEEEN5sqlcc4UserESt4hashIS5_ESt8equal_toIS5_ESaISt4pairIKS5_S7_EEE4findERSD_
FNDA:2,_ZNSt13unordered_mapINSt7__cxx1112basic_stringIcSt11char_traitsIcESaIcEEEN5sqlcc4UserESt4hashIS5_ESt8equal_toIS5_ESaISt4pairIKS5_S7_EEEixERSD_
FNF:7
FNH:4
DA:148,2
DA:341,0
DA:342,0
DA:354,7
DA:355,7
DA:363,0
DA:364,0
DA:769,0
DA:770,0
DA:875,7
DA:876,7
DA:986,2
DA:987,2
LF:13
LH:7
end_of_record
TN:
SF:/usr/include/c++/13/bits/vector.tcc
FN:111,127,_ZNSt6vectorINSt7__cxx1112basic_stringIcSt11char_traitsIcESaIcEEESaIS5_EE12emplace_backIJS5_EEERS5_DpOT_
FN:195,205,_ZNSt6vectorIN5sqlcc10PermissionESaIS1_EE8_M_eraseEN9__gnu_cxx17__normal_iteratorIPS1_S3_EES7_
FN:445,524,_ZNSt6vectorIN5sqlcc10PermissionESaIS1_EE17_M_realloc_insertIJRKS1_EEEvN9__gnu_cxx17__normal_iteratorIPS1_S3_EEDpOT_
FN:445,524,_ZNSt6vectorIN5sqlcc4UserESaIS1_EE17_M_realloc_insertIJRKS1_EEEvN9__gnu_cxx17__normal_iteratorIPS1_S3_EEDpOT_
FN:445,524,_ZNSt6vectorINSt7__cxx1112basic_stringIcSt11char_traitsIcESaIcEEESaIS5_EE17_M_realloc_insertIJS5_EEEvN9__gnu_cxx17__normal_iteratorIPS5_S7_EEDpOT_
FNDA:32,_ZNSt6vectorINSt7__cxx1112basic_stringIcSt11char_traitsIcESaIcEEESaIS5_EE12emplace_backIJS5_EEERS5_DpOT_
FNDA:0,_ZNSt6vectorIN5sqlcc10PermissionESaIS1_EE8_M_eraseEN9__gnu_cxx17__normal_iteratorIPS1_S3_EES7_
FNDA:2,_ZNSt6vectorIN5sqlcc10PermissionESaIS1_EE17_M_realloc_insertIJRKS1_EEEvN9__gnu_cxx17__normal_iteratorIPS1_S3_EEDpOT_
FNDA:0,_ZNSt6vectorIN5sqlcc4UserESaIS1_EE17_M_realloc_insertIJRKS1_EEEvN9__gnu_cxx17__normal_iteratorIPS1_S3_EEDpOT_
FNDA:11,_ZNSt6vectorINSt7__cxx1112basic_stringIcSt11char_traitsIcESaIcEEESaIS5_EE17_M_realloc_insertIJS5_EEEvN9__gnu_cxx17__normal_iteratorIPS5_S7_EEDpOT_
FNF:5
FNH:3
DA:111,32
DA:114,32
DA:117,21
DA:119,21
DA:123,11
DA:125,32
DA:195,0
DA:198,0
DA:200,0
DA:201,0
DA:202,0
DA:204,0
DA:445,13
DA:455,13
DA:456,13
DA:457,13
DA:458,13
DA:459,13
DA:460,13
DA:468,13
DA:469,13
DA:475,13
DA:480,13
DA:481,13
DA:483,13
DA:485,13
DA:486,13
DA:504,0
DA:506,0
DA:507,0
DA:508,0
DA:510,0
DA:511,0
DA:512,0
DA:519,13
DA:520,13
DA:521,13
DA:522,13
DA:523,13
DA:524,13
LF:40
LH:27
end_of_record
TN:
SF:/usr/include/c++/13/ext/aligned_buffer.h
FN:104,107,_ZN9__gnu_cxx16__aligned_bufferIN5sqlcc11UserManagerEE7_M_addrEv
FN:104,107,_ZN9__gnu_cxx16__aligned_bufferISt4pairIKNSt7__cxx1112basic_stringIcSt11char_traitsIcESaIcEEEN5sqlcc4UserEEE7_M_addrEv
FN:110,113,_ZNK9__gnu_cxx16__aligned_bufferISt4pairIKNSt7__cxx1112basic_stringIcSt11char_traitsIcESaIcEEEN5sqlcc4UserEEE7_M_addrEv
FN:116,117,_ZN9__gnu_cxx16__aligned_bufferIN5sqlcc11UserManagerEE6_M_ptrEv
FN:116,117,_ZN9__gnu_cxx16__aligned_bufferISt4pairIKNSt7__cxx1112basic_stringIcSt11char_traitsIcESaIcEEEN5sqlcc4UserEEE6_M_ptrEv
FN:120,121,_ZNK9__gnu_cxx16__aligned_bufferISt4pairIKNSt7__cxx1112basic_stringIcSt11char_traitsIcESaIcEEEN5sqlcc4UserEEE6_M_ptrEv
FNDA:6,_ZN9__gnu_cxx16__aligned_bufferIN5sqlcc11UserManagerEE7_M_addrEv
FNDA:6,_ZN9__gnu_cxx16__aligned_bufferISt4pairIKNSt7__cxx1112basic_stringIcSt11char_traitsIcESaIcEEEN5sqlcc4UserEEE7_M_addrEv
FNDA:7,_ZNK9__gnu_cxx16__aligned_bufferISt4pairIKNSt7__cxx1112basic_stringIcSt11char_traitsIcESaIcEEEN5sqlcc4UserEEE7_M_addrEv
FNDA:6,_ZN9__gnu_cxx16__aligned_bufferIN5sqlcc11UserManagerEE6_M_ptrEv
FNDA:6,_ZN9__gnu_cxx16__aligned_bufferISt4pairIKNSt7__cxx1112basic_stringIcSt11char_traitsIcESaIcEEEN5sqlcc4UserEEE6_M_ptrEv
FNDA:7,_ZNK9__gnu_cxx16__aligned_bufferISt4pairIKNSt7__cxx1112basic_stringIcSt11char_traitsIcESaIcEEEN5sqlcc4UserEEE6_M_ptrEv
FNF:6
FNH:6
DA:104,12
DA:106,12
DA:110,7
DA:112,7
DA:116,12
DA:117,12
DA:120,7
DA:121,7
LF:8
LH:8
end_of_record
TN:
SF:/usr/include/c++/13/ext/alloc_traits.h
FNF:0
FNH:0
DA:98,11
LF:1
LH:1
end_of_record
TN:
SF:/usr/include/c++/13/ext/atomicity.h
FNF:0
FNH:0
DA:52,0
DA:66,0
DA:84,0
DA:85,0
DA:86,0
DA:98,0
DA:99,0
DA:101,0
LF:8
LH:0
end_of_record
TN:
SF:/usr/include/c++/13/new
FN:174,175,_ZnwmPv
FN:180,180,_ZdlPvS_
FNDA:88,_ZnwmPv
FNDA:0,_ZdlPvS_
FNF:2
FNH:1
DA:174,88
DA:175,88
DA:180,0
LF:3
LH:2
end_of_record
TN:
SF:/usr/include/c++/13/tuple
FN:1787,1788,_ZSt12__get_helperILm0ERKNSt7__cxx1112basic_stringIcSt11char_traitsIcESaIcEEEJEERT0_RSt11_Tuple_implIXT_EJS8_DpT1_EE
FN:1803,1804,_ZSt3getILm0EJRKNSt7__cxx1112basic_stringIcSt11char_traitsIcESaIcEEEEERNSt13tuple_elementIXT_ESt5tupleIJDpT0_EEE4typeERSC_
FN:193,194,_ZNSt10_Head_baseILm0ERKNSt7__cxx1112basic_stringIcSt11char_traitsIcESaIcEEELb0EEC2ES7_
FN:2252,2258,_ZNSt4pairIKNSt7__cxx1112basic_stringIcSt11char_traitsIcESaIcEEEN5sqlcc4UserEEC2IJRS6_EJEEESt21piecewise_construct_tSt5tupleIJDpT_EESD_IJDpT0_EE
FN:2264,2269,_ZNSt4pairIKNSt7__cxx1112basic_stringIcSt11char_traitsIcESaIcEEEN5sqlcc4UserEEC2IJRS6_EJLm0EEJEJEEERSt5tupleIJDpT_EERSC_IJDpT1_EESt12_Index_tupleIJXspT0_EEESL_IJXspT2_EEE
FN:234,234,_ZNSt10_Head_baseILm0ERKNSt7__cxx1112basic_stringIcSt11char_traitsIcESaIcEEELb0EE7_M_headERS8_
FN:497,497,_ZNSt11_Tuple_implILm0EJRKNSt7__cxx1112basic_stringIcSt11char_traitsIcESaIcEEEEE7_M_headERS8_
FN:507,509,_ZNSt11_Tuple_implILm0EJRKNSt7__cxx1112basic_stringIcSt11char_traitsIcESaIcEEEEEC2ES7_
FN:527,530,_ZNSt11_Tuple_implILm0EJRKNSt7__cxx1112basic_stringIcSt11char_traitsIcESaIcEEEEEC2EOS8_
FN:874,876,_ZNSt5tupleIJRKNSt7__cxx1112basic_stringIcSt11char_traitsIcESaIcEEEEEC2ILb1ELb1EEES7_
FN:903,903,_ZNSt5tupleIJRKNSt7__cxx1112basic_stringIcSt11char_traitsIcESaIcEEEEEC2EOS8_
FNDA:2,_ZSt12__get_helperILm0ERKNSt7__cxx1112basic_stringIcSt11char_traitsIcESaIcEEEJEERT0_RSt11_Tuple_implIXT_EJS8_DpT1_EE
FNDA:2,_ZSt3getILm0EJRKNSt7__cxx1112basic_stringIcSt11char_traitsIcESaIcEEEEERNSt13tuple_elementIXT_ESt5tupleIJDpT0_EEE4typeERSC_
FNDA:2,_ZNSt10_Head_baseILm0ERKNSt7__cxx1112basic_stringIcSt11char_traitsIcESaIcEEELb0EEC2ES7_
FNDA:2,_ZNSt4pairIKNSt7__cxx1112basic_stringIcSt11char_traitsIcESaIcEEEN5sqlcc4UserEEC2IJRS6_EJEEESt21piecewise_construct_tSt5tupleIJDpT_EESD_IJDpT0_EE
FNDA:2,_ZNSt4pairIKNSt7__cxx1112basic_stringIcSt11char_traitsIcESaIcEEEN5sqlcc4UserEEC2IJRS6_EJLm0EEJEJEEERSt5tupleIJDpT_EERSC_IJDpT1_EESt12_Index_tupleIJXspT0_EEESL_IJXspT2_EEE
FNDA:2,_ZNSt10_Head_baseILm0ERKNSt7__cxx1112basic_stringIcSt11char_traitsIcESaIcEEELb0EE7_M_headERS8_
FNDA:2,_ZNSt11_Tuple_implILm0EJRKNSt7__cxx1112basic_stringIcSt11char_traitsIcESaIcEEEEE7_M_headERS8_
FNDA:2,_ZNSt11_Tuple_implILm0EJRKNSt7__cxx1112basic_stringIcSt11char_traitsIcESaIcEEEEEC2ES7_
FNDA:2,_ZNSt11_Tuple_implILm0EJRKNSt7__cxx1112basic_stringIcSt11char_traitsIcESaIcEEEEEC2EOS8_
FNDA:2,_ZNSt5tupleIJRKNSt7__cxx1112basic_stringIcSt11char_traitsIcESaIcEEEEEC2ILb1ELb1EEES7_
FNDA:2,_ZNSt5tupleIJRKNSt7__cxx1112basic_stringIcSt11char_traitsIcESaIcEEEEEC2EOS8_
FNF:11
FNH:11
DA:193,2
DA:194,2
DA:234,2
DA:497,2
DA:507,2
DA:508,2
DA:509,2
DA:527,2
DA:529,2
DA:530,2
DA:874,2
DA:876,2
DA:903,2
DA:1787,2
DA:1788,2
DA:1803,2
DA:1804,2
DA:2252,2
DA:2257,2
DA:2258,2
DA:2264,2
DA:2267,2
DA:2268,2
DA:2269,2
LF:24
LH:24
end_of_record
TN:
SF:/usr/include/c++/13/typeinfo
FN:103,104,_ZNKSt9type_info4nameEv
FN:193,210,_ZNKSt9type_infoeqERKS_
FNDA:0,_ZNKSt9type_info4nameEv
FNDA:0,_ZNKSt9type_infoeqERKS_
FNF:2
FNH:0
DA:103,0
DA:104,0
DA:193,0
DA:195,0
DA:196,0
DA:198,0
DA:199,0
DA:206,0
LF:8
LH:0
end_of_record
TN:
SF:/usr/include/x86_64-linux-gnu/c++/13/bits/c++config.h
FN:540,551,_ZSt23__is_constant_evaluatedv
FNDA:637,_ZSt23__is_constant_evaluatedv
FNF:1
FNH:1
DA:540,637
DA:547,637
LF:2
LH:2
end_of_record
TN:
SF:/usr/include/x86_64-linux-gnu/c++/13/bits/gthr-default.h
FN:300,303,_ZL18__gthread_active_pv
FN:746,752,_ZL20__gthread_mutex_lockP15pthread_mutex_t
FN:776,782,_ZL22__gthread_mutex_unlockP15pthread_mutex_t
FNDA:14,_ZL18__gthread_active_pv
FNDA:7,_ZL20__gthread_mutex_lockP15pthread_mutex_t
FNDA:7,_ZL22__gthread_mutex_unlockP15pthread_mutex_t
FNF:3
FNH:3
DA:300,14
DA:302,14
DA:746,7
DA:748,7
DA:749,7
DA:751,0
DA:776,7
DA:778,7
DA:779,7
DA:781,0
LF:10
LH:8
end_of_record
