TN:
SF:/home/liying/sqlcc_qoder/include/core/system_database.h
FNF:0
FNH:0
LF:0
LH:0
end_of_record
TN:
SF:/home/liying/sqlcc_qoder/include/network/encryption.h
FN:45,45,_ZN5sqlcc7network13EncryptionKey6GetKeyEv
FN:46,46,_ZN5sqlcc7network13EncryptionKey5GetIVEv
FNDA:72,_ZN5sqlcc7network13EncryptionKey6GetKeyEv
FNDA:36,_ZN5sqlcc7network13EncryptionKey5GetIVEv
FNF:2
FNH:2
DA:45,72
DA:46,36
LF:2
LH:2
end_of_record
TN:
SF:/home/liying/sqlcc_qoder/include/network/network.h
FN:226,227,_ZN5sqlcc7network17KeyRotationPolicyC2Em
FN:228,228,_ZNK5sqlcc7network17KeyRotationPolicy12ShouldRotateEm
FNDA:1,_ZN5sqlcc7network17KeyRotationPolicyC2Em
FNDA:3,_ZNK5sqlcc7network17KeyRotationPolicy12ShouldRotateEm
FNF:2
FNH:2
DA:226,1
DA:227,1
DA:228,3
LF:3
LH:3
end_of_record
TN:
SF:/home/liying/sqlcc_qoder/include/sql_parser/ast_node.h
FN:17,17,_ZN5sqlcc10sql_parser4NodeD0Ev
FN:17,17,_ZN5sqlcc10sql_parser4NodeD2Ev
FNDA:0,_ZN5sqlcc10sql_parser4NodeD0Ev
FNDA:13,_ZN5sqlcc10sql_parser4NodeD2Ev
FNF:2
FNH:1
DA:17,13
LF:1
LH:1
end_of_record
TN:
SF:/home/liying/sqlcc_qoder/include/sql_parser/ast_nodes.h
FN:153,155,_ZN5sqlcc10sql_parser15CreateStatement6acceptERNS0_11NodeVisitorE
FN:199,201,_ZN5sqlcc10sql_parser15SelectStatement6acceptERNS0_11NodeVisitorE
FN:234,236,_ZN5sqlcc10sql_parser15InsertStatement6acceptERNS0_11NodeVisitorE
FN:260,262,_ZN5sqlcc10sql_parser15UpdateStatement6acceptERNS0_11NodeVisitorE
FN:283,285,_ZN5sqlcc10sql_parser15DeleteStatement6acceptERNS0_11NodeVisitorE
FN:315,317,_ZN5sqlcc10sql_parser13DropStatement6acceptERNS0_11NodeVisitorE
FN:345,347,_ZN5sqlcc10sql_parser14AlterStatement6acceptERNS0_11NodeVisitorE
FN:363,365,_ZN5sqlcc10sql_parser12UseStatement6acceptERNS0_11NodeVisitorE
FN:387,389,_ZN5sqlcc10sql_parser20CreateIndexStatement6acceptERNS0_11NodeVisitorE
FN:414,416,_ZN5sqlcc10sql_parser18DropIndexStatement6acceptERNS0_11NodeVisitorE
FN:437,439,_ZN5sqlcc10sql_parser19CreateUserStatement6acceptERNS0_11NodeVisitorE
FN:458,460,_ZN5sqlcc10sql_parser17DropUserStatement6acceptERNS0_11NodeVisitorE
FN:486,488,_ZN5sqlcc10sql_parser14GrantStatement6acceptERNS0_11NodeVisitorE
FN:516,518,_ZN5sqlcc10sql_parser15RevokeStatement6acceptERNS0_11NodeVisitorE
FN:52,52,_ZN5sqlcc10sql_parser16ColumnDefinition13setPrimaryKeyEb
FN:53,53,_ZN5sqlcc10sql_parser16ColumnDefinition11setNullableEb
FN:54,54,_ZN5sqlcc10sql_parser16ColumnDefinition9setUniqueEb
FN:55,55,_ZN5sqlcc10sql_parser16ColumnDefinition16setAutoIncrementEb
FN:554,556,_ZN5sqlcc10sql_parser13ShowStatement6acceptERNS0_11NodeVisitorE
FN:59,59,_ZN5sqlcc10sql_parser16ColumnDefinition15setIsPrimaryKeyEb
FN:60,60,_ZN5sqlcc10sql_parser16ColumnDefinition13setIsNullableEb
FN:61,61,_ZN5sqlcc10sql_parser16ColumnDefinition11setIsUniqueEb
FN:62,62,_ZN5sqlcc10sql_parser16ColumnDefinition18setIsAutoIncrementEb
FNDA:0,_ZN5sqlcc10sql_parser15CreateStatement6acceptERNS0_11NodeVisitorE
FNDA:0,_ZN5sqlcc10sql_parser15SelectStatement6acceptERNS0_11NodeVisitorE
FNDA:0,_ZN5sqlcc10sql_parser15InsertStatement6acceptERNS0_11NodeVisitorE
FNDA:0,_ZN5sqlcc10sql_parser15UpdateStatement6acceptERNS0_11NodeVisitorE
FNDA:0,_ZN5sqlcc10sql_parser15DeleteStatement6acceptERNS0_11NodeVisitorE
FNDA:0,_ZN5sqlcc10sql_parser13DropStatement6acceptERNS0_11NodeVisitorE
FNDA:0,_ZN5sqlcc10sql_parser14AlterStatement6acceptERNS0_11NodeVisitorE
FNDA:0,_ZN5sqlcc10sql_parser12UseStatement6acceptERNS0_11NodeVisitorE
FNDA:0,_ZN5sqlcc10sql_parser20CreateIndexStatement6acceptERNS0_11NodeVisitorE
FNDA:0,_ZN5sqlcc10sql_parser18DropIndexStatement6acceptERNS0_11NodeVisitorE
FNDA:0,_ZN5sqlcc10sql_parser19CreateUserStatement6acceptERNS0_11NodeVisitorE
FNDA:0,_ZN5sqlcc10sql_parser17DropUserStatement6acceptERNS0_11NodeVisitorE
FNDA:0,_ZN5sqlcc10sql_parser14GrantStatement6acceptERNS0_11NodeVisitorE
FNDA:0,_ZN5sqlcc10sql_parser15RevokeStatement6acceptERNS0_11NodeVisitorE
FNDA:1,_ZN5sqlcc10sql_parser16ColumnDefinition13setPrimaryKeyEb
FNDA:1,_ZN5sqlcc10sql_parser16ColumnDefinition11setNullableEb
FNDA:0,_ZN5sqlcc10sql_parser16ColumnDefinition9setUniqueEb
FNDA:0,_ZN5sqlcc10sql_parser16ColumnDefinition16setAutoIncrementEb
FNDA:0,_ZN5sqlcc10sql_parser13ShowStatement6acceptERNS0_11NodeVisitorE
FNDA:1,_ZN5sqlcc10sql_parser16ColumnDefinition15setIsPrimaryKeyEb
FNDA:1,_ZN5sqlcc10sql_parser16ColumnDefinition13setIsNullableEb
FNDA:0,_ZN5sqlcc10sql_parser16ColumnDefinition11setIsUniqueEb
FNDA:0,_ZN5sqlcc10sql_parser16ColumnDefinition18setIsAutoIncrementEb
FNF:23
FNH:4
DA:52,1
DA:53,1
DA:54,0
DA:55,0
DA:59,1
DA:60,1
DA:61,0
DA:62,0
DA:153,0
DA:154,0
DA:155,0
DA:199,0
DA:200,0
DA:201,0
DA:234,0
DA:235,0
DA:236,0
DA:260,0
DA:261,0
DA:262,0
DA:283,0
DA:284,0
DA:285,0
DA:315,0
DA:316,0
DA:317,0
DA:345,0
DA:346,0
DA:347,0
DA:363,0
DA:364,0
DA:365,0
DA:387,0
DA:388,0
DA:389,0
DA:414,0
DA:415,0
DA:416,0
DA:437,0
DA:438,0
DA:439,0
DA:458,0
DA:459,0
DA:460,0
DA:486,0
DA:487,0
DA:488,0
DA:516,0
DA:517,0
DA:518,0
DA:554,0
DA:555,0
DA:556,0
LF:53
LH:4
end_of_record
TN:
SF:/home/liying/sqlcc_qoder/include/sql_parser/lexer.h
FNF:0
FNH:0
LF:0
LH:0
end_of_record
TN:
SF:/home/liying/sqlcc_qoder/include/sql_parser/parser.h
FN:21,21,_ZN5sqlcc10sql_parser6ParserD2Ev
FNDA:13,_ZN5sqlcc10sql_parser6ParserD2Ev
FNF:1
FNH:1
DA:21,13
LF:1
LH:1
end_of_record
TN:
SF:/home/liying/sqlcc_qoder/include/sql_parser/token.h
FN:48,48,_ZN5sqlcc10sql_parser5TokenD2Ev
FNDA:132,_ZN5sqlcc10sql_parser5TokenD2Ev
FNF:1
FNH:1
DA:48,132
LF:1
LH:1
end_of_record
TN:
SF:/home/liying/sqlcc_qoder/src/network/encryption.cpp
FN:144,188,_ZNK5sqlcc7network12AESEncryptor7DecryptERKSt6vectorIhSaIhEE
FN:190,195,_ZN5sqlcc7network12AESEncryptor9UpdateKeyESt10shared_ptrINS0_13EncryptionKeyEE
FN:197,203,_ZN5sqlcc7network12AESEncryptor17InitializeContextEv
FN:206,219,_ZN5sqlcc7network10HMACSHA2567ComputeERKSt6vectorIhSaIhEES6_
FN:221,236,_ZN5sqlcc7network10HMACSHA2566VerifyERKSt6vectorIhSaIhEES6_S6_
FN:239,254,_ZN5sqlcc7network6PBKDF26DeriveERKNSt7__cxx1112basic_stringIcSt11char_traitsIcESaIcEEERKSt6vectorIhSaIhEEim
FN:257,272,_ZN5sqlcc7network31DeriveEncryptionKeyFromPasswordERKNSt7__cxx1112basic_stringIcSt11char_traitsIcESaIcEEERKSt6vectorIhSaIhEEimm
FN:29,30,_ZN5sqlcc7network13EncryptionKeyC2ERKSt6vectorIhSaIhEES6_
FN:32,56,_ZN5sqlcc7network13EncryptionKey14GenerateRandomEmm
FN:62,62,_ZN5sqlcc7network15SimpleEncryptorC2ERKNSt7__cxx1112basic_stringIcSt11char_traitsIcESaIcEEE
FN:64,70,_ZNK5sqlcc7network15SimpleEncryptor7EncryptERKSt6vectorIcSaIcEE
FN:72,75,_ZNK5sqlcc7network15SimpleEncryptor7DecryptERKSt6vectorIcSaIcEE
FN:81,86,_ZN5sqlcc7network12AESEncryptorC2ESt10shared_ptrINS0_13EncryptionKeyEE
FN:88,88,_ZN5sqlcc7network12AESEncryptorD2Ev
FN:90,96,_ZN5sqlcc7network12AESEncryptor11IsAvailableEv
FN:98,142,_ZNK5sqlcc7network12AESEncryptor7EncryptERKSt6vectorIhSaIhEE
FNDA:9,_ZNK5sqlcc7network12AESEncryptor7DecryptERKSt6vectorIhSaIhEE
FNDA:2,_ZN5sqlcc7network12AESEncryptor9UpdateKeyESt10shared_ptrINS0_13EncryptionKeyEE
FNDA:0,_ZN5sqlcc7network12AESEncryptor17InitializeContextEv
FNDA:10,_ZN5sqlcc7network10HMACSHA2567ComputeERKSt6vectorIhSaIhEES6_
FNDA:5,_ZN5sqlcc7network10HMACSHA2566VerifyERKSt6vectorIhSaIhEES6_S6_
FNDA:9,_ZN5sqlcc7network6PBKDF26DeriveERKNSt7__cxx1112basic_stringIcSt11char_traitsIcESaIcEEERKSt6vectorIhSaIhEEim
FNDA:1,_ZN5sqlcc7network31DeriveEncryptionKeyFromPasswordERKNSt7__cxx1112basic_stringIcSt11char_traitsIcESaIcEEERKSt6vectorIhSaIhEEimm
FNDA:25,_ZN5sqlcc7network13EncryptionKeyC2ERKSt6vectorIhSaIhEES6_
FNDA:23,_ZN5sqlcc7network13EncryptionKey14GenerateRandomEmm
FNDA:1,_ZN5sqlcc7network15SimpleEncryptorC2ERKNSt7__cxx1112basic_stringIcSt11char_traitsIcESaIcEEE
FNDA:2,_ZNK5sqlcc7network15SimpleEncryptor7EncryptERKSt6vectorIcSaIcEE
FNDA:1,_ZNK5sqlcc7network15SimpleEncryptor7DecryptERKSt6vectorIcSaIcEE
FNDA:13,_ZN5sqlcc7network12AESEncryptorC2ESt10shared_ptrINS0_13EncryptionKeyEE
FNDA:13,_ZN5sqlcc7network12AESEncryptorD2Ev
FNDA:7,_ZN5sqlcc7network12AESEncryptor11IsAvailableEv
FNDA:15,_ZNK5sqlcc7network12AESEncryptor7EncryptERKSt6vectorIhSaIhEE
FNF:16
FNH:15
DA:29,25
DA:30,25
DA:32,23
DA:33,46
DA:34,23
DA:38,23
DA:39,0
DA:55,46
DA:56,23
DA:62,1
DA:64,2
DA:65,2
DA:66,28
DA:67,26
DA:69,2
DA:72,1
DA:74,1
DA:81,13
DA:82,13
DA:83,13
DA:84,0
DA:86,13
DA:88,13
DA:90,7
DA:92,7
DA:98,15
DA:100,15
DA:101,0
DA:104,15
DA:105,15
DA:106,0
DA:109,15
DA:110,15
DA:111,15
DA:115,15
DA:116,15
DA:117,30
DA:118,0
DA:122,15
DA:123,0
DA:125,15
DA:128,15
DA:129,0
DA:131,15
DA:133,15
DA:134,30
DA:135,0
DA:136,0
DA:137,0
DA:138,0
DA:142,0
DA:144,9
DA:146,9
DA:147,0
DA:150,9
DA:151,9
DA:152,0
DA:155,9
DA:156,9
DA:157,9
DA:161,9
DA:162,9
DA:163,18
DA:164,0
DA:168,9
DA:169,0
DA:171,9
DA:174,9
DA:175,1
DA:177,8
DA:179,8
DA:180,16
DA:181,1
DA:182,1
DA:183,1
DA:184,1
DA:188,1
DA:190,2
DA:191,2
DA:192,1
DA:194,1
DA:195,1
DA:197,0
DA:199,0
DA:206,10
DA:209,10
DA:210,10
DA:211,10
DA:214,10
DA:215,20
DA:219,0
DA:221,5
DA:225,5
DA:226,5
DA:228,4
DA:229,132
DA:230,128
DA:232,4
DA:236,5
DA:239,9
DA:244,9
DA:245,18
DA:246,9
DA:247,9
DA:248,1
DA:250,8
DA:254,1
DA:257,1
DA:265,1
DA:266,1
DA:267,1
DA:268,2
DA:272,1
LF:113
LH:94
end_of_record
TN:
SF:/home/liying/sqlcc_qoder/src/sql_parser/ast_node.cpp
FN:12,13,_ZN5sqlcc10sql_parser9StatementD0Ev
FN:12,13,_ZN5sqlcc10sql_parser9StatementD2Ev
FN:15,17,_ZNK5sqlcc10sql_parser9Statement7getTypeEv
FN:21,22,_ZN5sqlcc10sql_parser10ExpressionC2Ev
FN:24,25,_ZN5sqlcc10sql_parser10ExpressionD0Ev
FN:24,25,_ZN5sqlcc10sql_parser10ExpressionD2Ev
FN:27,29,_ZNK5sqlcc10sql_parser10Expression11getTypeNameB5cxx11Ev
FN:9,10,_ZN5sqlcc10sql_parser9StatementC2ENS1_4TypeE
FNDA:0,_ZN5sqlcc10sql_parser9StatementD0Ev
FNDA:13,_ZN5sqlcc10sql_parser9StatementD2Ev
FNDA:10,_ZNK5sqlcc10sql_parser9Statement7getTypeEv
FNDA:0,_ZN5sqlcc10sql_parser10ExpressionC2Ev
FNDA:0,_ZN5sqlcc10sql_parser10ExpressionD0Ev
FNDA:0,_ZN5sqlcc10sql_parser10ExpressionD2Ev
FNDA:0,_ZNK5sqlcc10sql_parser10Expression11getTypeNameB5cxx11Ev
FNDA:13,_ZN5sqlcc10sql_parser9StatementC2ENS1_4TypeE
FNF:8
FNH:3
DA:9,13
DA:10,13
DA:12,13
DA:13,13
DA:15,10
DA:16,10
DA:21,0
DA:22,0
DA:24,0
DA:25,0
DA:27,0
DA:28,0
LF:12
LH:6
end_of_record
TN:
SF:/home/liying/sqlcc_qoder/src/sql_parser/ast_nodes.cpp
FN:102,104,_ZN5sqlcc10sql_parser15SelectStatement15addSelectColumnERKNSt7__cxx1112basic_stringIcSt11char_traitsIcESaIcEEE
FN:106,108,_ZN5sqlcc10sql_parser15SelectStatement12setTableNameERKNSt7__cxx1112basic_stringIcSt11char_traitsIcESaIcEEE
FN:11,14,_ZN5sqlcc10sql_parser16ColumnDefinitionC2ERKNSt7__cxx1112basic_stringIcSt11char_traitsIcESaIcEEES9_
FN:110,112,_ZN5sqlcc10sql_parser15SelectStatement14setWhereClauseERKNS0_11WhereClauseE
FN:114,116,_ZN5sqlcc10sql_parser15SelectStatement16setGroupByColumnERKNSt7__cxx1112basic_stringIcSt11char_traitsIcESaIcEEE
FN:118,120,_ZN5sqlcc10sql_parser15SelectStatement16setOrderByColumnERKNSt7__cxx1112basic_stringIcSt11char_traitsIcESaIcEEE
FN:122,124,_ZN5sqlcc10sql_parser15SelectStatement17setOrderDirectionERKNSt7__cxx1112basic_stringIcSt11char_traitsIcESaIcEEE
FN:126,128,_ZN5sqlcc10sql_parser15SelectStatement12setSelectAllEb
FN:130,132,_ZN5sqlcc10sql_parser15SelectStatement16setJoinConditionERKNSt7__cxx1112basic_stringIcSt11char_traitsIcESaIcEEE
FN:134,137,_ZN5sqlcc10sql_parser15SelectStatement8setLimitEi
FN:139,142,_ZN5sqlcc10sql_parser15SelectStatement9setOffsetEi
FN:144,146,_ZNK5sqlcc10sql_parser15SelectStatement16getSelectColumnsB5cxx11Ev
FN:148,150,_ZNK5sqlcc10sql_parser15SelectStatement12getTableNameB5cxx11Ev
FN:152,154,_ZNK5sqlcc10sql_parser15SelectStatement14getWhereClauseEv
FN:156,158,_ZNK5sqlcc10sql_parser15SelectStatement16getGroupByColumnB5cxx11Ev
FN:16,17,_ZN5sqlcc10sql_parser16ColumnDefinitionD2Ev
FN:160,162,_ZNK5sqlcc10sql_parser15SelectStatement16getOrderByColumnB5cxx11Ev
FN:164,166,_ZNK5sqlcc10sql_parser15SelectStatement17getOrderDirectionB5cxx11Ev
FN:168,170,_ZNK5sqlcc10sql_parser15SelectStatement16getJoinConditionB5cxx11Ev
FN:172,174,_ZNK5sqlcc10sql_parser15SelectStatement8getLimitEv
FN:176,178,_ZNK5sqlcc10sql_parser15SelectStatement9getOffsetEv
FN:180,182,_ZNK5sqlcc10sql_parser15SelectStatement11isSelectAllEv
FN:184,186,_ZNK5sqlcc10sql_parser15SelectStatement14hasWhereClauseEv
FN:188,190,_ZNK5sqlcc10sql_parser15SelectStatement10hasGroupByEv
FN:19,21,_ZN5sqlcc10sql_parser16ColumnDefinition15setDefaultValueERKNSt7__cxx1112basic_stringIcSt11char_traitsIcESaIcEEE
FN:192,194,_ZNK5sqlcc10sql_parser15SelectStatement10hasOrderByEv
FN:196,198,_ZNK5sqlcc10sql_parser15SelectStatement16hasJoinConditionEv
FN:200,202,_ZNK5sqlcc10sql_parser15SelectStatement8hasLimitEv
FN:204,206,_ZNK5sqlcc10sql_parser15SelectStatement9hasOffsetEv
FN:210,212,_ZN5sqlcc10sql_parser15InsertStatementC2ERKNSt7__cxx1112basic_stringIcSt11char_traitsIcESaIcEEE
FN:214,215,_ZN5sqlcc10sql_parser15InsertStatementD0Ev
FN:214,215,_ZN5sqlcc10sql_parser15InsertStatementD2Ev
FN:217,219,_ZN5sqlcc10sql_parser15InsertStatement9addColumnERKNSt7__cxx1112basic_stringIcSt11char_traitsIcESaIcEEE
FN:221,223,_ZN5sqlcc10sql_parser15InsertStatement8addValueERKNSt7__cxx1112basic_stringIcSt11char_traitsIcESaIcEEE
FN:225,230,_ZN5sqlcc10sql_parser15InsertStatement9finishRowEv
FN:232,238,_ZN5sqlcc10sql_parser15InsertStatement11addValueRowERKSt6vectorISt10unique_ptrINS0_10ExpressionESt14default_deleteIS4_EESaIS7_EE
FN:240,242,_ZNK5sqlcc10sql_parser15InsertStatement12getTableNameB5cxx11Ev
FN:244,246,_ZNK5sqlcc10sql_parser15InsertStatement10getColumnsB5cxx11Ev
FN:248,250,_ZNK5sqlcc10sql_parser15InsertStatement9getValuesB5cxx11Ev
FN:25,27,_ZN5sqlcc10sql_parser15TableConstraintC2ENS1_4TypeERKNSt7__cxx1112basic_stringIcSt11char_traitsIcESaIcEEE
FN:254,256,_ZN5sqlcc10sql_parser15UpdateStatementC2ERKNSt7__cxx1112basic_stringIcSt11char_traitsIcESaIcEEE
FN:258,259,_ZN5sqlcc10sql_parser15UpdateStatementD0Ev
FN:258,259,_ZN5sqlcc10sql_parser15UpdateStatementD2Ev
FN:261,263,_ZN5sqlcc10sql_parser15UpdateStatement14addUpdateValueERKNSt7__cxx1112basic_stringIcSt11char_traitsIcESaIcEEES9_
FN:265,267,_ZN5sqlcc10sql_parser15UpdateStatement14setWhereClauseERKNS0_11WhereClauseE
FN:269,271,_ZNK5sqlcc10sql_parser15UpdateStatement12getTableNameB5cxx11Ev
FN:273,275,_ZNK5sqlcc10sql_parser15UpdateStatement15getUpdateValuesB5cxx11Ev
FN:277,279,_ZNK5sqlcc10sql_parser15UpdateStatement14getWhereClauseEv
FN:281,283,_ZNK5sqlcc10sql_parser15UpdateStatement14hasWhereClauseEv
FN:287,289,_ZN5sqlcc10sql_parser15DeleteStatementC2ERKNSt7__cxx1112basic_stringIcSt11char_traitsIcESaIcEEE
FN:29,30,_ZN5sqlcc10sql_parser15TableConstraintD2Ev
FN:291,292,_ZN5sqlcc10sql_parser15DeleteStatementD0Ev
FN:291,292,_ZN5sqlcc10sql_parser15DeleteStatementD2Ev
FN:294,296,_ZN5sqlcc10sql_parser15DeleteStatement14setWhereClauseERKNS0_11WhereClauseE
FN:298,300,_ZNK5sqlcc10sql_parser15DeleteStatement12getTableNameB5cxx11Ev
FN:302,304,_ZNK5sqlcc10sql_parser15DeleteStatement14getWhereClauseEv
FN:306,308,_ZNK5sqlcc10sql_parser15DeleteStatement14hasWhereClauseEv
FN:312,314,_ZN5sqlcc10sql_parser13DropStatementC2ENS1_10ObjectTypeERKNSt7__cxx1112basic_stringIcSt11char_traitsIcESaIcEEE
FN:316,317,_ZN5sqlcc10sql_parser13DropStatementD0Ev
FN:316,317,_ZN5sqlcc10sql_parser13DropStatementD2Ev
FN:319,320,_ZN5sqlcc10sql_parser13DropStatementC2ENS1_10ObjectTypeE
FN:32,34,_ZN5sqlcc10sql_parser15TableConstraint9addColumnERKNSt7__cxx1112basic_stringIcSt11char_traitsIcESaIcEEE
FN:322,324,_ZN5sqlcc10sql_parser13DropStatement11setIfExistsEb
FN:326,326,_ZNK5sqlcc10sql_parser13DropStatement13getObjectTypeEv
FN:327,327,_ZNK5sqlcc10sql_parser13DropStatement13getObjectNameB5cxx11Ev
FN:328,328,_ZNK5sqlcc10sql_parser13DropStatement10isIfExistsEv
FN:331,333,_ZN5sqlcc10sql_parser14AlterStatementC2ENS1_10ObjectTypeERKNSt7__cxx1112basic_stringIcSt11char_traitsIcESaIcEEE
FN:335,336,_ZN5sqlcc10sql_parser14AlterStatementD0Ev
FN:335,336,_ZN5sqlcc10sql_parser14AlterStatementD2Ev
FN:338,339,_ZN5sqlcc10sql_parser14AlterStatementC2ENS1_10ObjectTypeE
FN:341,341,_ZNK5sqlcc10sql_parser14AlterStatement13getObjectTypeEv
FN:342,342,_ZNK5sqlcc10sql_parser14AlterStatement13getObjectNameB5cxx11Ev
FN:345,347,_ZN5sqlcc10sql_parser12UseStatementC2ERKNSt7__cxx1112basic_stringIcSt11char_traitsIcESaIcEEE
FN:349,350,_ZN5sqlcc10sql_parser12UseStatementD0Ev
FN:349,350,_ZN5sqlcc10sql_parser12UseStatementD2Ev
FN:352,352,_ZNK5sqlcc10sql_parser12UseStatement15getDatabaseNameB5cxx11Ev
FN:355,358,_ZN5sqlcc10sql_parser20CreateIndexStatementC2ERKNSt7__cxx1112basic_stringIcSt11char_traitsIcESaIcEEES9_S9_
FN:36,38,_ZN5sqlcc10sql_parser15TableConstraint18setReferencedTableERKNSt7__cxx1112basic_stringIcSt11char_traitsIcESaIcEEE
FN:360,361,_ZN5sqlcc10sql_parser20CreateIndexStatementD0Ev
FN:360,361,_ZN5sqlcc10sql_parser20CreateIndexStatementD2Ev
FN:363,365,_ZN5sqlcc10sql_parser20CreateIndexStatement9addColumnERKNSt7__cxx1112basic_stringIcSt11char_traitsIcESaIcEEE
FN:367,369,_ZNK5sqlcc10sql_parser20CreateIndexStatement12getIndexNameB5cxx11Ev
FN:371,373,_ZNK5sqlcc10sql_parser20CreateIndexStatement12getTableNameB5cxx11Ev
FN:375,377,_ZNK5sqlcc10sql_parser20CreateIndexStatement13getColumnNameB5cxx11Ev
FN:379,381,_ZNK5sqlcc10sql_parser20CreateIndexStatement10getColumnsB5cxx11Ev
FN:383,385,_ZN5sqlcc10sql_parser20CreateIndexStatement9setUniqueEb
FN:387,389,_ZNK5sqlcc10sql_parser20CreateIndexStatement8isUniqueEv
FN:393,395,_ZN5sqlcc10sql_parser18DropIndexStatementC2ERKNSt7__cxx1112basic_stringIcSt11char_traitsIcESaIcEEE
FN:397,398,_ZN5sqlcc10sql_parser18DropIndexStatementD0Ev
FN:397,398,_ZN5sqlcc10sql_parser18DropIndexStatementD2Ev
FN:40,42,_ZN5sqlcc10sql_parser15TableConstraint19addReferencedColumnERKNSt7__cxx1112basic_stringIcSt11char_traitsIcESaIcEEE
FN:400,402,_ZNK5sqlcc10sql_parser18DropIndexStatement12getIndexNameB5cxx11Ev
FN:404,407,_ZN5sqlcc10sql_parser18DropIndexStatement12setTableNameERKNSt7__cxx1112basic_stringIcSt11char_traitsIcESaIcEEE
FN:409,411,_ZNK5sqlcc10sql_parser18DropIndexStatement12getTableNameB5cxx11Ev
FN:413,415,_ZNK5sqlcc10sql_parser18DropIndexStatement12hasTableNameEv
FN:417,419,_ZN5sqlcc10sql_parser18DropIndexStatement11setIfExistsEb
FN:421,423,_ZNK5sqlcc10sql_parser18DropIndexStatement10isIfExistsEv
FN:427,429,_ZN5sqlcc10sql_parser19CreateUserStatementC2ERKNSt7__cxx1112basic_stringIcSt11char_traitsIcESaIcEEES9_
FN:431,432,_ZN5sqlcc10sql_parser19CreateUserStatementD0Ev
FN:431,432,_ZN5sqlcc10sql_parser19CreateUserStatementD2Ev
FN:434,436,_ZNK5sqlcc10sql_parser19CreateUserStatement11getUsernameB5cxx11Ev
FN:438,440,_ZNK5sqlcc10sql_parser19CreateUserStatement11getPasswordB5cxx11Ev
FN:44,46,_ZN5sqlcc10sql_parser15TableConstraint18setCheckExpressionERKNSt7__cxx1112basic_stringIcSt11char_traitsIcESaIcEEE
FN:442,444,_ZNK5sqlcc10sql_parser19CreateUserStatement14isWithPasswordEv
FN:446,448,_ZN5sqlcc10sql_parser19CreateUserStatement15setWithPasswordEb
FN:452,454,_ZN5sqlcc10sql_parser17DropUserStatementC2ERKNSt7__cxx1112basic_stringIcSt11char_traitsIcESaIcEEE
FN:456,457,_ZN5sqlcc10sql_parser17DropUserStatementD0Ev
FN:456,457,_ZN5sqlcc10sql_parser17DropUserStatementD2Ev
FN:459,461,_ZNK5sqlcc10sql_parser17DropUserStatement11getUsernameB5cxx11Ev
FN:463,465,_ZNK5sqlcc10sql_parser17DropUserStatement10isIfExistsEv
FN:467,469,_ZN5sqlcc10sql_parser17DropUserStatement11setIfExistsEb
FN:473,475,_ZN5sqlcc10sql_parser14GrantStatementC2Ev
FN:477,478,_ZN5sqlcc10sql_parser14GrantStatementD0Ev
FN:477,478,_ZN5sqlcc10sql_parser14GrantStatementD2Ev
FN:480,482,_ZN5sqlcc10sql_parser14GrantStatement12addPrivilegeERKNSt7__cxx1112basic_stringIcSt11char_traitsIcESaIcEEE
FN:484,486,_ZNK5sqlcc10sql_parser14GrantStatement13getPrivilegesB5cxx11Ev
FN:488,490,_ZN5sqlcc10sql_parser14GrantStatement13setObjectTypeERKNSt7__cxx1112basic_stringIcSt11char_traitsIcESaIcEEE
FN:492,494,_ZNK5sqlcc10sql_parser14GrantStatement13getObjectTypeB5cxx11Ev
FN:496,498,_ZN5sqlcc10sql_parser14GrantStatement13setObjectNameERKNSt7__cxx1112basic_stringIcSt11char_traitsIcESaIcEEE
FN:50,52,_ZN5sqlcc10sql_parser11WhereClauseC2ERKNSt7__cxx1112basic_stringIcSt11char_traitsIcESaIcEEES9_S9_
FN:500,502,_ZNK5sqlcc10sql_parser14GrantStatement13getObjectNameB5cxx11Ev
FN:504,506,_ZN5sqlcc10sql_parser14GrantStatement10setGranteeERKNSt7__cxx1112basic_stringIcSt11char_traitsIcESaIcEEE
FN:508,510,_ZNK5sqlcc10sql_parser14GrantStatement10getGranteeB5cxx11Ev
FN:514,516,_ZN5sqlcc10sql_parser15RevokeStatementC2Ev
FN:518,519,_ZN5sqlcc10sql_parser15RevokeStatementD0Ev
FN:518,519,_ZN5sqlcc10sql_parser15RevokeStatementD2Ev
FN:521,523,_ZN5sqlcc10sql_parser15RevokeStatement12addPrivilegeERKNSt7__cxx1112basic_stringIcSt11char_traitsIcESaIcEEE
FN:525,527,_ZNK5sqlcc10sql_parser15RevokeStatement13getPrivilegesB5cxx11Ev
FN:529,531,_ZN5sqlcc10sql_parser15RevokeStatement13setObjectTypeERKNSt7__cxx1112basic_stringIcSt11char_traitsIcESaIcEEE
FN:533,535,_ZNK5sqlcc10sql_parser15RevokeStatement13getObjectTypeB5cxx11Ev
FN:537,539,_ZN5sqlcc10sql_parser15RevokeStatement13setObjectNameERKNSt7__cxx1112basic_stringIcSt11char_traitsIcESaIcEEE
FN:54,55,_ZN5sqlcc10sql_parser11WhereClauseD2Ev
FN:541,543,_ZNK5sqlcc10sql_parser15RevokeStatement13getObjectNameB5cxx11Ev
FN:545,547,_ZN5sqlcc10sql_parser15RevokeStatement10setGranteeERKNSt7__cxx1112basic_stringIcSt11char_traitsIcESaIcEEE
FN:549,551,_ZNK5sqlcc10sql_parser15RevokeStatement10getGranteeB5cxx11Ev
FN:555,557,_ZN5sqlcc10sql_parser13ShowStatementC2ENS1_8ShowTypeE
FN:559,560,_ZN5sqlcc10sql_parser13ShowStatementD0Ev
FN:559,560,_ZN5sqlcc10sql_parser13ShowStatementD2Ev
FN:562,564,_ZNK5sqlcc10sql_parser13ShowStatement11getShowTypeEv
FN:566,568,_ZN5sqlcc10sql_parser13ShowStatement15setTargetObjectERKNSt7__cxx1112basic_stringIcSt11char_traitsIcESaIcEEE
FN:57,59,_ZNK5sqlcc10sql_parser11WhereClause13getColumnNameB5cxx11Ev
FN:570,572,_ZNK5sqlcc10sql_parser13ShowStatement15getTargetObjectB5cxx11Ev
FN:574,577,_ZN5sqlcc10sql_parser13ShowStatement15setFromDatabaseERKNSt7__cxx1112basic_stringIcSt11char_traitsIcESaIcEEE
FN:579,581,_ZNK5sqlcc10sql_parser13ShowStatement15getFromDatabaseB5cxx11Ev
FN:583,585,_ZNK5sqlcc10sql_parser13ShowStatement15hasFromDatabaseEv
FN:61,63,_ZNK5sqlcc10sql_parser11WhereClause5getOpB5cxx11Ev
FN:65,67,_ZNK5sqlcc10sql_parser11WhereClause8getValueB5cxx11Ev
FN:71,73,_ZN5sqlcc10sql_parser15CreateStatementC2ENS1_10ObjectTypeERKNSt7__cxx1112basic_stringIcSt11char_traitsIcESaIcEEE
FN:75,76,_ZN5sqlcc10sql_parser15CreateStatementD0Ev
FN:75,76,_ZN5sqlcc10sql_parser15CreateStatementD2Ev
FN:78,79,_ZN5sqlcc10sql_parser15CreateStatementC2ENS1_10ObjectTypeE
FN:81,83,_ZN5sqlcc10sql_parser15CreateStatement9addColumnEONS0_16ColumnDefinitionE
FN:85,87,_ZN5sqlcc10sql_parser15CreateStatement13addConstraintEONS0_15TableConstraintE
FN:89,89,_ZNK5sqlcc10sql_parser15CreateStatement13getObjectTypeEv
FN:90,90,_ZNK5sqlcc10sql_parser15CreateStatement13getObjectNameB5cxx11Ev
FN:91,91,_ZNK5sqlcc10sql_parser15CreateStatement10getColumnsEv
FN:92,92,_ZNK5sqlcc10sql_parser15CreateStatement14getConstraintsEv
FN:95,97,_ZN5sqlcc10sql_parser15SelectStatementC2Ev
FN:99,100,_ZN5sqlcc10sql_parser15SelectStatementD0Ev
FN:99,100,_ZN5sqlcc10sql_parser15SelectStatementD2Ev
FNDA:0,_ZN5sqlcc10sql_parser15SelectStatement15addSelectColumnERKNSt7__cxx1112basic_stringIcSt11char_traitsIcESaIcEEE
FNDA:0,_ZN5sqlcc10sql_parser15SelectStatement12setTableNameERKNSt7__cxx1112basic_stringIcSt11char_traitsIcESaIcEEE
FNDA:2,_ZN5sqlcc10sql_parser16ColumnDefinitionC2ERKNSt7__cxx1112basic_stringIcSt11char_traitsIcESaIcEEES9_
FNDA:0,_ZN5sqlcc10sql_parser15SelectStatement14setWhereClauseERKNS0_11WhereClauseE
FNDA:0,_ZN5sqlcc10sql_parser15SelectStatement16setGroupByColumnERKNSt7__cxx1112basic_stringIcSt11char_traitsIcESaIcEEE
FNDA:0,_ZN5sqlcc10sql_parser15SelectStatement16setOrderByColumnERKNSt7__cxx1112basic_stringIcSt11char_traitsIcESaIcEEE
FNDA:0,_ZN5sqlcc10sql_parser15SelectStatement17setOrderDirectionERKNSt7__cxx1112basic_stringIcSt11char_traitsIcESaIcEEE
FNDA:0,_ZN5sqlcc10sql_parser15SelectStatement12setSelectAllEb
FNDA:0,_ZN5sqlcc10sql_parser15SelectStatement16setJoinConditionERKNSt7__cxx1112basic_stringIcSt11char_traitsIcESaIcEEE
FNDA:0,_ZN5sqlcc10sql_parser15SelectStatement8setLimitEi
FNDA:0,_ZN5sqlcc10sql_parser15SelectStatement9setOffsetEi
FNDA:0,_ZNK5sqlcc10sql_parser15SelectStatement16getSelectColumnsB5cxx11Ev
FNDA:0,_ZNK5sqlcc10sql_parser15SelectStatement12getTableNameB5cxx11Ev
FNDA:0,_ZNK5sqlcc10sql_parser15SelectStatement14getWhereClauseEv
FNDA:0,_ZNK5sqlcc10sql_parser15SelectStatement16getGroupByColumnB5cxx11Ev
FNDA:5,_ZN5sqlcc10sql_parser16ColumnDefinitionD2Ev
FNDA:0,_ZNK5sqlcc10sql_parser15SelectStatement16getOrderByColumnB5cxx11Ev
FNDA:0,_ZNK5sqlcc10sql_parser15SelectStatement17getOrderDirectionB5cxx11Ev
FNDA:0,_ZNK5sqlcc10sql_parser15SelectStatement16getJoinConditionB5cxx11Ev
FNDA:0,_ZNK5sqlcc10sql_parser15SelectStatement8getLimitEv
FNDA:0,_ZNK5sqlcc10sql_parser15SelectStatement9getOffsetEv
FNDA:0,_ZNK5sqlcc10sql_parser15SelectStatement11isSelectAllEv
FNDA:0,_ZNK5sqlcc10sql_parser15SelectStatement14hasWhereClauseEv
FNDA:0,_ZNK5sqlcc10sql_parser15SelectStatement10hasGroupByEv
FNDA:0,_ZN5sqlcc10sql_parser16ColumnDefinition15setDefaultValueERKNSt7__cxx1112basic_stringIcSt11char_traitsIcESaIcEEE
FNDA:0,_ZNK5sqlcc10sql_parser15SelectStatement10hasOrderByEv
FNDA:0,_ZNK5sqlcc10sql_parser15SelectStatement16hasJoinConditionEv
FNDA:0,_ZNK5sqlcc10sql_parser15SelectStatement8hasLimitEv
FNDA:0,_ZNK5sqlcc10sql_parser15SelectStatement9hasOffsetEv
FNDA:0,_ZN5sqlcc10sql_parser15InsertStatementC2ERKNSt7__cxx1112basic_stringIcSt11char_traitsIcESaIcEEE
FNDA:0,_ZN5sqlcc10sql_parser15InsertStatementD0Ev
FNDA:0,_ZN5sqlcc10sql_parser15InsertStatementD2Ev
FNDA:0,_ZN5sqlcc10sql_parser15InsertStatement9addColumnERKNSt7__cxx1112basic_stringIcSt11char_traitsIcESaIcEEE
FNDA:0,_ZN5sqlcc10sql_parser15InsertStatement8addValueERKNSt7__cxx1112basic_stringIcSt11char_traitsIcESaIcEEE
FNDA:0,_ZN5sqlcc10sql_parser15InsertStatement9finishRowEv
FNDA:0,_ZN5sqlcc10sql_parser15InsertStatement11addValueRowERKSt6vectorISt10unique_ptrINS0_10ExpressionESt14default_deleteIS4_EESaIS7_EE
FNDA:0,_ZNK5sqlcc10sql_parser15InsertStatement12getTableNameB5cxx11Ev
FNDA:0,_ZNK5sqlcc10sql_parser15InsertStatement10getColumnsB5cxx11Ev
FNDA:0,_ZNK5sqlcc10sql_parser15InsertStatement9getValuesB5cxx11Ev
FNDA:0,_ZN5sqlcc10sql_parser15TableConstraintC2ENS1_4TypeERKNSt7__cxx1112basic_stringIcSt11char_traitsIcESaIcEEE
FNDA:0,_ZN5sqlcc10sql_parser15UpdateStatementC2ERKNSt7__cxx1112basic_stringIcSt11char_traitsIcESaIcEEE
FNDA:0,_ZN5sqlcc10sql_parser15UpdateStatementD0Ev
FNDA:0,_ZN5sqlcc10sql_parser15UpdateStatementD2Ev
FNDA:0,_ZN5sqlcc10sql_parser15UpdateStatement14addUpdateValueERKNSt7__cxx1112basic_stringIcSt11char_traitsIcESaIcEEES9_
FNDA:0,_ZN5sqlcc10sql_parser15UpdateStatement14setWhereClauseERKNS0_11WhereClauseE
FNDA:0,_ZNK5sqlcc10sql_parser15UpdateStatement12getTableNameB5cxx11Ev
FNDA:0,_ZNK5sqlcc10sql_parser15UpdateStatement15getUpdateValuesB5cxx11Ev
FNDA:0,_ZNK5sqlcc10sql_parser15UpdateStatement14getWhereClauseEv
FNDA:0,_ZNK5sqlcc10sql_parser15UpdateStatement14hasWhereClauseEv
FNDA:0,_ZN5sqlcc10sql_parser15DeleteStatementC2ERKNSt7__cxx1112basic_stringIcSt11char_traitsIcESaIcEEE
FNDA:0,_ZN5sqlcc10sql_parser15TableConstraintD2Ev
FNDA:0,_ZN5sqlcc10sql_parser15DeleteStatementD0Ev
FNDA:0,_ZN5sqlcc10sql_parser15DeleteStatementD2Ev
FNDA:0,_ZN5sqlcc10sql_parser15DeleteStatement14setWhereClauseERKNS0_11WhereClauseE
FNDA:0,_ZNK5sqlcc10sql_parser15DeleteStatement12getTableNameB5cxx11Ev
FNDA:0,_ZNK5sqlcc10sql_parser15DeleteStatement14getWhereClauseEv
FNDA:0,_ZNK5sqlcc10sql_parser15DeleteStatement14hasWhereClauseEv
FNDA:0,_ZN5sqlcc10sql_parser13DropStatementC2ENS1_10ObjectTypeERKNSt7__cxx1112basic_stringIcSt11char_traitsIcESaIcEEE
FNDA:0,_ZN5sqlcc10sql_parser13DropStatementD0Ev
FNDA:0,_ZN5sqlcc10sql_parser13DropStatementD2Ev
FNDA:0,_ZN5sqlcc10sql_parser13DropStatementC2ENS1_10ObjectTypeE
FNDA:0,_ZN5sqlcc10sql_parser15TableConstraint9addColumnERKNSt7__cxx1112basic_stringIcSt11char_traitsIcESaIcEEE
FNDA:0,_ZN5sqlcc10sql_parser13DropStatement11setIfExistsEb
FNDA:0,_ZNK5sqlcc10sql_parser13DropStatement13getObjectTypeEv
FNDA:0,_ZNK5sqlcc10sql_parser13DropStatement13getObjectNameB5cxx11Ev
FNDA:0,_ZNK5sqlcc10sql_parser13DropStatement10isIfExistsEv
FNDA:1,_ZN5sqlcc10sql_parser14AlterStatementC2ENS1_10ObjectTypeERKNSt7__cxx1112basic_stringIcSt11char_traitsIcESaIcEEE
FNDA:1,_ZN5sqlcc10sql_parser14AlterStatementD0Ev
FNDA:1,_ZN5sqlcc10sql_parser14AlterStatementD2Ev
FNDA:0,_ZN5sqlcc10sql_parser14AlterStatementC2ENS1_10ObjectTypeE
FNDA:1,_ZNK5sqlcc10sql_parser14AlterStatement13getObjectTypeEv
FNDA:1,_ZNK5sqlcc10sql_parser14AlterStatement13getObjectNameB5cxx11Ev
FNDA:0,_ZN5sqlcc10sql_parser12UseStatementC2ERKNSt7__cxx1112basic_stringIcSt11char_traitsIcESaIcEEE
FNDA:0,_ZN5sqlcc10sql_parser12UseStatementD0Ev
FNDA:0,_ZN5sqlcc10sql_parser12UseStatementD2Ev
FNDA:0,_ZNK5sqlcc10sql_parser12UseStatement15getDatabaseNameB5cxx11Ev
FNDA:0,_ZN5sqlcc10sql_parser20CreateIndexStatementC2ERKNSt7__cxx1112basic_stringIcSt11char_traitsIcESaIcEEES9_S9_
FNDA:0,_ZN5sqlcc10sql_parser15TableConstraint18setReferencedTableERKNSt7__cxx1112basic_stringIcSt11char_traitsIcESaIcEEE
FNDA:0,_ZN5sqlcc10sql_parser20CreateIndexStatementD0Ev
FNDA:0,_ZN5sqlcc10sql_parser20CreateIndexStatementD2Ev
FNDA:0,_ZN5sqlcc10sql_parser20CreateIndexStatement9addColumnERKNSt7__cxx1112basic_stringIcSt11char_traitsIcESaIcEEE
FNDA:0,_ZNK5sqlcc10sql_parser20CreateIndexStatement12getIndexNameB5cxx11Ev
FNDA:0,_ZNK5sqlcc10sql_parser20CreateIndexStatement12getTableNameB5cxx11Ev
FNDA:0,_ZNK5sqlcc10sql_parser20CreateIndexStatement13getColumnNameB5cxx11Ev
FNDA:0,_ZNK5sqlcc10sql_parser20CreateIndexStatement10getColumnsB5cxx11Ev
FNDA:0,_ZN5sqlcc10sql_parser20CreateIndexStatement9setUniqueEb
FNDA:0,_ZNK5sqlcc10sql_parser20CreateIndexStatement8isUniqueEv
FNDA:0,_ZN5sqlcc10sql_parser18DropIndexStatementC2ERKNSt7__cxx1112basic_stringIcSt11char_traitsIcESaIcEEE
FNDA:0,_ZN5sqlcc10sql_parser18DropIndexStatementD0Ev
FNDA:0,_ZN5sqlcc10sql_parser18DropIndexStatementD2Ev
FNDA:0,_ZN5sqlcc10sql_parser15TableConstraint19addReferencedColumnERKNSt7__cxx1112basic_stringIcSt11char_traitsIcESaIcEEE
FNDA:0,_ZNK5sqlcc10sql_parser18DropIndexStatement12getIndexNameB5cxx11Ev
FNDA:0,_ZN5sqlcc10sql_parser18DropIndexStatement12setTableNameERKNSt7__cxx1112basic_stringIcSt11char_traitsIcESaIcEEE
FNDA:0,_ZNK5sqlcc10sql_parser18DropIndexStatement12getTableNameB5cxx11Ev
FNDA:0,_ZNK5sqlcc10sql_parser18DropIndexStatement12hasTableNameEv
FNDA:0,_ZN5sqlcc10sql_parser18DropIndexStatement11setIfExistsEb
FNDA:0,_ZNK5sqlcc10sql_parser18DropIndexStatement10isIfExistsEv
FNDA:2,_ZN5sqlcc10sql_parser19CreateUserStatementC2ERKNSt7__cxx1112basic_stringIcSt11char_traitsIcESaIcEEES9_
FNDA:2,_ZN5sqlcc10sql_parser19CreateUserStatementD0Ev
FNDA:2,_ZN5sqlcc10sql_parser19CreateUserStatementD2Ev
FNDA:2,_ZNK5sqlcc10sql_parser19CreateUserStatement11getUsernameB5cxx11Ev
FNDA:2,_ZNK5sqlcc10sql_parser19CreateUserStatement11getPasswordB5cxx11Ev
FNDA:0,_ZN5sqlcc10sql_parser15TableConstraint18setCheckExpressionERKNSt7__cxx1112basic_stringIcSt11char_traitsIcESaIcEEE
FNDA:2,_ZNK5sqlcc10sql_parser19CreateUserStatement14isWithPasswordEv
FNDA:2,_ZN5sqlcc10sql_parser19CreateUserStatement15setWithPasswordEb
FNDA:2,_ZN5sqlcc10sql_parser17DropUserStatementC2ERKNSt7__cxx1112basic_stringIcSt11char_traitsIcESaIcEEE
FNDA:2,_ZN5sqlcc10sql_parser17DropUserStatementD0Ev
FNDA:2,_ZN5sqlcc10sql_parser17DropUserStatementD2Ev
FNDA:2,_ZNK5sqlcc10sql_parser17DropUserStatement11getUsernameB5cxx11Ev
FNDA:2,_ZNK5sqlcc10sql_parser17DropUserStatement10isIfExistsEv
FNDA:2,_ZN5sqlcc10sql_parser17DropUserStatement11setIfExistsEb
FNDA:3,_ZN5sqlcc10sql_parser14GrantStatementC2Ev
FNDA:3,_ZN5sqlcc10sql_parser14GrantStatementD0Ev
FNDA:3,_ZN5sqlcc10sql_parser14GrantStatementD2Ev
FNDA:5,_ZN5sqlcc10sql_parser14GrantStatement12addPrivilegeERKNSt7__cxx1112basic_stringIcSt11char_traitsIcESaIcEEE
FNDA:8,_ZNK5sqlcc10sql_parser14GrantStatement13getPrivilegesB5cxx11Ev
FNDA:3,_ZN5sqlcc10sql_parser14GrantStatement13setObjectTypeERKNSt7__cxx1112basic_stringIcSt11char_traitsIcESaIcEEE
FNDA:3,_ZNK5sqlcc10sql_parser14GrantStatement13getObjectTypeB5cxx11Ev
FNDA:3,_ZN5sqlcc10sql_parser14GrantStatement13setObjectNameERKNSt7__cxx1112basic_stringIcSt11char_traitsIcESaIcEEE
FNDA:0,_ZN5sqlcc10sql_parser11WhereClauseC2ERKNSt7__cxx1112basic_stringIcSt11char_traitsIcESaIcEEES9_S9_
FNDA:3,_ZNK5sqlcc10sql_parser14GrantStatement13getObjectNameB5cxx11Ev
FNDA:3,_ZN5sqlcc10sql_parser14GrantStatement10setGranteeERKNSt7__cxx1112basic_stringIcSt11char_traitsIcESaIcEEE
FNDA:3,_ZNK5sqlcc10sql_parser14GrantStatement10getGranteeB5cxx11Ev
FNDA:3,_ZN5sqlcc10sql_parser15RevokeStatementC2Ev
FNDA:3,_ZN5sqlcc10sql_parser15RevokeStatementD0Ev
FNDA:3,_ZN5sqlcc10sql_parser15RevokeStatementD2Ev
FNDA:5,_ZN5sqlcc10sql_parser15RevokeStatement12addPrivilegeERKNSt7__cxx1112basic_stringIcSt11char_traitsIcESaIcEEE
FNDA:8,_ZNK5sqlcc10sql_parser15RevokeStatement13getPrivilegesB5cxx11Ev
FNDA:3,_ZN5sqlcc10sql_parser15RevokeStatement13setObjectTypeERKNSt7__cxx1112basic_stringIcSt11char_traitsIcESaIcEEE
FNDA:3,_ZNK5sqlcc10sql_parser15RevokeStatement13getObjectTypeB5cxx11Ev
FNDA:3,_ZN5sqlcc10sql_parser15RevokeStatement13setObjectNameERKNSt7__cxx1112basic_stringIcSt11char_traitsIcESaIcEEE
FNDA:0,_ZN5sqlcc10sql_parser11WhereClauseD2Ev
FNDA:3,_ZNK5sqlcc10sql_parser15RevokeStatement13getObjectNameB5cxx11Ev
FNDA:3,_ZN5sqlcc10sql_parser15RevokeStatement10setGranteeERKNSt7__cxx1112basic_stringIcSt11char_traitsIcESaIcEEE
FNDA:3,_ZNK5sqlcc10sql_parser15RevokeStatement10getGranteeB5cxx11Ev
FNDA:0,_ZN5sqlcc10sql_parser13ShowStatementC2ENS1_8ShowTypeE
FNDA:0,_ZN5sqlcc10sql_parser13ShowStatementD0Ev
FNDA:0,_ZN5sqlcc10sql_parser13ShowStatementD2Ev
FNDA:0,_ZNK5sqlcc10sql_parser13ShowStatement11getShowTypeEv
FNDA:0,_ZN5sqlcc10sql_parser13ShowStatement15setTargetObjectERKNSt7__cxx1112basic_stringIcSt11char_traitsIcESaIcEEE
FNDA:0,_ZNK5sqlcc10sql_parser11WhereClause13getColumnNameB5cxx11Ev
FNDA:0,_ZNK5sqlcc10sql_parser13ShowStatement15getTargetObjectB5cxx11Ev
FNDA:0,_ZN5sqlcc10sql_parser13ShowStatement15setFromDatabaseERKNSt7__cxx1112basic_stringIcSt11char_traitsIcESaIcEEE
FNDA:0,_ZNK5sqlcc10sql_parser13ShowStatement15getFromDatabaseB5cxx11Ev
FNDA:0,_ZNK5sqlcc10sql_parser13ShowStatement15hasFromDatabaseEv
FNDA:0,_ZNK5sqlcc10sql_parser11WhereClause5getOpB5cxx11Ev
FNDA:0,_ZNK5sqlcc10sql_parser11WhereClause8getValueB5cxx11Ev
FNDA:2,_ZN5sqlcc10sql_parser15CreateStatementC2ENS1_10ObjectTypeERKNSt7__cxx1112basic_stringIcSt11char_traitsIcESaIcEEE
FNDA:2,_ZN5sqlcc10sql_parser15CreateStatementD0Ev
FNDA:2,_ZN5sqlcc10sql_parser15CreateStatementD2Ev
FNDA:0,_ZN5sqlcc10sql_parser15CreateStatementC2ENS1_10ObjectTypeE
FNDA:2,_ZN5sqlcc10sql_parser15CreateStatement9addColumnEONS0_16ColumnDefinitionE
FNDA:0,_ZN5sqlcc10sql_parser15CreateStatement13addConstraintEONS0_15TableConstraintE
FNDA:2,_ZNK5sqlcc10sql_parser15CreateStatement13getObjectTypeEv
FNDA:2,_ZNK5sqlcc10sql_parser15CreateStatement13getObjectNameB5cxx11Ev
FNDA:1,_ZNK5sqlcc10sql_parser15CreateStatement10getColumnsEv
FNDA:0,_ZNK5sqlcc10sql_parser15CreateStatement14getConstraintsEv
FNDA:0,_ZN5sqlcc10sql_parser15SelectStatementC2Ev
FNDA:0,_ZN5sqlcc10sql_parser15SelectStatementD0Ev
FNDA:0,_ZN5sqlcc10sql_parser15SelectStatementD2Ev
FNF:160
FNH:49
DA:11,2
DA:12,2
DA:13,2
DA:14,2
DA:16,5
DA:17,5
DA:19,0
DA:20,0
DA:21,0
DA:25,0
DA:26,0
DA:27,0
DA:29,0
DA:30,0
DA:32,0
DA:33,0
DA:34,0
DA:36,0
DA:37,0
DA:38,0
DA:40,0
DA:41,0
DA:42,0
DA:44,0
DA:45,0
DA:46,0
DA:50,0
DA:51,0
DA:52,0
DA:54,0
DA:55,0
DA:57,0
DA:58,0
DA:61,0
DA:62,0
DA:65,0
DA:66,0
DA:71,2
DA:72,2
DA:73,2
DA:75,4
DA:76,4
DA:78,0
DA:79,0
DA:81,2
DA:82,2
DA:83,2
DA:85,0
DA:86,0
DA:87,0
DA:89,2
DA:90,2
DA:91,1
DA:92,0
DA:95,0
DA:96,0
DA:97,0
DA:99,0
DA:100,0
DA:102,0
DA:103,0
DA:104,0
DA:106,0
DA:107,0
DA:108,0
DA:110,0
DA:111,0
DA:112,0
DA:114,0
DA:115,0
DA:116,0
DA:118,0
DA:119,0
DA:120,0
DA:122,0
DA:123,0
DA:124,0
DA:126,0
DA:127,0
DA:128,0
DA:130,0
DA:131,0
DA:132,0
DA:134,0
DA:135,0
DA:136,0
DA:137,0
DA:139,0
DA:140,0
DA:141,0
DA:142,0
DA:144,0
DA:145,0
DA:148,0
DA:149,0
DA:152,0
DA:153,0
DA:156,0
DA:157,0
DA:160,0
DA:161,0
DA:164,0
DA:165,0
DA:168,0
DA:169,0
DA:172,0
DA:173,0
DA:176,0
DA:177,0
DA:180,0
DA:181,0
DA:184,0
DA:185,0
DA:188,0
DA:189,0
DA:192,0
DA:193,0
DA:196,0
DA:197,0
DA:200,0
DA:201,0
DA:204,0
DA:205,0
DA:210,0
DA:211,0
DA:212,0
DA:214,0
DA:215,0
DA:217,0
DA:218,0
DA:219,0
DA:221,0
DA:222,0
DA:223,0
DA:225,0
DA:226,0
DA:227,0
DA:228,0
DA:230,0
DA:232,0
DA:234,0
DA:238,0
DA:240,0
DA:241,0
DA:244,0
DA:245,0
DA:248,0
DA:249,0
DA:254,0
DA:255,0
DA:256,0
DA:258,0
DA:259,0
DA:261,0
DA:262,0
DA:263,0
DA:265,0
DA:266,0
DA:267,0
DA:269,0
DA:270,0
DA:273,0
DA:274,0
DA:277,0
DA:278,0
DA:281,0
DA:282,0
DA:287,0
DA:288,0
DA:289,0
DA:291,0
DA:292,0
DA:294,0
DA:295,0
DA:296,0
DA:298,0
DA:299,0
DA:302,0
DA:303,0
DA:306,0
DA:307,0
DA:312,0
DA:313,0
DA:314,0
DA:316,0
DA:317,0
DA:319,0
DA:320,0
DA:322,0
DA:323,0
DA:324,0
DA:326,0
DA:327,0
DA:328,0
DA:331,1
DA:332,1
DA:333,1
DA:335,2
DA:336,2
DA:338,0
DA:339,0
DA:341,1
DA:342,1
DA:345,0
DA:346,0
DA:347,0
DA:349,0
DA:350,0
DA:352,0
DA:355,0
DA:356,0
DA:357,0
DA:358,0
DA:360,0
DA:361,0
DA:363,0
DA:364,0
DA:365,0
DA:367,0
DA:368,0
DA:371,0
DA:372,0
DA:375,0
DA:376,0
DA:379,0
DA:380,0
DA:383,0
DA:384,0
DA:385,0
DA:387,0
DA:388,0
DA:393,0
DA:394,0
DA:395,0
DA:397,0
DA:398,0
DA:400,0
DA:401,0
DA:404,0
DA:405,0
DA:406,0
DA:407,0
DA:409,0
DA:410,0
DA:413,0
DA:414,0
DA:417,0
DA:418,0
DA:419,0
DA:421,0
DA:422,0
DA:427,2
DA:428,2
DA:429,2
DA:431,4
DA:432,4
DA:434,2
DA:435,2
DA:438,2
DA:439,2
DA:442,2
DA:443,2
DA:446,2
DA:447,2
DA:448,2
DA:452,2
DA:453,2
DA:454,2
DA:456,4
DA:457,4
DA:459,2
DA:460,2
DA:463,2
DA:464,2
DA:467,2
DA:468,2
DA:469,2
DA:473,3
DA:474,3
DA:475,3
DA:477,6
DA:478,6
DA:480,5
DA:481,5
DA:482,5
DA:484,8
DA:485,8
DA:488,3
DA:489,3
DA:490,3
DA:492,3
DA:493,3
DA:496,3
DA:497,3
DA:498,3
DA:500,3
DA:501,3
DA:504,3
DA:505,3
DA:506,3
DA:508,3
DA:509,3
DA:514,3
DA:515,3
DA:516,3
DA:518,6
DA:519,6
DA:521,5
DA:522,5
DA:523,5
DA:525,8
DA:526,8
DA:529,3
DA:530,3
DA:531,3
DA:533,3
DA:534,3
DA:537,3
DA:538,3
DA:539,3
DA:541,3
DA:542,3
DA:545,3
DA:546,3
DA:547,3
DA:549,3
DA:550,3
DA:555,0
DA:556,0
DA:557,0
DA:559,0
DA:560,0
DA:562,0
DA:563,0
DA:566,0
DA:567,0
DA:568,0
DA:570,0
DA:571,0
DA:574,0
DA:575,0
DA:576,0
DA:577,0
DA:579,0
DA:580,0
DA:583,0
DA:584,0
LF:347
LH:100
end_of_record
TN:
SF:/home/liying/sqlcc_qoder/src/sql_parser/lexer.cpp
FN:12,14,_ZNK5sqlcc10sql_parser5Lexer7isAtEndEv
FN:145,160,_ZN5sqlcc10sql_parser5Lexer10readStringEv
FN:16,25,_ZN5sqlcc10sql_parser5Lexer7advanceEv
FN:162,172,_ZN5sqlcc10sql_parser5Lexer10readNumberEv
FN:174,244,_ZN5sqlcc10sql_parser5Lexer14readIdentifierEv
FN:246,252,_ZN5sqlcc10sql_parser5Lexer15skipLineCommentEv
FN:254,266,_ZN5sqlcc10sql_parser5Lexer16skipBlockCommentEv
FN:27,32,_ZNK5sqlcc10sql_parser5Lexer4peekEv
FN:34,39,_ZNK5sqlcc10sql_parser5Lexer8peekNextEv
FN:41,143,_ZN5sqlcc10sql_parser5Lexer9nextTokenEv
FN:9,10,_ZN5sqlcc10sql_parser5LexerC2ERKNSt7__cxx1112basic_stringIcSt11char_traitsIcESaIcEEE
FNDA:1185,_ZNK5sqlcc10sql_parser5Lexer7isAtEndEv
FNDA:2,_ZN5sqlcc10sql_parser5Lexer10readStringEv
FNDA:549,_ZN5sqlcc10sql_parser5Lexer7advanceEv
FNDA:1,_ZN5sqlcc10sql_parser5Lexer10readNumberEv
FNDA:81,_ZN5sqlcc10sql_parser5Lexer14readIdentifierEv
FNDA:0,_ZN5sqlcc10sql_parser5Lexer15skipLineCommentEv
FNDA:0,_ZN5sqlcc10sql_parser5Lexer16skipBlockCommentEv
FNDA:539,_ZNK5sqlcc10sql_parser5Lexer4peekEv
FNDA:0,_ZNK5sqlcc10sql_parser5Lexer8peekNextEv
FNDA:119,_ZN5sqlcc10sql_parser5Lexer9nextTokenEv
FNDA:13,_ZN5sqlcc10sql_parser5LexerC2ERKNSt7__cxx1112basic_stringIcSt11char_traitsIcESaIcEEE
FNF:11
FNH:8
DA:9,13
DA:10,13
DA:12,1185
DA:13,1185
DA:16,549
DA:17,549
DA:18,549
DA:19,0
DA:20,0
DA:22,549
DA:24,549
DA:27,539
DA:28,539
DA:29,0
DA:31,539
DA:34,0
DA:35,0
DA:36,0
DA:38,0
DA:41,119
DA:42,189
DA:43,176
DA:46,176
DA:48,0
DA:49,0
DA:52,176
DA:54,0
DA:55,0
DA:58,176
DA:59,70
DA:64,70
DA:66,13
DA:67,39
DA:69,2
DA:70,6
DA:72,2
DA:73,6
DA:75,5
DA:76,15
DA:78,0
DA:79,0
DA:81,0
DA:82,0
DA:84,0
DA:85,0
DA:87,0
DA:88,0
DA:89,0
DA:90,0
DA:92,0
DA:95,0
DA:96,0
DA:97,0
DA:98,0
DA:100,0
DA:103,0
DA:104,0
DA:105,0
DA:106,0
DA:108,0
DA:111,2
DA:112,2
DA:114,0
DA:115,0
DA:117,0
DA:119,0
DA:120,0
DA:122,0
DA:125,0
DA:126,0
DA:128,0
DA:129,0
DA:131,82
DA:132,82
DA:133,1
DA:134,81
DA:135,81
DA:137,0
DA:142,39
DA:145,2
DA:146,2
DA:147,2
DA:149,24
DA:150,22
DA:153,2
DA:154,0
DA:157,2
DA:159,4
DA:160,2
DA:162,1
DA:163,1
DA:165,3
DA:166,2
DA:169,1
DA:171,2
DA:172,1
DA:174,81
DA:175,81
DA:177,428
DA:178,347
DA:181,81
DA:184,81
DA:185,509
DA:186,428
DA:189,81
DA:192,81
DA:193,77
DA:194,73
DA:195,71
DA:196,69
DA:197,69
DA:198,67
DA:199,66
DA:200,66
DA:201,64
DA:202,57
DA:203,57
DA:204,57
DA:205,57
DA:206,51
DA:207,50
DA:208,49
DA:209,49
DA:210,48
DA:211,48
DA:212,48
DA:213,48
DA:214,48
DA:215,48
DA:216,47
DA:217,46
DA:218,46
DA:219,46
DA:220,46
DA:221,46
DA:222,46
DA:223,46
DA:224,46
DA:225,46
DA:226,46
DA:227,46
DA:228,42
DA:229,39
DA:230,36
DA:231,34
DA:232,31
DA:233,28
DA:234,27
DA:235,26
DA:236,25
DA:237,25
DA:238,25
DA:239,25
DA:240,25
DA:241,25
DA:243,162
DA:244,81
DA:246,0
DA:248,0
DA:249,0
DA:250,0
DA:252,0
DA:254,0
DA:256,0
DA:258,0
DA:259,0
DA:260,0
DA:261,0
DA:262,0
DA:264,0
DA:266,0
LF:171
LH:113
end_of_record
TN:
SF:/home/liying/sqlcc_qoder/src/sql_parser/parser.cpp
FN:1014,1028,_ZN5sqlcc10sql_parser6Parser17parseUseStatementEv
FN:1031,1086,_ZN5sqlcc10sql_parser6Parser24parseCreateUserStatementEv
FN:1088,1106,_ZN5sqlcc10sql_parser6Parser22parseDropUserStatementEv
FN:11,11,_ZN5sqlcc10sql_parser6ParserC2ERKNSt7__cxx1112basic_stringIcSt11char_traitsIcESaIcEEE
FN:1108,1187,_ZN5sqlcc10sql_parser6Parser19parseGrantStatementEv
FN:1189,1265,_ZN5sqlcc10sql_parser6Parser20parseRevokeStatementEv
FN:1267,1351,_ZN5sqlcc10sql_parser6Parser18parseShowStatementEv
FN:13,13,_ZN5sqlcc10sql_parser6Parser9nextTokenEv
FN:139,154,_ZN5sqlcc10sql_parser6Parser28parseCreateDatabaseStatementEv
FN:15,15,_ZN5sqlcc10sql_parser6Parser5matchENS0_5Token4TypeE
FN:156,175,_ZN5sqlcc10sql_parser6Parser25parseCreateTableStatementEv
FN:17,26,_ZN5sqlcc10sql_parser6Parser7consumeENS0_5Token4TypeE
FN:177,228,_ZN5sqlcc10sql_parser6Parser25parseCreateIndexStatementEv
FN:230,259,_ZN5sqlcc10sql_parser6Parser22parseColumnDefinitionsERNS0_15CreateStatementE
FN:261,288,_ZN5sqlcc10sql_parser6Parser13parseDataTypeB5cxx11Ev
FN:28,28,_ZN5sqlcc10sql_parser6Parser7consumeEv
FN:290,296,_ZN5sqlcc10sql_parser6Parser18isColumnConstraintEv
FN:298,332,_ZN5sqlcc10sql_parser6Parser21parseColumnConstraintERNS0_16ColumnDefinitionE
FN:30,35,_ZN5sqlcc10sql_parser6Parser6expectENS0_5Token4TypeERKNSt7__cxx1112basic_stringIcSt11char_traitsIcESaIcEEE
FN:334,363,_ZN5sqlcc10sql_parser6Parser20parseSelectStatementEv
FN:365,408,_ZN5sqlcc10sql_parser6Parser15parseSelectListERNS0_15SelectStatementE
FN:37,41,_ZN5sqlcc10sql_parser6Parser11reportErrorERKNSt7__cxx1112basic_stringIcSt11char_traitsIcESaIcEEE
FN:410,481,_ZN5sqlcc10sql_parser6Parser15parseFromClauseERNS0_15SelectStatementE
FN:43,64,_ZN5sqlcc10sql_parser6Parser15parseStatementsEv
FN:483,540,_ZN5sqlcc10sql_parser6Parser18parseJoinConditionERNS0_15SelectStatementE
FN:542,574,_ZN5sqlcc10sql_parser6Parser16parseWhereClauseERNS0_15SelectStatementE
FN:576,588,_ZN5sqlcc10sql_parser6Parser18parseGroupByClauseERNS0_15SelectStatementE
FN:590,639,_ZN5sqlcc10sql_parser6Parser18parseOrderByClauseERNS0_15SelectStatementE
FN:641,669,_ZN5sqlcc10sql_parser6Parser22parseLimitOffsetClauseERNS0_15SelectStatementE
FN:66,93,_ZN5sqlcc10sql_parser6Parser14parseStatementEv
FN:671,694,_ZN5sqlcc10sql_parser6Parser20parseInsertStatementEv
FN:696,718,_ZN5sqlcc10sql_parser6Parser18parseInsertColumnsERNS0_15InsertStatementE
FN:720,747,_ZN5sqlcc10sql_parser6Parser17parseInsertValuesERNS0_15InsertStatementE
FN:749,769,_ZN5sqlcc10sql_parser6Parser20parseUpdateStatementEv
FN:771,802,_ZN5sqlcc10sql_parser6Parser20parseUpdateSetClauseERNS0_15UpdateStatementE
FN:804,836,_ZN5sqlcc10sql_parser6Parser16parseWhereClauseERNS0_15UpdateStatementE
FN:838,857,_ZN5sqlcc10sql_parser6Parser20parseDeleteStatementEv
FN:859,891,_ZN5sqlcc10sql_parser6Parser16parseWhereClauseERNS0_15DeleteStatementE
FN:893,913,_ZN5sqlcc10sql_parser6Parser18parseDropStatementEv
FN:915,929,_ZN5sqlcc10sql_parser6Parser26parseDropDatabaseStatementEv
FN:931,945,_ZN5sqlcc10sql_parser6Parser23parseDropTableStatementEv
FN:947,983,_ZN5sqlcc10sql_parser6Parser23parseDropIndexStatementEv
FN:95,137,_ZN5sqlcc10sql_parser6Parser20parseCreateStatementEv
FN:985,995,_ZN5sqlcc10sql_parser6Parser19parseAlterStatementEv
FN:997,1012,_ZN5sqlcc10sql_parser6Parser27parseAlterDatabaseStatementEv
FNDA:0,_ZN5sqlcc10sql_parser6Parser17parseUseStatementEv
FNDA:2,_ZN5sqlcc10sql_parser6Parser24parseCreateUserStatementEv
FNDA:2,_ZN5sqlcc10sql_parser6Parser22parseDropUserStatementEv
FNDA:13,_ZN5sqlcc10sql_parser6ParserC2ERKNSt7__cxx1112basic_stringIcSt11char_traitsIcESaIcEEE
FNDA:3,_ZN5sqlcc10sql_parser6Parser19parseGrantStatementEv
FNDA:3,_ZN5sqlcc10sql_parser6Parser20parseRevokeStatementEv
FNDA:0,_ZN5sqlcc10sql_parser6Parser18parseShowStatementEv
FNDA:119,_ZN5sqlcc10sql_parser6Parser9nextTokenEv
FNDA:1,_ZN5sqlcc10sql_parser6Parser28parseCreateDatabaseStatementEv
FNDA:258,_ZN5sqlcc10sql_parser6Parser5matchENS0_5Token4TypeE
FNDA:1,_ZN5sqlcc10sql_parser6Parser25parseCreateTableStatementEv
FNDA:19,_ZN5sqlcc10sql_parser6Parser7consumeENS0_5Token4TypeE
FNDA:0,_ZN5sqlcc10sql_parser6Parser25parseCreateIndexStatementEv
FNDA:1,_ZN5sqlcc10sql_parser6Parser22parseColumnDefinitionsERNS0_15CreateStatementE
FNDA:2,_ZN5sqlcc10sql_parser6Parser13parseDataTypeB5cxx11Ev
FNDA:87,_ZN5sqlcc10sql_parser6Parser7consumeEv
FNDA:3,_ZN5sqlcc10sql_parser6Parser18isColumnConstraintEv
FNDA:1,_ZN5sqlcc10sql_parser6Parser21parseColumnConstraintERNS0_16ColumnDefinitionE
FNDA:13,_ZN5sqlcc10sql_parser6Parser6expectENS0_5Token4TypeERKNSt7__cxx1112basic_stringIcSt11char_traitsIcESaIcEEE
FNDA:0,_ZN5sqlcc10sql_parser6Parser20parseSelectStatementEv
FNDA:0,_ZN5sqlcc10sql_parser6Parser15parseSelectListERNS0_15SelectStatementE
FNDA:0,_ZN5sqlcc10sql_parser6Parser11reportErrorERKNSt7__cxx1112basic_stringIcSt11char_traitsIcESaIcEEE
FNDA:0,_ZN5sqlcc10sql_parser6Parser15parseFromClauseERNS0_15SelectStatementE
FNDA:13,_ZN5sqlcc10sql_parser6Parser15parseStatementsEv
FNDA:0,_ZN5sqlcc10sql_parser6Parser18parseJoinConditionERNS0_15SelectStatementE
FNDA:0,_ZN5sqlcc10sql_parser6Parser16parseWhereClauseERNS0_15SelectStatementE
FNDA:0,_ZN5sqlcc10sql_parser6Parser18parseGroupByClauseERNS0_15SelectStatementE
FNDA:0,_ZN5sqlcc10sql_parser6Parser18parseOrderByClauseERNS0_15SelectStatementE
FNDA:0,_ZN5sqlcc10sql_parser6Parser22parseLimitOffsetClauseERNS0_15SelectStatementE
FNDA:13,_ZN5sqlcc10sql_parser6Parser14parseStatementEv
FNDA:0,_ZN5sqlcc10sql_parser6Parser20parseInsertStatementEv
FNDA:0,_ZN5sqlcc10sql_parser6Parser18parseInsertColumnsERNS0_15InsertStatementE
FNDA:0,_ZN5sqlcc10sql_parser6Parser17parseInsertValuesERNS0_15InsertStatementE
FNDA:0,_ZN5sqlcc10sql_parser6Parser20parseUpdateStatementEv
FNDA:0,_ZN5sqlcc10sql_parser6Parser20parseUpdateSetClauseERNS0_15UpdateStatementE
FNDA:0,_ZN5sqlcc10sql_parser6Parser16parseWhereClauseERNS0_15UpdateStatementE
FNDA:0,_ZN5sqlcc10sql_parser6Parser20parseDeleteStatementEv
FNDA:0,_ZN5sqlcc10sql_parser6Parser16parseWhereClauseERNS0_15DeleteStatementE
FNDA:2,_ZN5sqlcc10sql_parser6Parser18parseDropStatementEv
FNDA:0,_ZN5sqlcc10sql_parser6Parser26parseDropDatabaseStatementEv
FNDA:0,_ZN5sqlcc10sql_parser6Parser23parseDropTableStatementEv
FNDA:0,_ZN5sqlcc10sql_parser6Parser23parseDropIndexStatementEv
FNDA:4,_ZN5sqlcc10sql_parser6Parser20parseCreateStatementEv
FNDA:1,_ZN5sqlcc10sql_parser6Parser19parseAlterStatementEv
FNDA:1,_ZN5sqlcc10sql_parser6Parser27parseAlterDatabaseStatementEv
FNF:45
FNH:22
DA:11,13
DA:13,119
DA:15,258
DA:17,19
DA:18,19
DA:19,19
DA:21,0
DA:22,0
DA:23,0
DA:24,0
DA:25,0
DA:26,19
DA:28,87
DA:30,13
DA:31,13
DA:32,0
DA:34,13
DA:35,13
DA:37,0
DA:39,0
DA:40,0
DA:43,13
DA:44,13
DA:46,26
DA:47,13
DA:48,0
DA:49,0
DA:52,13
DA:53,13
DA:54,13
DA:58,13
DA:59,13
DA:61,13
DA:63,13
DA:64,0
DA:66,13
DA:67,13
DA:68,4
DA:69,9
DA:70,0
DA:71,9
DA:72,0
DA:73,9
DA:74,0
DA:75,9
DA:76,0
DA:77,9
DA:78,2
DA:79,7
DA:80,1
DA:81,6
DA:82,0
DA:83,6
DA:84,3
DA:85,3
DA:86,3
DA:87,0
DA:88,0
DA:90,0
DA:91,0
DA:95,4
DA:96,4
DA:99,4
DA:100,4
DA:101,0
DA:102,0
DA:105,0
DA:106,0
DA:107,0
DA:111,0
DA:112,0
DA:113,0
DA:115,0
DA:116,0
DA:118,4
DA:119,1
DA:120,1
DA:121,4
DA:122,1
DA:123,1
DA:124,3
DA:126,2
DA:127,2
DA:128,0
DA:131,0
DA:132,0
DA:133,0
DA:134,0
DA:135,0
DA:139,1
DA:140,1
DA:142,1
DA:143,0
DA:144,0
DA:147,1
DA:148,1
DA:151,1
DA:153,1
DA:154,1
DA:156,1
DA:157,1
DA:159,1
DA:160,0
DA:161,0
DA:164,1
DA:165,1
DA:168,1
DA:170,1
DA:171,1
DA:172,1
DA:174,1
DA:175,1
DA:177,0
DA:178,0
DA:180,0
DA:181,0
DA:182,0
DA:185,0
DA:186,0
DA:188,0
DA:190,0
DA:191,0
DA:192,0
DA:195,0
DA:196,0
DA:198,0
DA:201,0
DA:202,0
DA:203,0
DA:206,0
DA:207,0
DA:210,0
DA:213,0
DA:214,0
DA:216,0
DA:217,0
DA:218,0
DA:221,0
DA:222,0
DA:225,0
DA:227,0
DA:228,0
DA:230,1
DA:232,2
DA:233,0
DA:234,0
DA:237,2
DA:238,2
DA:240,2
DA:242,2
DA:245,3
DA:246,1
DA:249,2
DA:252,2
DA:253,1
DA:256,1
DA:258,5
DA:261,2
DA:262,2
DA:263,0
DA:264,0
DA:267,2
DA:268,2
DA:271,2
DA:272,1
DA:274,1
DA:275,0
DA:276,0
DA:279,1
DA:280,1
DA:282,1
DA:284,1
DA:285,1
DA:287,2
DA:288,2
DA:290,3
DA:291,5
DA:292,2
DA:293,2
DA:294,7
DA:295,5
DA:298,1
DA:299,1
DA:301,1
DA:302,1
DA:303,1
DA:304,1
DA:305,1
DA:306,0
DA:307,0
DA:308,0
DA:309,0
DA:310,0
DA:311,0
DA:312,0
DA:313,0
DA:314,0
DA:315,0
DA:316,0
DA:317,0
DA:319,0
DA:320,0
DA:321,0
DA:322,0
DA:323,0
DA:324,0
DA:326,0
DA:327,0
DA:328,0
DA:330,0
DA:332,1
DA:334,0
DA:335,0
DA:337,0
DA:339,0
DA:341,0
DA:342,0
DA:345,0
DA:346,0
DA:349,0
DA:350,0
DA:353,0
DA:354,0
DA:358,0
DA:359,0
DA:362,0
DA:363,0
DA:365,0
DA:366,0
DA:367,0
DA:368,0
DA:369,0
DA:374,0
DA:377,0
DA:378,0
DA:379,0
DA:382,0
DA:383,0
DA:385,0
DA:386,0
DA:387,0
DA:390,0
DA:391,0
DA:394,0
DA:396,0
DA:397,0
DA:401,0
DA:402,0
DA:405,0
DA:407,0
DA:410,0
DA:411,0
DA:413,0
DA:414,0
DA:415,0
DA:418,0
DA:419,0
DA:420,0
DA:425,0
DA:426,0
DA:427,0
DA:430,0
DA:431,0
DA:432,0
DA:433,0
DA:434,0
DA:435,0
DA:436,0
DA:439,0
DA:440,0
DA:442,0
DA:443,0
DA:444,0
DA:445,0
DA:446,0
DA:447,0
DA:448,0
DA:449,0
DA:451,0
DA:452,0
DA:456,0
DA:460,0
DA:461,0
DA:462,0
DA:465,0
DA:466,0
DA:469,0
DA:470,0
DA:471,0
DA:473,0
DA:476,0
DA:478,0
DA:480,0
DA:481,0
DA:483,0
DA:485,0
DA:486,0
DA:487,0
DA:490,0
DA:491,0
DA:493,0
DA:494,0
DA:495,0
DA:497,0
DA:499,0
DA:500,0
DA:501,0
DA:504,0
DA:505,0
DA:507,0
DA:508,0
DA:509,0
DA:511,0
DA:513,0
DA:514,0
DA:515,0
DA:518,0
DA:519,0
DA:521,0
DA:522,0
DA:523,0
DA:525,0
DA:527,0
DA:528,0
DA:529,0
DA:532,0
DA:533,0
DA:536,0
DA:537,0
DA:540,0
DA:542,0
DA:543,0
DA:546,0
DA:547,0
DA:548,0
DA:551,0
DA:552,0
DA:554,0
DA:555,0
DA:556,0
DA:557,0
DA:558,0
DA:561,0
DA:562,0
DA:564,0
DA:565,0
DA:566,0
DA:569,0
DA:570,0
DA:572,0
DA:573,0
DA:574,0
DA:576,0
DA:577,0
DA:578,0
DA:580,0
DA:581,0
DA:582,0
DA:585,0
DA:586,0
DA:587,0
DA:588,0
DA:590,0
DA:591,0
DA:592,0
DA:596,0
DA:597,0
DA:598,0
DA:601,0
DA:602,0
DA:605,0
DA:606,0
DA:609,0
DA:610,0
DA:612,0
DA:614,0
DA:615,0
DA:616,0
DA:618,0
DA:621,0
DA:622,0
DA:623,0
DA:625,0
DA:626,0
DA:628,0
DA:632,0
DA:633,0
DA:636,0
DA:638,0
DA:641,0
DA:643,0
DA:644,0
DA:648,0
DA:649,0
DA:650,0
DA:652,0
DA:653,0
DA:657,0
DA:658,0
DA:661,0
DA:662,0
DA:663,0
DA:665,0
DA:666,0
DA:671,0
DA:672,0
DA:673,0
DA:675,0
DA:676,0
DA:677,0
DA:680,0
DA:681,0
DA:683,0
DA:686,0
DA:687,0
DA:690,0
DA:691,0
DA:693,0
DA:694,0
DA:696,0
DA:697,0
DA:700,0
DA:701,0
DA:702,0
DA:705,0
DA:706,0
DA:707,0
DA:709,0
DA:710,0
DA:713,0
DA:715,0
DA:717,0
DA:720,0
DA:721,0
DA:724,0
DA:725,0
DA:726,0
DA:727,0
DA:728,0
DA:729,0
DA:731,0
DA:732,0
DA:734,0
DA:735,0
DA:738,0
DA:739,0
DA:742,0
DA:744,0
DA:746,0
DA:749,0
DA:750,0
DA:752,0
DA:753,0
DA:754,0
DA:757,0
DA:758,0
DA:760,0
DA:762,0
DA:764,0
DA:765,0
DA:768,0
DA:769,0
DA:771,0
DA:772,0
DA:775,0
DA:776,0
DA:777,0
DA:780,0
DA:781,0
DA:783,0
DA:785,0
DA:786,0
DA:787,0
DA:788,0
DA:789,0
DA:790,0
DA:791,0
DA:794,0
DA:795,0
DA:798,0
DA:800,0
DA:801,0
DA:804,0
DA:805,0
DA:808,0
DA:809,0
DA:810,0
DA:813,0
DA:814,0
DA:816,0
DA:817,0
DA:818,0
DA:819,0
DA:820,0
DA:823,0
DA:824,0
DA:826,0
DA:827,0
DA:828,0
DA:831,0
DA:832,0
DA:834,0
DA:835,0
DA:836,0
DA:838,0
DA:839,0
DA:840,0
DA:842,0
DA:843,0
DA:844,0
DA:847,0
DA:848,0
DA:850,0
DA:852,0
DA:853,0
DA:856,0
DA:857,0
DA:859,0
DA:860,0
DA:863,0
DA:864,0
DA:865,0
DA:868,0
DA:869,0
DA:871,0
DA:872,0
DA:873,0
DA:874,0
DA:875,0
DA:878,0
DA:879,0
DA:881,0
DA:882,0
DA:883,0
DA:886,0
DA:887,0
DA:889,0
DA:890,0
DA:891,0
DA:893,2
DA:894,2
DA:896,2
DA:897,0
DA:898,0
DA:899,2
DA:900,0
DA:901,0
DA:902,2
DA:903,0
DA:904,0
DA:905,2
DA:907,2
DA:908,2
DA:910,0
DA:911,0
DA:915,0
DA:916,0
DA:918,0
DA:919,0
DA:920,0
DA:923,0
DA:924,0
DA:926,0
DA:928,0
DA:929,0
DA:931,0
DA:932,0
DA:934,0
DA:935,0
DA:936,0
DA:939,0
DA:940,0
DA:942,0
DA:944,0
DA:945,0
DA:947,0
DA:948,0
DA:951,0
DA:952,0
DA:953,0
DA:954,0
DA:955,0
DA:958,0
DA:959,0
DA:960,0
DA:963,0
DA:964,0
DA:966,0
DA:967,0
DA:970,0
DA:971,0
DA:973,0
DA:974,0
DA:975,0
DA:978,0
DA:979,0
DA:982,0
DA:983,0
DA:985,1
DA:986,1
DA:988,1
DA:989,1
DA:991,0
DA:992,0
DA:993,0
DA:997,1
DA:998,1
DA:1000,1
DA:1001,0
DA:1002,0
DA:1005,1
DA:1006,1
DA:1009,1
DA:1011,1
DA:1012,1
DA:1014,0
DA:1015,0
DA:1017,0
DA:1018,0
DA:1019,0
DA:1022,0
DA:1023,0
DA:1025,0
DA:1027,0
DA:1028,0
DA:1031,2
DA:1035,2
DA:1036,0
DA:1037,0
DA:1040,2
DA:1041,2
DA:1043,2
DA:1044,2
DA:1047,2
DA:1048,1
DA:1049,1
DA:1051,1
DA:1052,0
DA:1053,0
DA:1056,1
DA:1058,1
DA:1059,0
DA:1060,0
DA:1062,1
DA:1063,1
DA:1064,1
DA:1065,1
DA:1066,1
DA:1068,1
DA:1069,0
DA:1070,0
DA:1073,1
DA:1075,1
DA:1076,0
DA:1077,0
DA:1079,1
DA:1082,2
DA:1083,2
DA:1085,2
DA:1086,2
DA:1088,2
DA:1091,2
DA:1092,2
DA:1093,1
DA:1094,1
DA:1095,1
DA:1099,2
DA:1100,2
DA:1102,2
DA:1103,2
DA:1105,4
DA:1106,2
DA:1108,3
DA:1109,3
DA:1111,3
DA:1115,3
DA:1116,1
DA:1117,2
DA:1118,1
DA:1119,1
DA:1121,3
DA:1124,8
DA:1125,4
DA:1126,2
DA:1127,1
DA:1128,0
DA:1129,0
DA:1130,0
DA:1133,4
DA:1134,4
DA:1135,4
DA:1137,4
DA:1138,2
DA:1141,2
DA:1142,6
DA:1146,3
DA:1147,3
DA:1150,3
DA:1151,0
DA:1152,0
DA:1153,0
DA:1156,3
DA:1158,3
DA:1160,3
DA:1161,3
DA:1164,3
DA:1165,0
DA:1166,0
DA:1169,3
DA:1170,3
DA:1171,3
DA:1172,3
DA:1174,3
DA:1177,3
DA:1178,0
DA:1179,0
DA:1182,3
DA:1183,3
DA:1184,3
DA:1186,3
DA:1187,3
DA:1189,3
DA:1190,3
DA:1192,3
DA:1196,3
DA:1197,1
DA:1198,2
DA:1199,1
DA:1200,1
DA:1202,3
DA:1205,8
DA:1206,4
DA:1207,2
DA:1208,1
DA:1209,0
DA:1210,0
DA:1211,0
DA:1214,4
DA:1215,4
DA:1216,4
DA:1218,4
DA:1219,2
DA:1222,2
DA:1223,6
DA:1226,3
DA:1229,3
DA:1230,0
DA:1231,0
DA:1232,0
DA:1235,3
DA:1237,3
DA:1239,3
DA:1240,3
DA:1243,3
DA:1244,0
DA:1245,0
DA:1248,3
DA:1249,3
DA:1250,3
DA:1252,3
DA:1255,3
DA:1256,0
DA:1257,0
DA:1260,3
DA:1261,3
DA:1262,3
DA:1264,3
DA:1265,3
DA:1267,0
DA:1268,0
DA:1271,0
DA:1272,0
DA:1273,0
DA:1274,0
DA:1275,0
DA:1276,0
DA:1277,0
DA:1280,0
DA:1281,0
DA:1282,0
DA:1283,0
DA:1284,0
DA:1286,0
DA:1287,0
DA:1290,0
DA:1291,0
DA:1292,0
DA:1293,0
DA:1295,0
DA:1296,0
DA:1297,0
DA:1300,0
DA:1301,0
DA:1302,0
DA:1304,0
DA:1305,0
DA:1306,0
DA:1307,0
DA:1309,0
DA:1310,0
DA:1311,0
DA:1314,0
DA:1315,0
DA:1316,0
DA:1318,0
DA:1319,0
DA:1320,0
DA:1321,0
DA:1323,0
DA:1324,0
DA:1325,0
DA:1328,0
DA:1329,0
DA:1330,0
DA:1332,0
DA:1333,0
DA:1334,0
DA:1335,0
DA:1337,0
DA:1338,0
DA:1339,0
DA:1342,0
DA:1343,0
DA:1344,0
DA:1346,0
DA:1347,0
DA:1348,0
DA:1349,0
LF:828
LH:245
end_of_record
TN:
SF:/home/liying/sqlcc_qoder/src/sql_parser/token.cpp
FN:13,15,_ZNK5sqlcc10sql_parser5Token7getTypeEv
FN:17,19,_ZNK5sqlcc10sql_parser5Token9getLexemeB5cxx11Ev
FN:21,23,_ZNK5sqlcc10sql_parser5Token7getLineEv
FN:25,27,_ZNK5sqlcc10sql_parser5Token9getColumnEv
FN:29,121,_ZN5sqlcc10sql_parser5Token11getTypeNameB5cxx11ENS1_4TypeE
FN:6,7,_ZN5sqlcc10sql_parser5TokenC2Ev
FN:9,11,_ZN5sqlcc10sql_parser5TokenC2ENS1_4TypeERKNSt7__cxx1112basic_stringIcSt11char_traitsIcESaIcEEEii
FNDA:291,_ZNK5sqlcc10sql_parser5Token7getTypeEv
FNDA:45,_ZNK5sqlcc10sql_parser5Token9getLexemeB5cxx11Ev
FNDA:0,_ZNK5sqlcc10sql_parser5Token7getLineEv
FNDA:0,_ZNK5sqlcc10sql_parser5Token9getColumnEv
FNDA:0,_ZN5sqlcc10sql_parser5Token11getTypeNameB5cxx11ENS1_4TypeE
FNDA:13,_ZN5sqlcc10sql_parser5TokenC2Ev
FNDA:119,_ZN5sqlcc10sql_parser5TokenC2ENS1_4TypeERKNSt7__cxx1112basic_stringIcSt11char_traitsIcESaIcEEEii
FNF:7
FNH:4
DA:6,26
DA:7,13
DA:9,119
DA:10,119
DA:11,119
DA:13,291
DA:14,291
DA:17,45
DA:18,45
DA:21,0
DA:22,0
DA:25,0
DA:26,0
DA:29,0
DA:30,0
DA:31,0
DA:32,0
DA:33,0
DA:34,0
DA:35,0
DA:36,0
DA:37,0
DA:38,0
DA:39,0
DA:40,0
DA:41,0
DA:42,0
DA:43,0
DA:44,0
DA:45,0
DA:46,0
DA:47,0
DA:48,0
DA:49,0
DA:50,0
DA:51,0
DA:52,0
DA:53,0
DA:54,0
DA:55,0
DA:56,0
DA:57,0
DA:58,0
DA:59,0
DA:60,0
DA:61,0
DA:62,0
DA:63,0
DA:64,0
DA:65,0
DA:66,0
DA:67,0
DA:68,0
DA:69,0
DA:70,0
DA:71,0
DA:72,0
DA:73,0
DA:74,0
DA:75,0
DA:76,0
DA:77,0
DA:78,0
DA:79,0
DA:80,0
DA:81,0
DA:82,0
DA:83,0
DA:84,0
DA:85,0
DA:86,0
DA:87,0
DA:88,0
DA:89,0
DA:90,0
DA:91,0
DA:92,0
DA:93,0
DA:94,0
DA:95,0
DA:96,0
DA:97,0
DA:98,0
DA:99,0
DA:100,0
DA:101,0
DA:102,0
DA:103,0
DA:104,0
DA:105,0
DA:106,0
DA:107,0
DA:108,0
DA:109,0
DA:110,0
DA:111,0
DA:112,0
DA:113,0
DA:114,0
DA:115,0
DA:116,0
DA:117,0
DA:118,0
DA:119,0
LF:104
LH:9
end_of_record
TN:
SF:/usr/include/c++/13/bits/alloc_traits.h
FNF:0
FNH:0
DA:482,234
DA:517,264
DA:538,31
DA:542,31
DA:562,6
DA:574,175
DA:588,55
DA:661,31
DA:675,31
DA:948,272
DA:949,272
LF:11
LH:11
end_of_record
TN:
SF:/usr/include/c++/13/bits/allocated_ptr.h
FN:53,55,_ZNSt15__allocated_ptrISaISt23_Sp_counted_ptr_inplaceIN5sqlcc7network12AESEncryptorESaIvELN9__gnu_cxx12_Lock_policyE2EEEEC2ERS8_PS7_
FN:53,55,_ZNSt15__allocated_ptrISaISt23_Sp_counted_ptr_inplaceIN5sqlcc7network13EncryptionKeyESaIvELN9__gnu_cxx12_Lock_policyE2EEEEC2ERS8_PS7_
FN:71,75,_ZNSt15__allocated_ptrISaISt23_Sp_counted_ptr_inplaceIN5sqlcc7network12AESEncryptorESaIvELN9__gnu_cxx12_Lock_policyE2EEEED2Ev
FN:71,75,_ZNSt15__allocated_ptrISaISt23_Sp_counted_ptr_inplaceIN5sqlcc7network13EncryptionKeyESaIvELN9__gnu_cxx12_Lock_policyE2EEEED2Ev
FN:79,83,_ZNSt15__allocated_ptrISaISt23_Sp_counted_ptr_inplaceIN5sqlcc7network12AESEncryptorESaIvELN9__gnu_cxx12_Lock_policyE2EEEEaSEDn
FN:79,83,_ZNSt15__allocated_ptrISaISt23_Sp_counted_ptr_inplaceIN5sqlcc7network13EncryptionKeyESaIvELN9__gnu_cxx12_Lock_policyE2EEEEaSEDn
FN:86,86,_ZNSt15__allocated_ptrISaISt23_Sp_counted_ptr_inplaceIN5sqlcc7network12AESEncryptorESaIvELN9__gnu_cxx12_Lock_policyE2EEEE3getEv
FN:86,86,_ZNSt15__allocated_ptrISaISt23_Sp_counted_ptr_inplaceIN5sqlcc7network13EncryptionKeyESaIvELN9__gnu_cxx12_Lock_policyE2EEEE3getEv
FN:96,99,_ZSt18__allocate_guardedISaISt23_Sp_counted_ptr_inplaceIN5sqlcc7network12AESEncryptorESaIvELN9__gnu_cxx12_Lock_policyE2EEEESt15__allocated_ptrIT_ERSA_
FN:96,99,_ZSt18__allocate_guardedISaISt23_Sp_counted_ptr_inplaceIN5sqlcc7network13EncryptionKeyESaIvELN9__gnu_cxx12_Lock_policyE2EEEESt15__allocated_ptrIT_ERSA_
FNDA:12,_ZNSt15__allocated_ptrISaISt23_Sp_counted_ptr_inplaceIN5sqlcc7network12AESEncryptorESaIvELN9__gnu_cxx12_Lock_policyE2EEEEC2ERS8_PS7_
FNDA:50,_ZNSt15__allocated_ptrISaISt23_Sp_counted_ptr_inplaceIN5sqlcc7network13EncryptionKeyESaIvELN9__gnu_cxx12_Lock_policyE2EEEEC2ERS8_PS7_
FNDA:12,_ZNSt15__allocated_ptrISaISt23_Sp_counted_ptr_inplaceIN5sqlcc7network12AESEncryptorESaIvELN9__gnu_cxx12_Lock_policyE2EEEED2Ev
FNDA:50,_ZNSt15__allocated_ptrISaISt23_Sp_counted_ptr_inplaceIN5sqlcc7network13EncryptionKeyESaIvELN9__gnu_cxx12_Lock_policyE2EEEED2Ev
FNDA:6,_ZNSt15__allocated_ptrISaISt23_Sp_counted_ptr_inplaceIN5sqlcc7network12AESEncryptorESaIvELN9__gnu_cxx12_Lock_policyE2EEEEaSEDn
FNDA:25,_ZNSt15__allocated_ptrISaISt23_Sp_counted_ptr_inplaceIN5sqlcc7network13EncryptionKeyESaIvELN9__gnu_cxx12_Lock_policyE2EEEEaSEDn
FNDA:6,_ZNSt15__allocated_ptrISaISt23_Sp_counted_ptr_inplaceIN5sqlcc7network12AESEncryptorESaIvELN9__gnu_cxx12_Lock_policyE2EEEE3getEv
FNDA:25,_ZNSt15__allocated_ptrISaISt23_Sp_counted_ptr_inplaceIN5sqlcc7network13EncryptionKeyESaIvELN9__gnu_cxx12_Lock_policyE2EEEE3getEv
FNDA:6,_ZSt18__allocate_guardedISaISt23_Sp_counted_ptr_inplaceIN5sqlcc7network12AESEncryptorESaIvELN9__gnu_cxx12_Lock_policyE2EEEESt15__allocated_ptrIT_ERSA_
FNDA:25,_ZSt18__allocate_guardedISaISt23_Sp_counted_ptr_inplaceIN5sqlcc7network13EncryptionKeyESaIvELN9__gnu_cxx12_Lock_policyE2EEEESt15__allocated_ptrIT_ERSA_
FNF:10
FNH:10
DA:53,62
DA:54,62
DA:55,62
DA:71,62
DA:73,62
DA:74,31
DA:75,62
DA:79,31
DA:81,31
DA:82,31
DA:86,31
DA:96,31
DA:98,31
LF:13
LH:13
end_of_record
TN:
SF:/usr/include/c++/13/bits/allocator.h
FNF:0
FNH:0
DA:163,340
DA:168,355
DA:178,62
DA:184,558
LF:4
LH:4
end_of_record
TN:
SF:/usr/include/c++/13/bits/basic_string.h
FN:3528,3541,_ZSt12__str_concatINSt7__cxx1112basic_stringIcSt11char_traitsIcESaIcEEEET_PKNS6_10value_typeENS6_9size_typeES9_SA_RKNS6_14allocator_typeE
FN:3571,3579,_ZStplIcSt11char_traitsIcESaIcEENSt7__cxx1112basic_stringIT_T0_T1_EEPKS5_RKS8_
FN:3607,3615,_ZStplIcSt11char_traitsIcESaIcEENSt7__cxx1112basic_stringIT_T0_T1_EERKS8_PKS5_
FN:3637,3639,_ZStplIcSt11char_traitsIcESaIcEENSt7__cxx1112basic_stringIT_T0_T1_EEOS8_RKS8_
FN:3651,3669,_ZStplIcSt11char_traitsIcESaIcEENSt7__cxx1112basic_stringIT_T0_T1_EEOS8_S9_
FN:3674,3676,_ZStplIcSt11char_traitsIcESaIcEENSt7__cxx1112basic_stringIT_T0_T1_EEPKS5_OS8_
FN:3688,3690,_ZStplIcSt11char_traitsIcESaIcEENSt7__cxx1112basic_stringIT_T0_T1_EEOS8_PKS5_
FN:3710,3716,_ZSteqIcSt11char_traitsIcESaIcEEbRKNSt7__cxx1112basic_stringIT_T0_T1_EESA_
FN:3727,3732,_ZSteqIcSt11char_traitsIcESaIcEEbRKNSt7__cxx1112basic_stringIT_T0_T1_EEPKS5_
FN:3788,3791,_ZStneIcSt11char_traitsIcESaIcEEbRKNSt7__cxx1112basic_stringIT_T0_T1_EESA_
FN:3815,3817,_ZStneIcSt11char_traitsIcESaIcEEbRKNSt7__cxx1112basic_stringIT_T0_T1_EEPKS5_
FN:3829,3832,_ZStltIcSt11char_traitsIcESaIcEEbRKNSt7__cxx1112basic_stringIT_T0_T1_EESA_
FN:3870,3873,_ZStgtIcSt11char_traitsIcESaIcEEbRKNSt7__cxx1112basic_stringIT_T0_T1_EESA_
FN:3911,3914,_ZStleIcSt11char_traitsIcESaIcEEbRKNSt7__cxx1112basic_stringIT_T0_T1_EESA_
FN:3952,3955,_ZStgeIcSt11char_traitsIcESaIcEEbRKNSt7__cxx1112basic_stringIT_T0_T1_EESA_
FN:4120,4122,_ZNSt7__cxx114stoiERKNS_12basic_stringIcSt11char_traitsIcESaIcEEEPmi
FN:4162,4173,_ZNSt7__cxx119to_stringEi
FN:4407,4408,_ZNKSt15__str_hash_baseIcSaIcENSt7__cxx1112basic_stringIcSt11char_traitsIcES0_EEEclERKS5_
FN:458,462,_ZNSt7__cxx1112basic_stringIcSt11char_traitsIcESaIcEE13_S_copy_charsIN9__gnu_cxx17__normal_iteratorIPhSt6vectorIhSaIhEEEEEEvPcT_SE_
FN:641,650,_ZNSt7__cxx1112basic_stringIcSt11char_traitsIcESaIcEEC2IS3_EEPKcRKS3_
FN:664,666,_ZNSt7__cxx1112basic_stringIcSt11char_traitsIcESaIcEEC2IS3_EEmcRKS3_
FN:760,770,_ZNSt7__cxx1112basic_stringIcSt11char_traitsIcESaIcEEC2IN9__gnu_cxx17__normal_iteratorIPhSt6vectorIhSaIhEEEEvEET_SD_RKS3_
FNDA:1,_ZSt12__str_concatINSt7__cxx1112basic_stringIcSt11char_traitsIcESaIcEEEET_PKNS6_10value_typeENS6_9size_typeES9_SA_RKNS6_14allocator_typeE
FNDA:1,_ZStplIcSt11char_traitsIcESaIcEENSt7__cxx1112basic_stringIT_T0_T1_EEPKS5_RKS8_
FNDA:0,_ZStplIcSt11char_traitsIcESaIcEENSt7__cxx1112basic_stringIT_T0_T1_EERKS8_PKS5_
FNDA:0,_ZStplIcSt11char_traitsIcESaIcEENSt7__cxx1112basic_stringIT_T0_T1_EEOS8_RKS8_
FNDA:0,_ZStplIcSt11char_traitsIcESaIcEENSt7__cxx1112basic_stringIT_T0_T1_EEOS8_S9_
FNDA:0,_ZStplIcSt11char_traitsIcESaIcEENSt7__cxx1112basic_stringIT_T0_T1_EEPKS5_OS8_
FNDA:1,_ZStplIcSt11char_traitsIcESaIcEENSt7__cxx1112basic_stringIT_T0_T1_EEOS8_PKS5_
FNDA:9,_ZSteqIcSt11char_traitsIcESaIcEEbRKNSt7__cxx1112basic_stringIT_T0_T1_EESA_
FNDA:2530,_ZSteqIcSt11char_traitsIcESaIcEEbRKNSt7__cxx1112basic_stringIT_T0_T1_EEPKS5_
FNDA:2,_ZStneIcSt11char_traitsIcESaIcEEbRKNSt7__cxx1112basic_stringIT_T0_T1_EESA_
FNDA:0,_ZStneIcSt11char_traitsIcESaIcEEbRKNSt7__cxx1112basic_stringIT_T0_T1_EEPKS5_
FNDA:0,_ZStltIcSt11char_traitsIcESaIcEEbRKNSt7__cxx1112basic_stringIT_T0_T1_EESA_
FNDA:0,_ZStgtIcSt11char_traitsIcESaIcEEbRKNSt7__cxx1112basic_stringIT_T0_T1_EESA_
FNDA:0,_ZStleIcSt11char_traitsIcESaIcEEbRKNSt7__cxx1112basic_stringIT_T0_T1_EESA_
FNDA:0,_ZStgeIcSt11char_traitsIcESaIcEEbRKNSt7__cxx1112basic_stringIT_T0_T1_EESA_
FNDA:32,_ZNSt7__cxx114stoiERKNS_12basic_stringIcSt11char_traitsIcESaIcEEEPmi
FNDA:0,_ZNSt7__cxx119to_stringEi
FNDA:0,_ZNKSt15__str_hash_baseIcSaIcENSt7__cxx1112basic_stringIcSt11char_traitsIcES0_EEEclERKS5_
FNDA:5,_ZNSt7__cxx1112basic_stringIcSt11char_traitsIcESaIcEE13_S_copy_charsIN9__gnu_cxx17__normal_iteratorIPhSt6vectorIhSaIhEEEEEEvPcT_SE_
FNDA:278,_ZNSt7__cxx1112basic_stringIcSt11char_traitsIcESaIcEEC2IS3_EEPKcRKS3_
FNDA:0,_ZNSt7__cxx1112basic_stringIcSt11char_traitsIcESaIcEEC2IS3_EEmcRKS3_
FNDA:5,_ZNSt7__cxx1112basic_stringIcSt11char_traitsIcESaIcEEC2IN9__gnu_cxx17__normal_iteratorIPhSt6vectorIhSaIhEEEEvEET_SD_RKS3_
FNF:22
FNH:10
DA:355,254
DA:458,5
DA:460,153
DA:461,148
DA:462,5
DA:641,278
DA:642,278
DA:645,278
DA:646,0
DA:648,278
DA:649,278
DA:650,278
DA:664,0
DA:665,0
DA:666,0
DA:760,5
DA:762,5
DA:765,5
DA:770,5
DA:3528,1
DA:3536,1
DA:3537,1
DA:3538,1
DA:3539,1
DA:3540,1
DA:3541,0
DA:3571,1
DA:3578,2
DA:3607,0
DA:3614,0
DA:3637,0
DA:3639,0
DA:3651,0
DA:3656,0
DA:3658,0
DA:3661,0
DA:3664,0
DA:3665,0
DA:3666,0
DA:3668,0
DA:3674,0
DA:3676,0
DA:3688,1
DA:3690,1
DA:3710,9
DA:3714,9
DA:3715,9
DA:3727,2530
DA:3730,2530
DA:3731,2530
DA:3788,2
DA:3791,2
DA:3815,0
DA:3817,0
DA:3829,0
DA:3832,0
DA:3870,0
DA:3873,0
DA:3911,0
DA:3914,0
DA:3952,0
DA:3955,0
DA:4120,32
DA:4121,32
DA:4122,32
DA:4162,0
DA:4167,0
DA:4168,0
DA:4169,0
DA:4170,0
DA:4171,0
DA:4172,0
DA:4407,0
DA:4408,0
LF:74
LH:36
end_of_record
TN:
SF:/usr/include/c++/13/bits/basic_string.tcc
FN:221,252,_ZNSt7__cxx1112basic_stringIcSt11char_traitsIcESaIcEE12_M_constructIN9__gnu_cxx17__normal_iteratorIPhSt6vectorIhSaIhEEEEEEvT_SD_St20forward_iterator_tag
FN:221,252,_ZNSt7__cxx1112basic_stringIcSt11char_traitsIcESaIcEE12_M_constructIPKcEEvT_S8_St20forward_iterator_tag
FN:221,252,_ZNSt7__cxx1112basic_stringIcSt11char_traitsIcESaIcEE12_M_constructIPcEEvT_S7_St20forward_iterator_tag
FN:239,239,_ZZNSt7__cxx1112basic_stringIcSt11char_traitsIcESaIcEE12_M_constructIN9__gnu_cxx17__normal_iteratorIPhSt6vectorIhSaIhEEEEEEvT_SD_St20forward_iterator_tagEN6_GuardC2EPS4_
FN:239,239,_ZZNSt7__cxx1112basic_stringIcSt11char_traitsIcESaIcEE12_M_constructIPKcEEvT_S8_St20forward_iterator_tagEN6_GuardC2EPS4_
FN:239,239,_ZZNSt7__cxx1112basic_stringIcSt11char_traitsIcESaIcEE12_M_constructIPcEEvT_S7_St20forward_iterator_tagEN6_GuardC2EPS4_
FN:242,242,_ZZNSt7__cxx1112basic_stringIcSt11char_traitsIcESaIcEE12_M_constructIN9__gnu_cxx17__normal_iteratorIPhSt6vectorIhSaIhEEEEEEvT_SD_St20forward_iterator_tagEN6_GuardD2Ev
FN:242,242,_ZZNSt7__cxx1112basic_stringIcSt11char_traitsIcESaIcEE12_M_constructIPKcEEvT_S8_St20forward_iterator_tagEN6_GuardD2Ev
FN:242,242,_ZZNSt7__cxx1112basic_stringIcSt11char_traitsIcESaIcEE12_M_constructIPcEEvT_S7_St20forward_iterator_tagEN6_GuardD2Ev
FNDA:5,_ZNSt7__cxx1112basic_stringIcSt11char_traitsIcESaIcEE12_M_constructIN9__gnu_cxx17__normal_iteratorIPhSt6vectorIhSaIhEEEEEEvT_SD_St20forward_iterator_tag
FNDA:360,_ZNSt7__cxx1112basic_stringIcSt11char_traitsIcESaIcEE12_M_constructIPKcEEvT_S8_St20forward_iterator_tag
FNDA:0,_ZNSt7__cxx1112basic_stringIcSt11char_traitsIcESaIcEE12_M_constructIPcEEvT_S7_St20forward_iterator_tag
FNDA:5,_ZZNSt7__cxx1112basic_stringIcSt11char_traitsIcESaIcEE12_M_constructIN9__gnu_cxx17__normal_iteratorIPhSt6vectorIhSaIhEEEEEEvT_SD_St20forward_iterator_tagEN6_GuardC2EPS4_
FNDA:360,_ZZNSt7__cxx1112basic_stringIcSt11char_traitsIcESaIcEE12_M_constructIPKcEEvT_S8_St20forward_iterator_tagEN6_GuardC2EPS4_
FNDA:0,_ZZNSt7__cxx1112basic_stringIcSt11char_traitsIcESaIcEE12_M_constructIPcEEvT_S7_St20forward_iterator_tagEN6_GuardC2EPS4_
FNDA:5,_ZZNSt7__cxx1112basic_stringIcSt11char_traitsIcESaIcEE12_M_constructIN9__gnu_cxx17__normal_iteratorIPhSt6vectorIhSaIhEEEEEEvT_SD_St20forward_iterator_tagEN6_GuardD2Ev
FNDA:360,_ZZNSt7__cxx1112basic_stringIcSt11char_traitsIcESaIcEE12_M_constructIPKcEEvT_S8_St20forward_iterator_tagEN6_GuardD2Ev
FNDA:0,_ZZNSt7__cxx1112basic_stringIcSt11char_traitsIcESaIcEE12_M_constructIPcEEvT_S7_St20forward_iterator_tagEN6_GuardD2Ev
FNF:9
FNH:6
DA:221,365
DA:225,365
DA:227,365
DA:229,111
DA:230,111
DA:239,365
DA:242,365
DA:245,365
DA:247,365
DA:249,365
DA:251,365
DA:252,365
LF:12
LH:12
end_of_record
TN:
SF:/usr/include/c++/13/bits/char_traits.h
FN:136,137,_ZN9__gnu_cxx11char_traitsIcE2eqERKcS3_
FN:199,206,_ZN9__gnu_cxx11char_traitsIcE6lengthEPKc
FN:351,359,_ZNSt11char_traitsIcE6assignERcRKc
FN:366,371,_ZNSt11char_traitsIcE2ltERKcS2_
FN:374,390,_ZNSt11char_traitsIcE7compareEPKcS2_m
FN:393,400,_ZNSt11char_traitsIcE6lengthEPKc
FN:427,436,_ZNSt11char_traitsIcE4copyEPcPKcm
FNDA:0,_ZN9__gnu_cxx11char_traitsIcE2eqERKcS3_
FNDA:0,_ZN9__gnu_cxx11char_traitsIcE6lengthEPKc
FNDA:148,_ZNSt11char_traitsIcE6assignERcRKc
FNDA:0,_ZNSt11char_traitsIcE2ltERKcS2_
FNDA:402,_ZNSt11char_traitsIcE7compareEPKcS2_m
FNDA:2809,_ZNSt11char_traitsIcE6lengthEPKc
FNDA:0,_ZNSt11char_traitsIcE4copyEPcPKcm
FNF:7
FNH:3
DA:136,0
DA:137,0
DA:199,0
DA:202,0
DA:203,0
DA:204,0
DA:205,0
DA:351,148
DA:358,148
DA:359,148
DA:366,0
DA:369,0
DA:370,0
DA:374,402
DA:376,402
DA:377,0
DA:379,402
DA:381,0
DA:382,0
DA:383,0
DA:384,0
DA:385,0
DA:386,0
DA:389,402
DA:393,2809
DA:396,2809
DA:397,0
DA:399,2809
DA:427,0
DA:429,0
DA:430,0
DA:435,0
LF:32
LH:10
end_of_record
TN:
SF:/usr/include/c++/13/bits/charconv.h
FN:55,74,_ZNSt8__detail14__to_chars_lenIjEEjT_i
FN:81,110,_ZNSt8__detail18__to_chars_10_implIjEEvPcjT_
FNDA:0,_ZNSt8__detail14__to_chars_lenIjEEjT_i
FNDA:0,_ZNSt8__detail18__to_chars_10_implIjEEvPcjT_
FNF:2
FNH:0
DA:55,0
DA:61,0
DA:62,0
DA:63,0
DA:64,0
DA:67,0
DA:68,0
DA:69,0
DA:70,0
DA:71,0
DA:72,0
DA:81,0
DA:87,0
DA:93,0
DA:94,0
DA:96,0
DA:97,0
DA:98,0
DA:99,0
DA:100,0
DA:102,0
DA:104,0
DA:105,0
DA:106,0
DA:109,0
DA:110,0
LF:26
LH:0
end_of_record
TN:
SF:/usr/include/c++/13/bits/chrono.h
FN:221,226,_ZNSt6chrono20__duration_cast_implINS_8durationIlSt5ratioILl1ELl1000000000EEEES2_ILl1000000000ELl1EElLb0ELb1EE6__castIlS2_ILl1ELl1EEEES4_RKNS1_IT_T0_EE
FN:273,291,_ZNSt6chrono13duration_castINS_8durationIlSt5ratioILl1ELl1000000000EEEElS2_ILl1ELl1EEEENSt9enable_ifIXsrNS_13__is_durationIT_EE5valueES8_E4typeERKNS1_IT0_T1_EE
FN:273,291,_ZNSt6chrono13duration_castINS_8durationIlSt5ratioILl1ELl1EEEElS3_EENSt9enable_ifIXsrNS_13__is_durationIT_EE5valueES7_E4typeERKNS1_IT0_T1_EE
FN:498,499,_ZNSt6chrono15duration_valuesIlE4zeroEv
FN:573,574,_ZNSt6chrono8durationIlSt5ratioILl1ELl1000000000EEEC1IlvEERKT_
FN:573,574,_ZNSt6chrono8durationIlSt5ratioILl1ELl1EEEC1IlvEERKT_
FN:573,574,_ZNSt6chrono8durationIlSt5ratioILl1ELl1EEEC2IivEERKT_
FN:589,590,_ZNKSt6chrono8durationIlSt5ratioILl1ELl1000000000EEE5countEv
FN:589,590,_ZNKSt6chrono8durationIlSt5ratioILl1ELl1EEE5countEv
FN:673,674,_ZNSt6chrono8durationIlSt5ratioILl1ELl1EEE4zeroEv
FN:710,717,_ZNSt6chronomiIlSt5ratioILl1ELl1EElS2_EENSt11common_typeIJNS_8durationIT_T0_EENS4_IT1_T2_EEEE4typeERKS7_RKSA_
FN:822,829,_ZNSt6chronoltIlSt5ratioILl1ELl1EElS2_EEbRKNS_8durationIT_T0_EERKNS3_IT1_T2_EE
FN:855,857,_ZNSt6chronoleIlSt5ratioILl1ELl1EElS2_EEbRKNS_8durationIT_T0_EERKNS3_IT1_T2_EE
FNDA:0,_ZNSt6chrono20__duration_cast_implINS_8durationIlSt5ratioILl1ELl1000000000EEEES2_ILl1000000000ELl1EElLb0ELb1EE6__castIlS2_ILl1ELl1EEEES4_RKNS1_IT_T0_EE
FNDA:0,_ZNSt6chrono13duration_castINS_8durationIlSt5ratioILl1ELl1000000000EEEElS2_ILl1ELl1EEEENSt9enable_ifIXsrNS_13__is_durationIT_EE5valueES8_E4typeERKNS1_IT0_T1_EE
FNDA:0,_ZNSt6chrono13duration_castINS_8durationIlSt5ratioILl1ELl1EEEElS3_EENSt9enable_ifIXsrNS_13__is_durationIT_EE5valueES7_E4typeERKNS1_IT0_T1_EE
FNDA:0,_ZNSt6chrono15duration_valuesIlE4zeroEv
FNDA:0,_ZNSt6chrono8durationIlSt5ratioILl1ELl1000000000EEEC1IlvEERKT_
FNDA:0,_ZNSt6chrono8durationIlSt5ratioILl1ELl1EEEC1IlvEERKT_
FNDA:0,_ZNSt6chrono8durationIlSt5ratioILl1ELl1EEEC2IivEERKT_
FNDA:0,_ZNKSt6chrono8durationIlSt5ratioILl1ELl1000000000EEE5countEv
FNDA:0,_ZNKSt6chrono8durationIlSt5ratioILl1ELl1EEE5countEv
FNDA:0,_ZNSt6chrono8durationIlSt5ratioILl1ELl1EEE4zeroEv
FNDA:0,_ZNSt6chronomiIlSt5ratioILl1ELl1EElS2_EENSt11common_typeIJNS_8durationIT_T0_EENS4_IT1_T2_EEEE4typeERKS7_RKSA_
FNDA:0,_ZNSt6chronoltIlSt5ratioILl1ELl1EElS2_EEbRKNS_8durationIT_T0_EERKNS3_IT1_T2_EE
FNDA:0,_ZNSt6chronoleIlSt5ratioILl1ELl1EElS2_EEbRKNS_8durationIT_T0_EERKNS3_IT1_T2_EE
FNF:13
FNH:0
DA:221,0
DA:224,0
DA:225,0
DA:273,0
DA:277,0
DA:287,0
DA:498,0
DA:499,0
DA:573,0
DA:574,0
DA:589,0
DA:590,0
DA:673,0
DA:674,0
DA:710,0
DA:716,0
DA:822,0
DA:828,0
DA:855,0
DA:857,0
LF:20
LH:0
end_of_record
TN:
SF:/usr/include/c++/13/bits/cpp_type_traits.h
FN:607,608,_ZSt12__miter_baseIN9__gnu_cxx17__normal_iteratorIPKcNSt7__cxx1112basic_stringIcSt11char_traitsIcESaIcEEEEEET_SB_
FN:607,608,_ZSt12__miter_baseIN9__gnu_cxx17__normal_iteratorIPKcSt6vectorIcSaIcEEEEET_S8_
FN:607,608,_ZSt12__miter_baseIN9__gnu_cxx17__normal_iteratorIPKhSt6vectorIhSaIhEEEEET_S8_
FN:607,608,_ZSt12__miter_baseIN9__gnu_cxx17__normal_iteratorIPcNSt7__cxx1112basic_stringIcSt11char_traitsIcESaIcEEEEEET_SA_
FN:607,608,_ZSt12__miter_baseIN9__gnu_cxx17__normal_iteratorIPhSt6vectorIhSaIhEEEEET_S7_
FN:607,608,_ZSt12__miter_baseIPKhET_S2_
FN:607,608,_ZSt12__miter_baseIPhET_S1_
FNDA:8,_ZSt12__miter_baseIN9__gnu_cxx17__normal_iteratorIPKcNSt7__cxx1112basic_stringIcSt11char_traitsIcESaIcEEEEEET_SB_
FNDA:4,_ZSt12__miter_baseIN9__gnu_cxx17__normal_iteratorIPKcSt6vectorIcSaIcEEEEET_S8_
FNDA:104,_ZSt12__miter_baseIN9__gnu_cxx17__normal_iteratorIPKhSt6vectorIhSaIhEEEEET_S8_
FNDA:24,_ZSt12__miter_baseIN9__gnu_cxx17__normal_iteratorIPcNSt7__cxx1112basic_stringIcSt11char_traitsIcESaIcEEEEEET_SA_
FNDA:12,_ZSt12__miter_baseIN9__gnu_cxx17__normal_iteratorIPhSt6vectorIhSaIhEEEEET_S7_
FNDA:12,_ZSt12__miter_baseIPKhET_S2_
FNDA:4,_ZSt12__miter_baseIPhET_S1_
FNF:7
FNH:7
DA:607,168
DA:608,168
LF:2
LH:2
end_of_record
TN:
SF:/usr/include/c++/13/bits/functional_hash.h
FN:204,206,_ZNSt10_Hash_impl4hashEPKvmm
FNDA:0,_ZNSt10_Hash_impl4hashEPKvmm
FNF:1
FNH:0
DA:204,0
DA:206,0
LF:2
LH:0
end_of_record
TN:
SF:/usr/include/c++/13/bits/hashtable.h
FN:1595,1610,_ZNSt10_HashtableINSt7__cxx1112basic_stringIcSt11char_traitsIcESaIcEEESt4pairIKS5_S5_ESaIS8_ENSt8__detail10_Select1stESt8equal_toIS5_ESt4hashIS5_ENSA_18_Mod_range_hashingENSA_20_Default_ranged_hashENSA_20_Prime_rehash_policyENSA_17_Hashtable_traitsILb1ELb0ELb1EEEED2Ev
FN:1948,1970,_ZNKSt10_HashtableINSt7__cxx1112basic_stringIcSt11char_traitsIcESaIcEEESt4pairIKS5_S5_ESaIS8_ENSt8__detail10_Select1stESt8equal_toIS5_ESt4hashIS5_ENSA_18_Mod_range_hashingENSA_20_Default_ranged_hashENSA_20_Prime_rehash_policyENSA_17_Hashtable_traitsILb1ELb0ELb1EEEE19_M_find_before_nodeEmRS7_m
FN:2007,2033,_ZNSt10_HashtableINSt7__cxx1112basic_stringIcSt11char_traitsIcESaIcEEESt4pairIKS5_S5_ESaIS8_ENSt8__detail10_Select1stESt8equal_toIS5_ESt4hashIS5_ENSA_18_Mod_range_hashingENSA_20_Default_ranged_hashENSA_20_Prime_rehash_policyENSA_17_Hashtable_traitsILb1ELb0ELb1EEEE22_M_insert_bucket_beginEmPNSA_10_Hash_nodeIS8_Lb1EEE
FN:2166,2189,_ZNSt10_HashtableINSt7__cxx1112basic_stringIcSt11char_traitsIcESaIcEEESt4pairIKS5_S5_ESaIS8_ENSt8__detail10_Select1stESt8equal_toIS5_ESt4hashIS5_ENSA_18_Mod_range_hashingENSA_20_Default_ranged_hashENSA_20_Prime_rehash_policyENSA_17_Hashtable_traitsILb1ELb0ELb1EEEE21_M_insert_unique_nodeEmmPNSA_10_Hash_nodeIS8_Lb1EEEm
FN:2520,2529,_ZNSt10_HashtableINSt7__cxx1112basic_stringIcSt11char_traitsIcESaIcEEESt4pairIKS5_S5_ESaIS8_ENSt8__detail10_Select1stESt8equal_toIS5_ESt4hashIS5_ENSA_18_Mod_range_hashingENSA_20_Default_ranged_hashENSA_20_Prime_rehash_policyENSA_17_Hashtable_traitsILb1ELb0ELb1EEEE5clearEv
FN:2559,2574,_ZNSt10_HashtableINSt7__cxx1112basic_stringIcSt11char_traitsIcESaIcEEESt4pairIKS5_S5_ESaIS8_ENSt8__detail10_Select1stESt8equal_toIS5_ESt4hashIS5_ENSA_18_Mod_range_hashingENSA_20_Default_ranged_hashENSA_20_Prime_rehash_policyENSA_17_Hashtable_traitsILb1ELb0ELb1EEEE9_M_rehashEmRKm
FN:2582,2616,_ZNSt10_HashtableINSt7__cxx1112basic_stringIcSt11char_traitsIcESaIcEEESt4pairIKS5_S5_ESaIS8_ENSt8__detail10_Select1stESt8equal_toIS5_ESt4hashIS5_ENSA_18_Mod_range_hashingENSA_20_Default_ranged_hashENSA_20_Prime_rehash_policyENSA_17_Hashtable_traitsILb1ELb0ELb1EEEE13_M_rehash_auxEmSt17integral_constantIbLb1EE
FN:305,308,_ZNSt10_HashtableINSt7__cxx1112basic_stringIcSt11char_traitsIcESaIcEEESt4pairIKS5_S5_ESaIS8_ENSt8__detail10_Select1stESt8equal_toIS5_ESt4hashIS5_ENSA_18_Mod_range_hashingENSA_20_Default_ranged_hashENSA_20_Prime_rehash_policyENSA_17_Hashtable_traitsILb1ELb0ELb1EEEE12_Scoped_nodeC2IJRKSt21piecewise_construct_tSt5tupleIJRS7_EESR_IJEEEEEPNSA_16_Hashtable_allocISaINSA_10_Hash_nodeIS8_Lb1EEEEEEDpOT_
FN:311,311,_ZNSt10_HashtableINSt7__cxx1112basic_stringIcSt11char_traitsIcESaIcEEESt4pairIKS5_S5_ESaIS8_ENSt8__detail10_Select1stESt8equal_toIS5_ESt4hashIS5_ENSA_18_Mod_range_hashingENSA_20_Default_ranged_hashENSA_20_Prime_rehash_policyENSA_17_Hashtable_traitsILb1ELb0ELb1EEEE12_Scoped_nodeD2Ev
FN:416,417,_ZNKSt10_HashtableINSt7__cxx1112basic_stringIcSt11char_traitsIcESaIcEEESt4pairIKS5_S5_ESaIS8_ENSt8__detail10_Select1stESt8equal_toIS5_ESt4hashIS5_ENSA_18_Mod_range_hashingENSA_20_Default_ranged_hashENSA_20_Prime_rehash_policyENSA_17_Hashtable_traitsILb1ELb0ELb1EEEE21_M_uses_single_bucketEPPNSA_15_Hash_node_baseE
FN:434,443,_ZNSt10_HashtableINSt7__cxx1112basic_stringIcSt11char_traitsIcESaIcEEESt4pairIKS5_S5_ESaIS8_ENSt8__detail10_Select1stESt8equal_toIS5_ESt4hashIS5_ENSA_18_Mod_range_hashingENSA_20_Default_ranged_hashENSA_20_Prime_rehash_policyENSA_17_Hashtable_traitsILb1ELb0ELb1EEEE19_M_allocate_bucketsEm
FN:446,452,_ZNSt10_HashtableINSt7__cxx1112basic_stringIcSt11char_traitsIcESaIcEEESt4pairIKS5_S5_ESaIS8_ENSt8__detail10_Select1stESt8equal_toIS5_ESt4hashIS5_ENSA_18_Mod_range_hashingENSA_20_Default_ranged_hashENSA_20_Prime_rehash_policyENSA_17_Hashtable_traitsILb1ELb0ELb1EEEE21_M_deallocate_bucketsEPPNSA_15_Hash_node_baseEm
FN:455,456,_ZNSt10_HashtableINSt7__cxx1112basic_stringIcSt11char_traitsIcESaIcEEESt4pairIKS5_S5_ESaIS8_ENSt8__detail10_Select1stESt8equal_toIS5_ESt4hashIS5_ENSA_18_Mod_range_hashingENSA_20_Default_ranged_hashENSA_20_Prime_rehash_policyENSA_17_Hashtable_traitsILb1ELb0ELb1EEEE21_M_deallocate_bucketsEv
FN:464,465,_ZNKSt10_HashtableINSt7__cxx1112basic_stringIcSt11char_traitsIcESaIcEEESt4pairIKS5_S5_ESaIS8_ENSt8__detail10_Select1stESt8equal_toIS5_ESt4hashIS5_ENSA_18_Mod_range_hashingENSA_20_Default_ranged_hashENSA_20_Prime_rehash_policyENSA_17_Hashtable_traitsILb1ELb0ELb1EEEE8_M_beginEv
FN:530,530,_ZNSt10_HashtableINSt7__cxx1112basic_stringIcSt11char_traitsIcESaIcEEESt4pairIKS5_S5_ESaIS8_ENSt8__detail10_Select1stESt8equal_toIS5_ESt4hashIS5_ENSA_18_Mod_range_hashingENSA_20_Default_ranged_hashENSA_20_Prime_rehash_policyENSA_17_Hashtable_traitsILb1ELb0ELb1EEEEC2Ev
FN:792,793,_ZNKSt10_HashtableINSt7__cxx1112basic_stringIcSt11char_traitsIcESaIcEEESt4pairIKS5_S5_ESaIS8_ENSt8__detail10_Select1stESt8equal_toIS5_ESt4hashIS5_ENSA_18_Mod_range_hashingENSA_20_Default_ranged_hashENSA_20_Prime_rehash_policyENSA_17_Hashtable_traitsILb1ELb0ELb1EEEE15_M_bucket_indexERKNSA_16_Hash_node_valueIS8_Lb1EEE
FN:796,797,_ZNKSt10_HashtableINSt7__cxx1112basic_stringIcSt11char_traitsIcESaIcEEESt4pairIKS5_S5_ESaIS8_ENSt8__detail10_Select1stESt8equal_toIS5_ESt4hashIS5_ENSA_18_Mod_range_hashingENSA_20_Default_ranged_hashENSA_20_Prime_rehash_policyENSA_17_Hashtable_traitsILb1ELb0ELb1EEEE15_M_bucket_indexEm
FN:812,819,_ZNKSt10_HashtableINSt7__cxx1112basic_stringIcSt11char_traitsIcESaIcEEESt4pairIKS5_S5_ESaIS8_ENSt8__detail10_Select1stESt8equal_toIS5_ESt4hashIS5_ENSA_18_Mod_range_hashingENSA_20_Default_ranged_hashENSA_20_Prime_rehash_policyENSA_17_Hashtable_traitsILb1ELb0ELb1EEEE12_M_find_nodeEmRS7_m
FNDA:0,_ZNSt10_HashtableINSt7__cxx1112basic_stringIcSt11char_traitsIcESaIcEEESt4pairIKS5_S5_ESaIS8_ENSt8__detail10_Select1stESt8equal_toIS5_ESt4hashIS5_ENSA_18_Mod_range_hashingENSA_20_Default_ranged_hashENSA_20_Prime_rehash_policyENSA_17_Hashtable_traitsILb1ELb0ELb1EEEED2Ev
FNDA:0,_ZNKSt10_HashtableINSt7__cxx1112basic_stringIcSt11char_traitsIcESaIcEEESt4pairIKS5_S5_ESaIS8_ENSt8__detail10_Select1stESt8equal_toIS5_ESt4hashIS5_ENSA_18_Mod_range_hashingENSA_20_Default_ranged_hashENSA_20_Prime_rehash_policyENSA_17_Hashtable_traitsILb1ELb0ELb1EEEE19_M_find_before_nodeEmRS7_m
FNDA:0,_ZNSt10_HashtableINSt7__cxx1112basic_stringIcSt11char_traitsIcESaIcEEESt4pairIKS5_S5_ESaIS8_ENSt8__detail10_Select1stESt8equal_toIS5_ESt4hashIS5_ENSA_18_Mod_range_hashingENSA_20_Default_ranged_hashENSA_20_Prime_rehash_policyENSA_17_Hashtable_traitsILb1ELb0ELb1EEEE22_M_insert_bucket_beginEmPNSA_10_Hash_nodeIS8_Lb1EEE
FNDA:0,_ZNSt10_HashtableINSt7__cxx1112basic_stringIcSt11char_traitsIcESaIcEEESt4pairIKS5_S5_ESaIS8_ENSt8__detail10_Select1stESt8equal_toIS5_ESt4hashIS5_ENSA_18_Mod_range_hashingENSA_20_Default_ranged_hashENSA_20_Prime_rehash_policyENSA_17_Hashtable_traitsILb1ELb0ELb1EEEE21_M_insert_unique_nodeEmmPNSA_10_Hash_nodeIS8_Lb1EEEm
FNDA:0,_ZNSt10_HashtableINSt7__cxx1112basic_stringIcSt11char_traitsIcESaIcEEESt4pairIKS5_S5_ESaIS8_ENSt8__detail10_Select1stESt8equal_toIS5_ESt4hashIS5_ENSA_18_Mod_range_hashingENSA_20_Default_ranged_hashENSA_20_Prime_rehash_policyENSA_17_Hashtable_traitsILb1ELb0ELb1EEEE5clearEv
FNDA:0,_ZNSt10_HashtableINSt7__cxx1112basic_stringIcSt11char_traitsIcESaIcEEESt4pairIKS5_S5_ESaIS8_ENSt8__detail10_Select1stESt8equal_toIS5_ESt4hashIS5_ENSA_18_Mod_range_hashingENSA_20_Default_ranged_hashENSA_20_Prime_rehash_policyENSA_17_Hashtable_traitsILb1ELb0ELb1EEEE9_M_rehashEmRKm
FNDA:0,_ZNSt10_HashtableINSt7__cxx1112basic_stringIcSt11char_traitsIcESaIcEEESt4pairIKS5_S5_ESaIS8_ENSt8__detail10_Select1stESt8equal_toIS5_ESt4hashIS5_ENSA_18_Mod_range_hashingENSA_20_Default_ranged_hashENSA_20_Prime_rehash_policyENSA_17_Hashtable_traitsILb1ELb0ELb1EEEE13_M_rehash_auxEmSt17integral_constantIbLb1EE
FNDA:0,_ZNSt10_HashtableINSt7__cxx1112basic_stringIcSt11char_traitsIcESaIcEEESt4pairIKS5_S5_ESaIS8_ENSt8__detail10_Select1stESt8equal_toIS5_ESt4hashIS5_ENSA_18_Mod_range_hashingENSA_20_Default_ranged_hashENSA_20_Prime_rehash_policyENSA_17_Hashtable_traitsILb1ELb0ELb1EEEE12_Scoped_nodeC2IJRKSt21piecewise_construct_tSt5tupleIJRS7_EESR_IJEEEEEPNSA_16_Hashtable_allocISaINSA_10_Hash_nodeIS8_Lb1EEEEEEDpOT_
FNDA:0,_ZNSt10_HashtableINSt7__cxx1112basic_stringIcSt11char_traitsIcESaIcEEESt4pairIKS5_S5_ESaIS8_ENSt8__detail10_Select1stESt8equal_toIS5_ESt4hashIS5_ENSA_18_Mod_range_hashingENSA_20_Default_ranged_hashENSA_20_Prime_rehash_policyENSA_17_Hashtable_traitsILb1ELb0ELb1EEEE12_Scoped_nodeD2Ev
FNDA:0,_ZNKSt10_HashtableINSt7__cxx1112basic_stringIcSt11char_traitsIcESaIcEEESt4pairIKS5_S5_ESaIS8_ENSt8__detail10_Select1stESt8equal_toIS5_ESt4hashIS5_ENSA_18_Mod_range_hashingENSA_20_Default_ranged_hashENSA_20_Prime_rehash_policyENSA_17_Hashtable_traitsILb1ELb0ELb1EEEE21_M_uses_single_bucketEPPNSA_15_Hash_node_baseE
FNDA:0,_ZNSt10_HashtableINSt7__cxx1112basic_stringIcSt11char_traitsIcESaIcEEESt4pairIKS5_S5_ESaIS8_ENSt8__detail10_Select1stESt8equal_toIS5_ESt4hashIS5_ENSA_18_Mod_range_hashingENSA_20_Default_ranged_hashENSA_20_Prime_rehash_policyENSA_17_Hashtable_traitsILb1ELb0ELb1EEEE19_M_allocate_bucketsEm
FNDA:0,_ZNSt10_HashtableINSt7__cxx1112basic_stringIcSt11char_traitsIcESaIcEEESt4pairIKS5_S5_ESaIS8_ENSt8__detail10_Select1stESt8equal_toIS5_ESt4hashIS5_ENSA_18_Mod_range_hashingENSA_20_Default_ranged_hashENSA_20_Prime_rehash_policyENSA_17_Hashtable_traitsILb1ELb0ELb1EEEE21_M_deallocate_bucketsEPPNSA_15_Hash_node_baseEm
FNDA:0,_ZNSt10_HashtableINSt7__cxx1112basic_stringIcSt11char_traitsIcESaIcEEESt4pairIKS5_S5_ESaIS8_ENSt8__detail10_Select1stESt8equal_toIS5_ESt4hashIS5_ENSA_18_Mod_range_hashingENSA_20_Default_ranged_hashENSA_20_Prime_rehash_policyENSA_17_Hashtable_traitsILb1ELb0ELb1EEEE21_M_deallocate_bucketsEv
FNDA:0,_ZNKSt10_HashtableINSt7__cxx1112basic_stringIcSt11char_traitsIcESaIcEEESt4pairIKS5_S5_ESaIS8_ENSt8__detail10_Select1stESt8equal_toIS5_ESt4hashIS5_ENSA_18_Mod_range_hashingENSA_20_Default_ranged_hashENSA_20_Prime_rehash_policyENSA_17_Hashtable_traitsILb1ELb0ELb1EEEE8_M_beginEv
FNDA:0,_ZNSt10_HashtableINSt7__cxx1112basic_stringIcSt11char_traitsIcESaIcEEESt4pairIKS5_S5_ESaIS8_ENSt8__detail10_Select1stESt8equal_toIS5_ESt4hashIS5_ENSA_18_Mod_range_hashingENSA_20_Default_ranged_hashENSA_20_Prime_rehash_policyENSA_17_Hashtable_traitsILb1ELb0ELb1EEEEC2Ev
FNDA:0,_ZNKSt10_HashtableINSt7__cxx1112basic_stringIcSt11char_traitsIcESaIcEEESt4pairIKS5_S5_ESaIS8_ENSt8__detail10_Select1stESt8equal_toIS5_ESt4hashIS5_ENSA_18_Mod_range_hashingENSA_20_Default_ranged_hashENSA_20_Prime_rehash_policyENSA_17_Hashtable_traitsILb1ELb0ELb1EEEE15_M_bucket_indexERKNSA_16_Hash_node_valueIS8_Lb1EEE
FNDA:0,_ZNKSt10_HashtableINSt7__cxx1112basic_stringIcSt11char_traitsIcESaIcEEESt4pairIKS5_S5_ESaIS8_ENSt8__detail10_Select1stESt8equal_toIS5_ESt4hashIS5_ENSA_18_Mod_range_hashingENSA_20_Default_ranged_hashENSA_20_Prime_rehash_policyENSA_17_Hashtable_traitsILb1ELb0ELb1EEEE15_M_bucket_indexEm
FNDA:0,_ZNKSt10_HashtableINSt7__cxx1112basic_stringIcSt11char_traitsIcESaIcEEESt4pairIKS5_S5_ESaIS8_ENSt8__detail10_Select1stESt8equal_toIS5_ESt4hashIS5_ENSA_18_Mod_range_hashingENSA_20_Default_ranged_hashENSA_20_Prime_rehash_policyENSA_17_Hashtable_traitsILb1ELb0ELb1EEEE12_M_find_nodeEmRS7_m
FNF:18
FNH:0
DA:305,0
DA:306,0
DA:307,0
DA:308,0
DA:311,0
DA:416,0
DA:417,0
DA:434,0
DA:436,0
DA:438,0
DA:439,0
DA:442,0
DA:446,0
DA:448,0
DA:449,0
DA:451,0
DA:455,0
DA:456,0
DA:464,0
DA:465,0
DA:530,0
DA:792,0
DA:793,0
DA:796,0
DA:797,0
DA:812,0
DA:815,0
DA:816,0
DA:817,0
DA:818,0
DA:1595,0
DA:1608,0
DA:1609,0
DA:1610,0
DA:1948,0
DA:1954,0
DA:1955,0
DA:1956,0
DA:1958,0
DA:1959,0
DA:1961,0
DA:1962,0
DA:1964,0
DA:1965,0
DA:1966,0
DA:1969,0
DA:2007,0
DA:2011,0
DA:2015,0
DA:2016,0
DA:2023,0
DA:2024,0
DA:2026,0
DA:2029,0
DA:2031,0
DA:2033,0
DA:2166,0
DA:2172,0
DA:2174,0
DA:2177,0
DA:2179,0
DA:2180,0
DA:2183,0
DA:2186,0
DA:2187,0
DA:2188,0
DA:2520,0
DA:2524,0
DA:2525,0
DA:2526,0
DA:2527,0
DA:2528,0
DA:2529,0
DA:2559,0
DA:2565,0
DA:2567,0
DA:2571,0
DA:2572,0
DA:2574,0
DA:2582,0
DA:2586,0
DA:2587,0
DA:2588,0
DA:2589,0
DA:2590,0
DA:2592,0
DA:2594,0
DA:2595,0
DA:2597,0
DA:2598,0
DA:2599,0
DA:2600,0
DA:2601,0
DA:2602,0
DA:2606,0
DA:2607,0
DA:2610,0
DA:2613,0
DA:2614,0
DA:2615,0
DA:2616,0
LF:101
LH:0
end_of_record
TN:
SF:/usr/include/c++/13/bits/hashtable_policy.h
FN:112,113,_ZNKSt8__detail10_Select1stclIRKSt4pairIKNSt7__cxx1112basic_stringIcSt11char_traitsIcESaIcEEES8_EEEONS0_10__1st_typeIT_E4typeEOSE_
FN:1218,1218,_ZNSt8__detail21_Hashtable_ebo_helperILi0ESaINS_10_Hash_nodeISt4pairIKNSt7__cxx1112basic_stringIcSt11char_traitsIcESaIcEEES8_ELb1EEEELb1EEC2Ev
FN:1218,1218,_ZNSt8__detail21_Hashtable_ebo_helperILi0ESt8equal_toINSt7__cxx1112basic_stringIcSt11char_traitsIcESaIcEEEELb1EEC2Ev
FN:1218,1218,_ZNSt8__detail21_Hashtable_ebo_helperILi1ESt4hashINSt7__cxx1112basic_stringIcSt11char_traitsIcESaIcEEEELb1EEC2Ev
FN:1225,1225,_ZNKSt8__detail21_Hashtable_ebo_helperILi0ESt8equal_toINSt7__cxx1112basic_stringIcSt11char_traitsIcESaIcEEEELb1EE7_M_cgetEv
FN:1225,1225,_ZNKSt8__detail21_Hashtable_ebo_helperILi1ESt4hashINSt7__cxx1112basic_stringIcSt11char_traitsIcESaIcEEEELb1EE7_M_cgetEv
FN:1226,1226,_ZNSt8__detail21_Hashtable_ebo_helperILi0ESaINS_10_Hash_nodeISt4pairIKNSt7__cxx1112basic_stringIcSt11char_traitsIcESaIcEEES8_ELb1EEEELb1EE6_M_getEv
FN:1301,1301,_ZNSt8__detail15_Hash_code_baseINSt7__cxx1112basic_stringIcSt11char_traitsIcESaIcEEESt4pairIKS6_S6_ENS_10_Select1stESt4hashIS6_ENS_18_Mod_range_hashingENS_20_Default_ranged_hashELb1EEC2Ev
FN:1306,1311,_ZNKSt8__detail15_Hash_code_baseINSt7__cxx1112basic_stringIcSt11char_traitsIcESaIcEEESt4pairIKS6_S6_ENS_10_Select1stESt4hashIS6_ENS_18_Mod_range_hashingENS_20_Default_ranged_hashELb1EE12_M_hash_codeERS8_
FN:1331,1332,_ZNKSt8__detail15_Hash_code_baseINSt7__cxx1112basic_stringIcSt11char_traitsIcESaIcEEESt4pairIKS6_S6_ENS_10_Select1stESt4hashIS6_ENS_18_Mod_range_hashingENS_20_Default_ranged_hashELb1EE15_M_bucket_indexEmm
FN:1346,1350,_ZNKSt8__detail15_Hash_code_baseINSt7__cxx1112basic_stringIcSt11char_traitsIcESaIcEEESt4pairIKS6_S6_ENS_10_Select1stESt4hashIS6_ENS_18_Mod_range_hashingENS_20_Default_ranged_hashELb1EE15_M_bucket_indexERKNS_16_Hash_node_valueIS9_Lb1EEEm
FN:1362,1363,_ZNKSt8__detail15_Hash_code_baseINSt7__cxx1112basic_stringIcSt11char_traitsIcESaIcEEESt4pairIKS6_S6_ENS_10_Select1stESt4hashIS6_ENS_18_Mod_range_hashingENS_20_Default_ranged_hashELb1EE13_M_store_codeERNS_21_Hash_node_code_cacheILb1EEEm
FN:1375,1375,_ZNKSt8__detail15_Hash_code_baseINSt7__cxx1112basic_stringIcSt11char_traitsIcESaIcEEESt4pairIKS6_S6_ENS_10_Select1stESt4hashIS6_ENS_18_Mod_range_hashingENS_20_Default_ranged_hashELb1EE7_M_hashEv
FN:1692,1693,_ZNSt8__detail15_Hashtable_baseINSt7__cxx1112basic_stringIcSt11char_traitsIcESaIcEEESt4pairIKS6_S6_ENS_10_Select1stESt8equal_toIS6_ESt4hashIS6_ENS_18_Mod_range_hashingENS_20_Default_ranged_hashENS_17_Hashtable_traitsILb1ELb0ELb1EEEE9_S_equalsEmRKNS_21_Hash_node_code_cacheILb1EEE
FN:1701,1701,_ZNSt8__detail15_Hashtable_baseINSt7__cxx1112basic_stringIcSt11char_traitsIcESaIcEEESt4pairIKS6_S6_ENS_10_Select1stESt8equal_toIS6_ESt4hashIS6_ENS_18_Mod_range_hashingENS_20_Default_ranged_hashENS_17_Hashtable_traitsILb1ELb0ELb1EEEEC2Ev
FN:1708,1716,_ZNKSt8__detail15_Hashtable_baseINSt7__cxx1112basic_stringIcSt11char_traitsIcESaIcEEESt4pairIKS6_S6_ENS_10_Select1stESt8equal_toIS6_ESt4hashIS6_ENS_18_Mod_range_hashingENS_20_Default_ranged_hashENS_17_Hashtable_traitsILb1ELb0ELb1EEEE13_M_key_equalsERS8_RKNS_16_Hash_node_valueIS9_Lb1EEE
FN:1732,1734,_ZNKSt8__detail15_Hashtable_baseINSt7__cxx1112basic_stringIcSt11char_traitsIcESaIcEEESt4pairIKS6_S6_ENS_10_Select1stESt8equal_toIS6_ESt4hashIS6_ENS_18_Mod_range_hashingENS_20_Default_ranged_hashENS_17_Hashtable_traitsILb1ELb0ELb1EEEE9_M_equalsERS8_mRKNS_16_Hash_node_valueIS9_Lb1EEE
FN:1760,1760,_ZNKSt8__detail15_Hashtable_baseINSt7__cxx1112basic_stringIcSt11char_traitsIcESaIcEEESt4pairIKS6_S6_ENS_10_Select1stESt8equal_toIS6_ESt4hashIS6_ENS_18_Mod_range_hashingENS_20_Default_ranged_hashENS_17_Hashtable_traitsILb1ELb0ELb1EEEE5_M_eqEv
FN:1940,1940,_ZNSt8__detail16_Hashtable_allocISaINS_10_Hash_nodeISt4pairIKNSt7__cxx1112basic_stringIcSt11char_traitsIcESaIcEEES8_ELb1EEEEEC2Ev
FN:1950,1951,_ZNSt8__detail16_Hashtable_allocISaINS_10_Hash_nodeISt4pairIKNSt7__cxx1112basic_stringIcSt11char_traitsIcESaIcEEES8_ELb1EEEEE17_M_node_allocatorEv
FN:1987,2005,_ZNSt8__detail16_Hashtable_allocISaINS_10_Hash_nodeISt4pairIKNSt7__cxx1112basic_stringIcSt11char_traitsIcESaIcEEES8_ELb1EEEEE16_M_allocate_nodeIJRKSt21piecewise_construct_tSt5tupleIJRS9_EESI_IJEEEEEPSB_DpOT_
FN:2009,2013,_ZNSt8__detail16_Hashtable_allocISaINS_10_Hash_nodeISt4pairIKNSt7__cxx1112basic_stringIcSt11char_traitsIcESaIcEEES8_ELb1EEEEE18_M_deallocate_nodeEPSB_
FN:2017,2023,_ZNSt8__detail16_Hashtable_allocISaINS_10_Hash_nodeISt4pairIKNSt7__cxx1112basic_stringIcSt11char_traitsIcESaIcEEES8_ELb1EEEEE22_M_deallocate_node_ptrEPSB_
FN:2027,2035,_ZNSt8__detail16_Hashtable_allocISaINS_10_Hash_nodeISt4pairIKNSt7__cxx1112basic_stringIcSt11char_traitsIcESaIcEEES8_ELb1EEEEE19_M_deallocate_nodesEPSB_
FN:2039,2048,_ZNSt8__detail16_Hashtable_allocISaINS_10_Hash_nodeISt4pairIKNSt7__cxx1112basic_stringIcSt11char_traitsIcESaIcEEES8_ELb1EEEEE19_M_allocate_bucketsEm
FN:2052,2060,_ZNSt8__detail16_Hashtable_allocISaINS_10_Hash_nodeISt4pairIKNSt7__cxx1112basic_stringIcSt11char_traitsIcESaIcEEES8_ELb1EEEEE21_M_deallocate_bucketsEPPNS_15_Hash_node_baseEm
FN:313,313,_ZNSt8__detail15_Hash_node_baseC2Ev
FN:380,381,_ZNKSt8__detail10_Hash_nodeISt4pairIKNSt7__cxx1112basic_stringIcSt11char_traitsIcESaIcEEES7_ELb1EE7_M_nextEv
FN:393,394,_ZNSt8__detail19_Node_iterator_baseISt4pairIKNSt7__cxx1112basic_stringIcSt11char_traitsIcESaIcEEES7_ELb1EEC2EPNS_10_Hash_nodeIS9_Lb1EEE
FN:436,437,_ZNSt8__detail14_Node_iteratorISt4pairIKNSt7__cxx1112basic_stringIcSt11char_traitsIcESaIcEEES7_ELb0ELb1EEC2EPNS_10_Hash_nodeIS9_Lb1EEE
FN:444,445,_ZNKSt8__detail14_Node_iteratorISt4pairIKNSt7__cxx1112basic_stringIcSt11char_traitsIcESaIcEEES7_ELb0ELb1EEptEv
FN:526,528,_ZNKSt8__detail18_Mod_range_hashingclEmm
FN:544,545,_ZNSt8__detail20_Prime_rehash_policyC2Ef
FN:571,572,_ZNKSt8__detail20_Prime_rehash_policy8_M_stateEv
FN:579,580,_ZNSt8__detail20_Prime_rehash_policy8_M_resetEm
FN:807,828,_ZNSt8__detail9_Map_baseINSt7__cxx1112basic_stringIcSt11char_traitsIcESaIcEEESt4pairIKS6_S6_ESaIS9_ENS_10_Select1stESt8equal_toIS6_ESt4hashIS6_ENS_18_Mod_range_hashingENS_20_Default_ranged_hashENS_20_Prime_rehash_policyENS_17_Hashtable_traitsILb1ELb0ELb1EEELb1EEixERS8_
FNDA:0,_ZNKSt8__detail10_Select1stclIRKSt4pairIKNSt7__cxx1112basic_stringIcSt11char_traitsIcESaIcEEES8_EEEONS0_10__1st_typeIT_E4typeEOSE_
FNDA:0,_ZNSt8__detail21_Hashtable_ebo_helperILi0ESaINS_10_Hash_nodeISt4pairIKNSt7__cxx1112basic_stringIcSt11char_traitsIcESaIcEEES8_ELb1EEEELb1EEC2Ev
FNDA:0,_ZNSt8__detail21_Hashtable_ebo_helperILi0ESt8equal_toINSt7__cxx1112basic_stringIcSt11char_traitsIcESaIcEEEELb1EEC2Ev
FNDA:0,_ZNSt8__detail21_Hashtable_ebo_helperILi1ESt4hashINSt7__cxx1112basic_stringIcSt11char_traitsIcESaIcEEEELb1EEC2Ev
FNDA:0,_ZNKSt8__detail21_Hashtable_ebo_helperILi0ESt8equal_toINSt7__cxx1112basic_stringIcSt11char_traitsIcESaIcEEEELb1EE7_M_cgetEv
FNDA:0,_ZNKSt8__detail21_Hashtable_ebo_helperILi1ESt4hashINSt7__cxx1112basic_stringIcSt11char_traitsIcESaIcEEEELb1EE7_M_cgetEv
FNDA:0,_ZNSt8__detail21_Hashtable_ebo_helperILi0ESaINS_10_Hash_nodeISt4pairIKNSt7__cxx1112basic_stringIcSt11char_traitsIcESaIcEEES8_ELb1EEEELb1EE6_M_getEv
FNDA:0,_ZNSt8__detail15_Hash_code_baseINSt7__cxx1112basic_stringIcSt11char_traitsIcESaIcEEESt4pairIKS6_S6_ENS_10_Select1stESt4hashIS6_ENS_18_Mod_range_hashingENS_20_Default_ranged_hashELb1EEC2Ev
FNDA:0,_ZNKSt8__detail15_Hash_code_baseINSt7__cxx1112basic_stringIcSt11char_traitsIcESaIcEEESt4pairIKS6_S6_ENS_10_Select1stESt4hashIS6_ENS_18_Mod_range_hashingENS_20_Default_ranged_hashELb1EE12_M_hash_codeERS8_
FNDA:0,_ZNKSt8__detail15_Hash_code_baseINSt7__cxx1112basic_stringIcSt11char_traitsIcESaIcEEESt4pairIKS6_S6_ENS_10_Select1stESt4hashIS6_ENS_18_Mod_range_hashingENS_20_Default_ranged_hashELb1EE15_M_bucket_indexEmm
FNDA:0,_ZNKSt8__detail15_Hash_code_baseINSt7__cxx1112basic_stringIcSt11char_traitsIcESaIcEEESt4pairIKS6_S6_ENS_10_Select1stESt4hashIS6_ENS_18_Mod_range_hashingENS_20_Default_ranged_hashELb1EE15_M_bucket_indexERKNS_16_Hash_node_valueIS9_Lb1EEEm
FNDA:0,_ZNKSt8__detail15_Hash_code_baseINSt7__cxx1112basic_stringIcSt11char_traitsIcESaIcEEESt4pairIKS6_S6_ENS_10_Select1stESt4hashIS6_ENS_18_Mod_range_hashingENS_20_Default_ranged_hashELb1EE13_M_store_codeERNS_21_Hash_node_code_cacheILb1EEEm
FNDA:0,_ZNKSt8__detail15_Hash_code_baseINSt7__cxx1112basic_stringIcSt11char_traitsIcESaIcEEESt4pairIKS6_S6_ENS_10_Select1stESt4hashIS6_ENS_18_Mod_range_hashingENS_20_Default_ranged_hashELb1EE7_M_hashEv
FNDA:0,_ZNSt8__detail15_Hashtable_baseINSt7__cxx1112basic_stringIcSt11char_traitsIcESaIcEEESt4pairIKS6_S6_ENS_10_Select1stESt8equal_toIS6_ESt4hashIS6_ENS_18_Mod_range_hashingENS_20_Default_ranged_hashENS_17_Hashtable_traitsILb1ELb0ELb1EEEE9_S_equalsEmRKNS_21_Hash_node_code_cacheILb1EEE
FNDA:0,_ZNSt8__detail15_Hashtable_baseINSt7__cxx1112basic_stringIcSt11char_traitsIcESaIcEEESt4pairIKS6_S6_ENS_10_Select1stESt8equal_toIS6_ESt4hashIS6_ENS_18_Mod_range_hashingENS_20_Default_ranged_hashENS_17_Hashtable_traitsILb1ELb0ELb1EEEEC2Ev
FNDA:0,_ZNKSt8__detail15_Hashtable_baseINSt7__cxx1112basic_stringIcSt11char_traitsIcESaIcEEESt4pairIKS6_S6_ENS_10_Select1stESt8equal_toIS6_ESt4hashIS6_ENS_18_Mod_range_hashingENS_20_Default_ranged_hashENS_17_Hashtable_traitsILb1ELb0ELb1EEEE13_M_key_equalsERS8_RKNS_16_Hash_node_valueIS9_Lb1EEE
FNDA:0,_ZNKSt8__detail15_Hashtable_baseINSt7__cxx1112basic_stringIcSt11char_traitsIcESaIcEEESt4pairIKS6_S6_ENS_10_Select1stESt8equal_toIS6_ESt4hashIS6_ENS_18_Mod_range_hashingENS_20_Default_ranged_hashENS_17_Hashtable_traitsILb1ELb0ELb1EEEE9_M_equalsERS8_mRKNS_16_Hash_node_valueIS9_Lb1EEE
FNDA:0,_ZNKSt8__detail15_Hashtable_baseINSt7__cxx1112basic_stringIcSt11char_traitsIcESaIcEEESt4pairIKS6_S6_ENS_10_Select1stESt8equal_toIS6_ESt4hashIS6_ENS_18_Mod_range_hashingENS_20_Default_ranged_hashENS_17_Hashtable_traitsILb1ELb0ELb1EEEE5_M_eqEv
FNDA:0,_ZNSt8__detail16_Hashtable_allocISaINS_10_Hash_nodeISt4pairIKNSt7__cxx1112basic_stringIcSt11char_traitsIcESaIcEEES8_ELb1EEEEEC2Ev
FNDA:0,_ZNSt8__detail16_Hashtable_allocISaINS_10_Hash_nodeISt4pairIKNSt7__cxx1112basic_stringIcSt11char_traitsIcESaIcEEES8_ELb1EEEEE17_M_node_allocatorEv
FNDA:0,_ZNSt8__detail16_Hashtable_allocISaINS_10_Hash_nodeISt4pairIKNSt7__cxx1112basic_stringIcSt11char_traitsIcESaIcEEES8_ELb1EEEEE16_M_allocate_nodeIJRKSt21piecewise_construct_tSt5tupleIJRS9_EESI_IJEEEEEPSB_DpOT_
FNDA:0,_ZNSt8__detail16_Hashtable_allocISaINS_10_Hash_nodeISt4pairIKNSt7__cxx1112basic_stringIcSt11char_traitsIcESaIcEEES8_ELb1EEEEE18_M_deallocate_nodeEPSB_
FNDA:0,_ZNSt8__detail16_Hashtable_allocISaINS_10_Hash_nodeISt4pairIKNSt7__cxx1112basic_stringIcSt11char_traitsIcESaIcEEES8_ELb1EEEEE22_M_deallocate_node_ptrEPSB_
FNDA:0,_ZNSt8__detail16_Hashtable_allocISaINS_10_Hash_nodeISt4pairIKNSt7__cxx1112basic_stringIcSt11char_traitsIcESaIcEEES8_ELb1EEEEE19_M_deallocate_nodesEPSB_
FNDA:0,_ZNSt8__detail16_Hashtable_allocISaINS_10_Hash_nodeISt4pairIKNSt7__cxx1112basic_stringIcSt11char_traitsIcESaIcEEES8_ELb1EEEEE19_M_allocate_bucketsEm
FNDA:0,_ZNSt8__detail16_Hashtable_allocISaINS_10_Hash_nodeISt4pairIKNSt7__cxx1112basic_stringIcSt11char_traitsIcESaIcEEES8_ELb1EEEEE21_M_deallocate_bucketsEPPNS_15_Hash_node_baseEm
FNDA:0,_ZNSt8__detail15_Hash_node_baseC2Ev
FNDA:0,_ZNKSt8__detail10_Hash_nodeISt4pairIKNSt7__cxx1112basic_stringIcSt11char_traitsIcESaIcEEES7_ELb1EE7_M_nextEv
FNDA:0,_ZNSt8__detail19_Node_iterator_baseISt4pairIKNSt7__cxx1112basic_stringIcSt11char_traitsIcESaIcEEES7_ELb1EEC2EPNS_10_Hash_nodeIS9_Lb1EEE
FNDA:0,_ZNSt8__detail14_Node_iteratorISt4pairIKNSt7__cxx1112basic_stringIcSt11char_traitsIcESaIcEEES7_ELb0ELb1EEC2EPNS_10_Hash_nodeIS9_Lb1EEE
FNDA:0,_ZNKSt8__detail14_Node_iteratorISt4pairIKNSt7__cxx1112basic_stringIcSt11char_traitsIcESaIcEEES7_ELb0ELb1EEptEv
FNDA:0,_ZNKSt8__detail18_Mod_range_hashingclEmm
FNDA:0,_ZNSt8__detail20_Prime_rehash_policyC2Ef
FNDA:0,_ZNKSt8__detail20_Prime_rehash_policy8_M_stateEv
FNDA:0,_ZNSt8__detail20_Prime_rehash_policy8_M_resetEm
FNDA:0,_ZNSt8__detail9_Map_baseINSt7__cxx1112basic_stringIcSt11char_traitsIcESaIcEEESt4pairIKS6_S6_ESaIS9_ENS_10_Select1stESt8equal_toIS6_ESt4hashIS6_ENS_18_Mod_range_hashingENS_20_Default_ranged_hashENS_20_Prime_rehash_policyENS_17_Hashtable_traitsILb1ELb0ELb1EEELb1EEixERS8_
FNF:36
FNH:0
DA:112,0
DA:113,0
DA:313,0
DA:333,0
DA:338,0
DA:343,0
DA:348,0
DA:380,0
DA:381,0
DA:393,0
DA:394,0
DA:436,0
DA:437,0
DA:444,0
DA:445,0
DA:526,0
DA:528,0
DA:544,0
DA:545,0
DA:571,0
DA:572,0
DA:579,0
DA:580,0
DA:807,0
DA:812,0
DA:813,0
DA:814,0
DA:815,0
DA:816,0
DA:818,0
DA:821,0
DA:822,0
DA:825,0
DA:826,0
DA:827,0
DA:828,0
DA:1218,0
DA:1225,0
DA:1226,0
DA:1301,0
DA:1306,0
DA:1310,0
DA:1331,0
DA:1332,0
DA:1346,0
DA:1350,0
DA:1362,0
DA:1363,0
DA:1375,0
DA:1692,0
DA:1693,0
DA:1701,0
DA:1708,0
DA:1715,0
DA:1732,0
DA:1734,0
DA:1760,0
DA:1940,0
DA:1950,0
DA:1951,0
DA:1987,0
DA:1990,0
DA:1991,0
DA:1994,0
DA:1995,0
DA:1998,0
DA:2000,0
DA:2002,0
DA:2003,0
DA:2009,0
DA:2011,0
DA:2012,0
DA:2013,0
DA:2017,0
DA:2020,0
DA:2021,0
DA:2022,0
DA:2023,0
DA:2027,0
DA:2029,0
DA:2031,0
DA:2032,0
DA:2033,0
DA:2035,0
DA:2039,0
DA:2042,0
DA:2044,0
DA:2045,0
DA:2046,0
DA:2047,0
DA:2052,0
DA:2057,0
DA:2058,0
DA:2060,0
LF:94
LH:0
end_of_record
TN:
SF:/usr/include/c++/13/bits/move.h
FN:138,139,_ZSt9addressofINSt8__detail10_Hash_nodeISt4pairIKNSt7__cxx1112basic_stringIcSt11char_traitsIcESaIcEEES8_ELb1EEEEPT_RSC_
FN:138,139,_ZSt9addressofIPNSt8__detail15_Hash_node_baseEEPT_RS3_
FN:189,200,_ZSt4swapIPN5sqlcc7network13EncryptionKeyEENSt9enable_ifIXsrSt6__and_IJSt6__not_ISt15__is_tuple_likeIT_EESt21is_move_constructibleIS8_ESt18is_move_assignableIS8_EEE5valueEvE4typeERS8_SI_
FN:51,52,_ZSt11__addressofIN5sqlcc10sql_parser15TableConstraintEEPT_RS3_
FN:51,52,_ZSt11__addressofIN5sqlcc10sql_parser16ColumnDefinitionEEPT_RS3_
FN:51,52,_ZSt11__addressofINSt7__cxx1112basic_stringIcSt11char_traitsIcESaIcEEEEPT_RS6_
FN:51,52,_ZSt11__addressofINSt8__detail10_Hash_nodeISt4pairIKNSt7__cxx1112basic_stringIcSt11char_traitsIcESaIcEEES8_ELb1EEEEPT_RSC_
FN:51,52,_ZSt11__addressofIPNSt8__detail15_Hash_node_baseEEPT_RS3_
FN:51,52,_ZSt11__addressofISaISt23_Sp_counted_ptr_inplaceIN5sqlcc7network12AESEncryptorESaIvELN9__gnu_cxx12_Lock_policyE2EEEEPT_RS9_
FN:51,52,_ZSt11__addressofISaISt23_Sp_counted_ptr_inplaceIN5sqlcc7network13EncryptionKeyESaIvELN9__gnu_cxx12_Lock_policyE2EEEEPT_RS9_
FN:51,52,_ZSt11__addressofISt10unique_ptrIN5sqlcc10sql_parser9StatementESt14default_deleteIS3_EEEPT_RS7_
FN:51,52,_ZSt11__addressofISt6vectorINSt7__cxx1112basic_stringIcSt11char_traitsIcESaIcEEESaIS6_EEEPT_RS9_
FN:51,52,_ZSt11__addressofIcEPT_RS0_
FN:51,52,_ZSt11__addressofIhEPT_RS0_
FN:70,71,_ZSt7forwardIN5sqlcc10sql_parser13DropStatement10ObjectTypeEEOT_RNSt16remove_referenceIS4_E4typeE
FN:70,71,_ZSt7forwardIN5sqlcc10sql_parser13ShowStatement8ShowTypeEEOT_RNSt16remove_referenceIS4_E4typeE
FN:70,71,_ZSt7forwardIN5sqlcc10sql_parser14AlterStatement10ObjectTypeEEOT_RNSt16remove_referenceIS4_E4typeE
FN:70,71,_ZSt7forwardIN5sqlcc10sql_parser15CreateStatement10ObjectTypeEEOT_RNSt16remove_referenceIS4_E4typeE
FN:70,71,_ZSt7forwardIN5sqlcc10sql_parser15TableConstraintEEOT_RNSt16remove_referenceIS3_E4typeE
FN:70,71,_ZSt7forwardIN5sqlcc10sql_parser16ColumnDefinitionEEOT_RNSt16remove_referenceIS3_E4typeE
FN:70,71,_ZSt7forwardINSt7__cxx1112basic_stringIcSt11char_traitsIcESaIcEEEEOT_RNSt16remove_referenceIS6_E4typeE
FN:70,71,_ZSt7forwardIRKN5sqlcc10sql_parser15TableConstraintEEOT_RNSt16remove_referenceIS5_E4typeE
FN:70,71,_ZSt7forwardIRKN5sqlcc10sql_parser16ColumnDefinitionEEOT_RNSt16remove_referenceIS5_E4typeE
FN:70,71,_ZSt7forwardIRKNSt7__cxx1112basic_stringIcSt11char_traitsIcESaIcEEEEOT_RNSt16remove_referenceIS8_E4typeE
FN:70,71,_ZSt7forwardIRKPKcEOT_RNSt16remove_referenceIS4_E4typeE
FN:70,71,_ZSt7forwardIRKSt21piecewise_construct_tEOT_RNSt16remove_referenceIS3_E4typeE
FN:70,71,_ZSt7forwardIRKSt4pairIKNSt7__cxx1112basic_stringIcSt11char_traitsIcESaIcEEES6_EEOT_RNSt16remove_referenceISB_E4typeE
FN:70,71,_ZSt7forwardIRKSt6vectorINSt7__cxx1112basic_stringIcSt11char_traitsIcESaIcEEESaIS6_EEEOT_RNSt16remove_referenceISB_E4typeE
FN:70,71,_ZSt7forwardIRNSt7__cxx1112basic_stringIcSt11char_traitsIcESaIcEEEEOT_RNSt16remove_referenceIS7_E4typeE
FN:70,71,_ZSt7forwardIRPN5sqlcc10sql_parser9StatementEEOT_RNSt16remove_referenceIS5_E4typeE
FN:70,71,_ZSt7forwardIRSt10shared_ptrIN5sqlcc7network13EncryptionKeyEEEOT_RNSt16remove_referenceIS6_E4typeE
FN:70,71,_ZSt7forwardIRSt6vectorIhSaIhEEEOT_RNSt16remove_referenceIS4_E4typeE
FN:70,71,_ZSt7forwardISt10unique_ptrIN5sqlcc10sql_parser9StatementESt14default_deleteIS3_EEEOT_RNSt16remove_referenceIS7_E4typeE
FN:70,71,_ZSt7forwardISt14default_deleteIN5sqlcc10sql_parser12UseStatementEEEOT_RNSt16remove_referenceIS5_E4typeE
FN:70,71,_ZSt7forwardISt14default_deleteIN5sqlcc10sql_parser13ShowStatementEEEOT_RNSt16remove_referenceIS5_E4typeE
FN:70,71,_ZSt7forwardISt14default_deleteIN5sqlcc10sql_parser14AlterStatementEEEOT_RNSt16remove_referenceIS5_E4typeE
FN:70,71,_ZSt7forwardISt14default_deleteIN5sqlcc10sql_parser14GrantStatementEEEOT_RNSt16remove_referenceIS5_E4typeE
FN:70,71,_ZSt7forwardISt14default_deleteIN5sqlcc10sql_parser15DeleteStatementEEEOT_RNSt16remove_referenceIS5_E4typeE
FN:70,71,_ZSt7forwardISt14default_deleteIN5sqlcc10sql_parser15InsertStatementEEEOT_RNSt16remove_referenceIS5_E4typeE
FN:70,71,_ZSt7forwardISt14default_deleteIN5sqlcc10sql_parser15RevokeStatementEEEOT_RNSt16remove_referenceIS5_E4typeE
FN:70,71,_ZSt7forwardISt14default_deleteIN5sqlcc10sql_parser15SelectStatementEEEOT_RNSt16remove_referenceIS5_E4typeE
FN:70,71,_ZSt7forwardISt14default_deleteIN5sqlcc10sql_parser15UpdateStatementEEEOT_RNSt16remove_referenceIS5_E4typeE
FN:70,71,_ZSt7forwardISt14default_deleteIN5sqlcc10sql_parser17DropUserStatementEEEOT_RNSt16remove_referenceIS5_E4typeE
FN:70,71,_ZSt7forwardISt14default_deleteIN5sqlcc10sql_parser19CreateUserStatementEEEOT_RNSt16remove_referenceIS5_E4typeE
FN:70,71,_ZSt7forwardISt14default_deleteINSt7__cxx1112basic_stringIcSt11char_traitsIcESaIcEEEEEOT_RNSt16remove_referenceIS8_E4typeE
FN:70,71,_ZSt7forwardISt5tupleIJEEEOT_RNSt16remove_referenceIS2_E4typeE
FN:70,71,_ZSt7forwardISt5tupleIJRKNSt7__cxx1112basic_stringIcSt11char_traitsIcESaIcEEEEEEOT_RNSt16remove_referenceISA_E4typeE
FN:70,71,_ZSt7forwardISt6vectorINSt7__cxx1112basic_stringIcSt11char_traitsIcESaIcEEESaIS6_EEEOT_RNSt16remove_referenceIS9_E4typeE
FN:97,98,_ZSt4moveIRN5sqlcc10sql_parser15TableConstraintEEONSt16remove_referenceIT_E4typeEOS5_
FN:97,98,_ZSt4moveIRN5sqlcc10sql_parser16ColumnDefinitionEEONSt16remove_referenceIT_E4typeEOS5_
FN:97,98,_ZSt4moveIRNSt12_Vector_baseINSt7__cxx1112basic_stringIcSt11char_traitsIcESaIcEEESaIS6_EE12_Vector_implEEONSt16remove_referenceIT_E4typeEOSC_
FN:97,98,_ZSt4moveIRNSt7__cxx1112basic_stringIcSt11char_traitsIcESaIcEEEEONSt16remove_referenceIT_E4typeEOS8_
FN:97,98,_ZSt4moveIRPN5sqlcc10sql_parser12UseStatementEEONSt16remove_referenceIT_E4typeEOS6_
FN:97,98,_ZSt4moveIRPN5sqlcc10sql_parser13DropStatementEEONSt16remove_referenceIT_E4typeEOS6_
FN:97,98,_ZSt4moveIRPN5sqlcc10sql_parser13ShowStatementEEONSt16remove_referenceIT_E4typeEOS6_
FN:97,98,_ZSt4moveIRPN5sqlcc10sql_parser14AlterStatementEEONSt16remove_referenceIT_E4typeEOS6_
FN:97,98,_ZSt4moveIRPN5sqlcc10sql_parser14GrantStatementEEONSt16remove_referenceIT_E4typeEOS6_
FN:97,98,_ZSt4moveIRPN5sqlcc10sql_parser15CreateStatementEEONSt16remove_referenceIT_E4typeEOS6_
FN:97,98,_ZSt4moveIRPN5sqlcc10sql_parser15DeleteStatementEEONSt16remove_referenceIT_E4typeEOS6_
FN:97,98,_ZSt4moveIRPN5sqlcc10sql_parser15InsertStatementEEONSt16remove_referenceIT_E4typeEOS6_
FN:97,98,_ZSt4moveIRPN5sqlcc10sql_parser15RevokeStatementEEONSt16remove_referenceIT_E4typeEOS6_
FN:97,98,_ZSt4moveIRPN5sqlcc10sql_parser15SelectStatementEEONSt16remove_referenceIT_E4typeEOS6_
FN:97,98,_ZSt4moveIRPN5sqlcc10sql_parser15UpdateStatementEEONSt16remove_referenceIT_E4typeEOS6_
FN:97,98,_ZSt4moveIRPN5sqlcc10sql_parser17DropUserStatementEEONSt16remove_referenceIT_E4typeEOS6_
FN:97,98,_ZSt4moveIRPN5sqlcc10sql_parser18DropIndexStatementEEONSt16remove_referenceIT_E4typeEOS6_
FN:97,98,_ZSt4moveIRPN5sqlcc10sql_parser19CreateUserStatementEEONSt16remove_referenceIT_E4typeEOS6_
FN:97,98,_ZSt4moveIRPN5sqlcc10sql_parser20CreateIndexStatementEEONSt16remove_referenceIT_E4typeEOS6_
FN:97,98,_ZSt4moveIRPN5sqlcc10sql_parser9StatementEEONSt16remove_referenceIT_E4typeEOS6_
FN:97,98,_ZSt4moveIRPN5sqlcc7network13EncryptionKeyEEONSt16remove_referenceIT_E4typeEOS6_
FN:97,98,_ZSt4moveIRPNSt7__cxx1112basic_stringIcSt11char_traitsIcESaIcEEEEONSt16remove_referenceIT_E4typeEOS9_
FN:97,98,_ZSt4moveIRPNSt7__cxx1118basic_stringstreamIcSt11char_traitsIcESaIcEEEEONSt16remove_referenceIT_E4typeEOS9_
FN:97,98,_ZSt4moveIRPhEONSt16remove_referenceIT_E4typeEOS3_
FN:97,98,_ZSt4moveIRSaIcEEONSt16remove_referenceIT_E4typeEOS3_
FN:97,98,_ZSt4moveIRSt10shared_ptrIN5sqlcc7network13EncryptionKeyEEEONSt16remove_referenceIT_E4typeEOS7_
FN:97,98,_ZSt4moveIRSt10unique_ptrIN5sqlcc10sql_parser9StatementESt14default_deleteIS3_EEEONSt16remove_referenceIT_E4typeEOS9_
FN:97,98,_ZSt4moveIRSt12__shared_ptrIN5sqlcc7network13EncryptionKeyELN9__gnu_cxx12_Lock_policyE2EEEONSt16remove_referenceIT_E4typeEOS9_
FN:97,98,_ZSt4moveIRSt5tupleIJPN5sqlcc10sql_parser12UseStatementESt14default_deleteIS3_EEEEONSt16remove_referenceIT_E4typeEOSA_
FN:97,98,_ZSt4moveIRSt5tupleIJPN5sqlcc10sql_parser13DropStatementESt14default_deleteIS3_EEEEONSt16remove_referenceIT_E4typeEOSA_
FN:97,98,_ZSt4moveIRSt5tupleIJPN5sqlcc10sql_parser14AlterStatementESt14default_deleteIS3_EEEEONSt16remove_referenceIT_E4typeEOSA_
FN:97,98,_ZSt4moveIRSt5tupleIJPN5sqlcc10sql_parser15CreateStatementESt14default_deleteIS3_EEEEONSt16remove_referenceIT_E4typeEOSA_
FN:97,98,_ZSt4moveIRSt5tupleIJPN5sqlcc10sql_parser15DeleteStatementESt14default_deleteIS3_EEEEONSt16remove_referenceIT_E4typeEOSA_
FN:97,98,_ZSt4moveIRSt5tupleIJPN5sqlcc10sql_parser15InsertStatementESt14default_deleteIS3_EEEEONSt16remove_referenceIT_E4typeEOSA_
FN:97,98,_ZSt4moveIRSt5tupleIJPN5sqlcc10sql_parser15UpdateStatementESt14default_deleteIS3_EEEEONSt16remove_referenceIT_E4typeEOSA_
FN:97,98,_ZSt4moveIRSt5tupleIJPN5sqlcc10sql_parser18DropIndexStatementESt14default_deleteIS3_EEEEONSt16remove_referenceIT_E4typeEOSA_
FN:97,98,_ZSt4moveIRSt5tupleIJPN5sqlcc10sql_parser20CreateIndexStatementESt14default_deleteIS3_EEEEONSt16remove_referenceIT_E4typeEOSA_
FN:97,98,_ZSt4moveIRSt5tupleIJPN5sqlcc10sql_parser9StatementESt14default_deleteIS3_EEEEONSt16remove_referenceIT_E4typeEOSA_
FN:97,98,_ZSt4moveIRSt6vectorINSt7__cxx1112basic_stringIcSt11char_traitsIcESaIcEEESaIS6_EEEONSt16remove_referenceIT_E4typeEOSB_
FN:97,98,_ZSt4moveIRhEONSt16remove_referenceIT_E4typeEOS2_
FNDA:0,_ZSt9addressofINSt8__detail10_Hash_nodeISt4pairIKNSt7__cxx1112basic_stringIcSt11char_traitsIcESaIcEEES8_ELb1EEEEPT_RSC_
FNDA:0,_ZSt9addressofIPNSt8__detail15_Hash_node_baseEEPT_RS3_
FNDA:8,_ZSt4swapIPN5sqlcc7network13EncryptionKeyEENSt9enable_ifIXsrSt6__and_IJSt6__not_ISt15__is_tuple_likeIT_EESt21is_move_constructibleIS8_ESt18is_move_assignableIS8_EEE5valueEvE4typeERS8_SI_
FNDA:0,_ZSt11__addressofIN5sqlcc10sql_parser15TableConstraintEEPT_RS3_
FNDA:4,_ZSt11__addressofIN5sqlcc10sql_parser16ColumnDefinitionEEPT_RS3_
FNDA:87,_ZSt11__addressofINSt7__cxx1112basic_stringIcSt11char_traitsIcESaIcEEEEPT_RS6_
FNDA:0,_ZSt11__addressofINSt8__detail10_Hash_nodeISt4pairIKNSt7__cxx1112basic_stringIcSt11char_traitsIcESaIcEEES8_ELb1EEEEPT_RSC_
FNDA:0,_ZSt11__addressofIPNSt8__detail15_Hash_node_baseEEPT_RS3_
FNDA:12,_ZSt11__addressofISaISt23_Sp_counted_ptr_inplaceIN5sqlcc7network12AESEncryptorESaIvELN9__gnu_cxx12_Lock_policyE2EEEEPT_RS9_
FNDA:50,_ZSt11__addressofISaISt23_Sp_counted_ptr_inplaceIN5sqlcc7network13EncryptionKeyESaIvELN9__gnu_cxx12_Lock_policyE2EEEEPT_RS9_
FNDA:13,_ZSt11__addressofISt10unique_ptrIN5sqlcc10sql_parser9StatementESt14default_deleteIS3_EEEPT_RS7_
FNDA:0,_ZSt11__addressofISt6vectorINSt7__cxx1112basic_stringIcSt11char_traitsIcESaIcEEESaIS6_EEEPT_RS9_
FNDA:4,_ZSt11__addressofIcEPT_RS0_
FNDA:90,_ZSt11__addressofIhEPT_RS0_
FNDA:0,_ZSt7forwardIN5sqlcc10sql_parser13DropStatement10ObjectTypeEEOT_RNSt16remove_referenceIS4_E4typeE
FNDA:0,_ZSt7forwardIN5sqlcc10sql_parser13ShowStatement8ShowTypeEEOT_RNSt16remove_referenceIS4_E4typeE
FNDA:1,_ZSt7forwardIN5sqlcc10sql_parser14AlterStatement10ObjectTypeEEOT_RNSt16remove_referenceIS4_E4typeE
FNDA:2,_ZSt7forwardIN5sqlcc10sql_parser15CreateStatement10ObjectTypeEEOT_RNSt16remove_referenceIS4_E4typeE
FNDA:0,_ZSt7forwardIN5sqlcc10sql_parser15TableConstraintEEOT_RNSt16remove_referenceIS3_E4typeE
FNDA:8,_ZSt7forwardIN5sqlcc10sql_parser16ColumnDefinitionEEOT_RNSt16remove_referenceIS3_E4typeE
FNDA:12,_ZSt7forwardINSt7__cxx1112basic_stringIcSt11char_traitsIcESaIcEEEEOT_RNSt16remove_referenceIS6_E4typeE
FNDA:0,_ZSt7forwardIRKN5sqlcc10sql_parser15TableConstraintEEOT_RNSt16remove_referenceIS5_E4typeE
FNDA:1,_ZSt7forwardIRKN5sqlcc10sql_parser16ColumnDefinitionEEOT_RNSt16remove_referenceIS5_E4typeE
FNDA:31,_ZSt7forwardIRKNSt7__cxx1112basic_stringIcSt11char_traitsIcESaIcEEEEOT_RNSt16remove_referenceIS8_E4typeE
FNDA:4,_ZSt7forwardIRKPKcEOT_RNSt16remove_referenceIS4_E4typeE
FNDA:0,_ZSt7forwardIRKSt21piecewise_construct_tEOT_RNSt16remove_referenceIS3_E4typeE
FNDA:0,_ZSt7forwardIRKSt4pairIKNSt7__cxx1112basic_stringIcSt11char_traitsIcESaIcEEES6_EEOT_RNSt16remove_referenceISB_E4typeE
FNDA:0,_ZSt7forwardIRKSt6vectorINSt7__cxx1112basic_stringIcSt11char_traitsIcESaIcEEESaIS6_EEEOT_RNSt16remove_referenceISB_E4typeE
FNDA:9,_ZSt7forwardIRNSt7__cxx1112basic_stringIcSt11char_traitsIcESaIcEEEEOT_RNSt16remove_referenceIS7_E4typeE
FNDA:33,_ZSt7forwardIRPN5sqlcc10sql_parser9StatementEEOT_RNSt16remove_referenceIS5_E4typeE
FNDA:42,_ZSt7forwardIRSt10shared_ptrIN5sqlcc7network13EncryptionKeyEEEOT_RNSt16remove_referenceIS6_E4typeE
FNDA:350,_ZSt7forwardIRSt6vectorIhSaIhEEEOT_RNSt16remove_referenceIS4_E4typeE
FNDA:52,_ZSt7forwardISt10unique_ptrIN5sqlcc10sql_parser9StatementESt14default_deleteIS3_EEEOT_RNSt16remove_referenceIS7_E4typeE
FNDA:0,_ZSt7forwardISt14default_deleteIN5sqlcc10sql_parser12UseStatementEEEOT_RNSt16remove_referenceIS5_E4typeE
FNDA:0,_ZSt7forwardISt14default_deleteIN5sqlcc10sql_parser13ShowStatementEEEOT_RNSt16remove_referenceIS5_E4typeE
FNDA:6,_ZSt7forwardISt14default_deleteIN5sqlcc10sql_parser14AlterStatementEEEOT_RNSt16remove_referenceIS5_E4typeE
FNDA:18,_ZSt7forwardISt14default_deleteIN5sqlcc10sql_parser14GrantStatementEEEOT_RNSt16remove_referenceIS5_E4typeE
FNDA:0,_ZSt7forwardISt14default_deleteIN5sqlcc10sql_parser15DeleteStatementEEEOT_RNSt16remove_referenceIS5_E4typeE
FNDA:0,_ZSt7forwardISt14default_deleteIN5sqlcc10sql_parser15InsertStatementEEEOT_RNSt16remove_referenceIS5_E4typeE
FNDA:18,_ZSt7forwardISt14default_deleteIN5sqlcc10sql_parser15RevokeStatementEEEOT_RNSt16remove_referenceIS5_E4typeE
FNDA:0,_ZSt7forwardISt14default_deleteIN5sqlcc10sql_parser15SelectStatementEEEOT_RNSt16remove_referenceIS5_E4typeE
FNDA:0,_ZSt7forwardISt14default_deleteIN5sqlcc10sql_parser15UpdateStatementEEEOT_RNSt16remove_referenceIS5_E4typeE
FNDA:12,_ZSt7forwardISt14default_deleteIN5sqlcc10sql_parser17DropUserStatementEEEOT_RNSt16remove_referenceIS5_E4typeE
FNDA:12,_ZSt7forwardISt14default_deleteIN5sqlcc10sql_parser19CreateUserStatementEEEOT_RNSt16remove_referenceIS5_E4typeE
FNDA:0,_ZSt7forwardISt14default_deleteINSt7__cxx1112basic_stringIcSt11char_traitsIcESaIcEEEEEOT_RNSt16remove_referenceIS8_E4typeE
FNDA:0,_ZSt7forwardISt5tupleIJEEEOT_RNSt16remove_referenceIS2_E4typeE
FNDA:0,_ZSt7forwardISt5tupleIJRKNSt7__cxx1112basic_stringIcSt11char_traitsIcESaIcEEEEEEOT_RNSt16remove_referenceISA_E4typeE
FNDA:0,_ZSt7forwardISt6vectorINSt7__cxx1112basic_stringIcSt11char_traitsIcESaIcEEESaIS6_EEEOT_RNSt16remove_referenceIS9_E4typeE
FNDA:0,_ZSt4moveIRN5sqlcc10sql_parser15TableConstraintEEONSt16remove_referenceIT_E4typeEOS5_
FNDA:6,_ZSt4moveIRN5sqlcc10sql_parser16ColumnDefinitionEEONSt16remove_referenceIT_E4typeEOS5_
FNDA:0,_ZSt4moveIRNSt12_Vector_baseINSt7__cxx1112basic_stringIcSt11char_traitsIcESaIcEEESaIS6_EE12_Vector_implEEONSt16remove_referenceIT_E4typeEOSC_
FNDA:7,_ZSt4moveIRNSt7__cxx1112basic_stringIcSt11char_traitsIcESaIcEEEEONSt16remove_referenceIT_E4typeEOS8_
FNDA:0,_ZSt4moveIRPN5sqlcc10sql_parser12UseStatementEEONSt16remove_referenceIT_E4typeEOS6_
FNDA:0,_ZSt4moveIRPN5sqlcc10sql_parser13DropStatementEEONSt16remove_referenceIT_E4typeEOS6_
FNDA:0,_ZSt4moveIRPN5sqlcc10sql_parser13ShowStatementEEONSt16remove_referenceIT_E4typeEOS6_
FNDA:0,_ZSt4moveIRPN5sqlcc10sql_parser14AlterStatementEEONSt16remove_referenceIT_E4typeEOS6_
FNDA:0,_ZSt4moveIRPN5sqlcc10sql_parser14GrantStatementEEONSt16remove_referenceIT_E4typeEOS6_
FNDA:0,_ZSt4moveIRPN5sqlcc10sql_parser15CreateStatementEEONSt16remove_referenceIT_E4typeEOS6_
FNDA:0,_ZSt4moveIRPN5sqlcc10sql_parser15DeleteStatementEEONSt16remove_referenceIT_E4typeEOS6_
FNDA:0,_ZSt4moveIRPN5sqlcc10sql_parser15InsertStatementEEONSt16remove_referenceIT_E4typeEOS6_
FNDA:0,_ZSt4moveIRPN5sqlcc10sql_parser15RevokeStatementEEONSt16remove_referenceIT_E4typeEOS6_
FNDA:0,_ZSt4moveIRPN5sqlcc10sql_parser15SelectStatementEEONSt16remove_referenceIT_E4typeEOS6_
FNDA:0,_ZSt4moveIRPN5sqlcc10sql_parser15UpdateStatementEEONSt16remove_referenceIT_E4typeEOS6_
FNDA:0,_ZSt4moveIRPN5sqlcc10sql_parser17DropUserStatementEEONSt16remove_referenceIT_E4typeEOS6_
FNDA:0,_ZSt4moveIRPN5sqlcc10sql_parser18DropIndexStatementEEONSt16remove_referenceIT_E4typeEOS6_
FNDA:0,_ZSt4moveIRPN5sqlcc10sql_parser19CreateUserStatementEEONSt16remove_referenceIT_E4typeEOS6_
FNDA:0,_ZSt4moveIRPN5sqlcc10sql_parser20CreateIndexStatementEEONSt16remove_referenceIT_E4typeEOS6_
FNDA:13,_ZSt4moveIRPN5sqlcc10sql_parser9StatementEEONSt16remove_referenceIT_E4typeEOS6_
FNDA:24,_ZSt4moveIRPN5sqlcc7network13EncryptionKeyEEONSt16remove_referenceIT_E4typeEOS6_
FNDA:0,_ZSt4moveIRPNSt7__cxx1112basic_stringIcSt11char_traitsIcESaIcEEEEONSt16remove_referenceIT_E4typeEOS9_
FNDA:0,_ZSt4moveIRPNSt7__cxx1118basic_stringstreamIcSt11char_traitsIcESaIcEEEEONSt16remove_referenceIT_E4typeEOS9_
FNDA:4,_ZSt4moveIRPhEONSt16remove_referenceIT_E4typeEOS3_
FNDA:0,_ZSt4moveIRSaIcEEONSt16remove_referenceIT_E4typeEOS3_
FNDA:8,_ZSt4moveIRSt10shared_ptrIN5sqlcc7network13EncryptionKeyEEEONSt16remove_referenceIT_E4typeEOS7_
FNDA:26,_ZSt4moveIRSt10unique_ptrIN5sqlcc10sql_parser9StatementESt14default_deleteIS3_EEEONSt16remove_referenceIT_E4typeEOS9_
FNDA:8,_ZSt4moveIRSt12__shared_ptrIN5sqlcc7network13EncryptionKeyELN9__gnu_cxx12_Lock_policyE2EEEONSt16remove_referenceIT_E4typeEOS9_
FNDA:0,_ZSt4moveIRSt5tupleIJPN5sqlcc10sql_parser12UseStatementESt14default_deleteIS3_EEEEONSt16remove_referenceIT_E4typeEOSA_
FNDA:0,_ZSt4moveIRSt5tupleIJPN5sqlcc10sql_parser13DropStatementESt14default_deleteIS3_EEEEONSt16remove_referenceIT_E4typeEOSA_
FNDA:1,_ZSt4moveIRSt5tupleIJPN5sqlcc10sql_parser14AlterStatementESt14default_deleteIS3_EEEEONSt16remove_referenceIT_E4typeEOSA_
FNDA:2,_ZSt4moveIRSt5tupleIJPN5sqlcc10sql_parser15CreateStatementESt14default_deleteIS3_EEEEONSt16remove_referenceIT_E4typeEOSA_
FNDA:0,_ZSt4moveIRSt5tupleIJPN5sqlcc10sql_parser15DeleteStatementESt14default_deleteIS3_EEEEONSt16remove_referenceIT_E4typeEOSA_
FNDA:0,_ZSt4moveIRSt5tupleIJPN5sqlcc10sql_parser15InsertStatementESt14default_deleteIS3_EEEEONSt16remove_referenceIT_E4typeEOSA_
FNDA:0,_ZSt4moveIRSt5tupleIJPN5sqlcc10sql_parser15UpdateStatementESt14default_deleteIS3_EEEEONSt16remove_referenceIT_E4typeEOSA_
FNDA:0,_ZSt4moveIRSt5tupleIJPN5sqlcc10sql_parser18DropIndexStatementESt14default_deleteIS3_EEEEONSt16remove_referenceIT_E4typeEOSA_
FNDA:0,_ZSt4moveIRSt5tupleIJPN5sqlcc10sql_parser20CreateIndexStatementESt14default_deleteIS3_EEEEONSt16remove_referenceIT_E4typeEOSA_
FNDA:13,_ZSt4moveIRSt5tupleIJPN5sqlcc10sql_parser9StatementESt14default_deleteIS3_EEEEONSt16remove_referenceIT_E4typeEOSA_
FNDA:0,_ZSt4moveIRSt6vectorINSt7__cxx1112basic_stringIcSt11char_traitsIcESaIcEEESaIS6_EEEONSt16remove_referenceIT_E4typeEOSB_
FNDA:0,_ZSt4moveIRhEONSt16remove_referenceIT_E4typeEOS2_
FNF:88
FNH:36
DA:51,260
DA:52,260
DA:70,611
DA:71,611
DA:97,112
DA:98,112
DA:138,0
DA:139,0
DA:189,8
DA:197,8
DA:198,8
DA:199,8
DA:200,8
LF:13
LH:11
end_of_record
TN:
SF:/usr/include/c++/13/bits/new_allocator.h
FN:104,104,_ZNSt15__new_allocatorIN5sqlcc10sql_parser15TableConstraintEED2Ev
FN:104,104,_ZNSt15__new_allocatorIN5sqlcc10sql_parser16ColumnDefinitionEED2Ev
FN:104,104,_ZNSt15__new_allocatorINSt7__cxx1112basic_stringIcSt11char_traitsIcESaIcEEEED2Ev
FN:104,104,_ZNSt15__new_allocatorINSt8__detail10_Hash_nodeISt4pairIKNSt7__cxx1112basic_stringIcSt11char_traitsIcESaIcEEES8_ELb1EEEED2Ev
FN:104,104,_ZNSt15__new_allocatorIPNSt8__detail15_Hash_node_baseEED2Ev
FN:104,104,_ZNSt15__new_allocatorISt10unique_ptrIN5sqlcc10sql_parser9StatementESt14default_deleteIS3_EEED2Ev
FN:104,104,_ZNSt15__new_allocatorISt23_Sp_counted_ptr_inplaceIN5sqlcc7network12AESEncryptorESaIvELN9__gnu_cxx12_Lock_policyE2EEED2Ev
FN:104,104,_ZNSt15__new_allocatorISt23_Sp_counted_ptr_inplaceIN5sqlcc7network13EncryptionKeyESaIvELN9__gnu_cxx12_Lock_policyE2EEED2Ev
FN:104,104,_ZNSt15__new_allocatorISt6vectorINSt7__cxx1112basic_stringIcSt11char_traitsIcESaIcEEESaIS6_EEED2Ev
FN:104,104,_ZNSt15__new_allocatorIcED2Ev
FN:104,104,_ZNSt15__new_allocatorIhED2Ev
FN:126,152,_ZNSt15__new_allocatorIN5sqlcc10sql_parser15TableConstraintEE8allocateEmPKv
FN:126,152,_ZNSt15__new_allocatorIN5sqlcc10sql_parser16ColumnDefinitionEE8allocateEmPKv
FN:126,152,_ZNSt15__new_allocatorINSt7__cxx1112basic_stringIcSt11char_traitsIcESaIcEEEE8allocateEmPKv
FN:126,152,_ZNSt15__new_allocatorINSt8__detail10_Hash_nodeISt4pairIKNSt7__cxx1112basic_stringIcSt11char_traitsIcESaIcEEES8_ELb1EEEE8allocateEmPKv
FN:126,152,_ZNSt15__new_allocatorIPNSt8__detail15_Hash_node_baseEE8allocateEmPKv
FN:126,152,_ZNSt15__new_allocatorISt10unique_ptrIN5sqlcc10sql_parser9StatementESt14default_deleteIS3_EEE8allocateEmPKv
FN:126,152,_ZNSt15__new_allocatorISt23_Sp_counted_ptr_inplaceIN5sqlcc7network12AESEncryptorESaIvELN9__gnu_cxx12_Lock_policyE2EEE8allocateEmPKv
FN:126,152,_ZNSt15__new_allocatorISt23_Sp_counted_ptr_inplaceIN5sqlcc7network13EncryptionKeyESaIvELN9__gnu_cxx12_Lock_policyE2EEE8allocateEmPKv
FN:126,152,_ZNSt15__new_allocatorISt6vectorINSt7__cxx1112basic_stringIcSt11char_traitsIcESaIcEEESaIS6_EEE8allocateEmPKv
FN:126,152,_ZNSt15__new_allocatorIcE8allocateEmPKv
FN:126,152,_ZNSt15__new_allocatorIhE8allocateEmPKv
FN:156,173,_ZNSt15__new_allocatorIN5sqlcc10sql_parser15TableConstraintEE10deallocateEPS2_m
FN:156,173,_ZNSt15__new_allocatorIN5sqlcc10sql_parser16ColumnDefinitionEE10deallocateEPS2_m
FN:156,173,_ZNSt15__new_allocatorINSt7__cxx1112basic_stringIcSt11char_traitsIcESaIcEEEE10deallocateEPS5_m
FN:156,173,_ZNSt15__new_allocatorINSt8__detail10_Hash_nodeISt4pairIKNSt7__cxx1112basic_stringIcSt11char_traitsIcESaIcEEES8_ELb1EEEE10deallocateEPSB_m
FN:156,173,_ZNSt15__new_allocatorIPNSt8__detail15_Hash_node_baseEE10deallocateEPS2_m
FN:156,173,_ZNSt15__new_allocatorISt10unique_ptrIN5sqlcc10sql_parser9StatementESt14default_deleteIS3_EEE10deallocateEPS6_m
FN:156,173,_ZNSt15__new_allocatorISt23_Sp_counted_ptr_inplaceIN5sqlcc7network12AESEncryptorESaIvELN9__gnu_cxx12_Lock_policyE2EEE10deallocateEPS7_m
FN:156,173,_ZNSt15__new_allocatorISt23_Sp_counted_ptr_inplaceIN5sqlcc7network13EncryptionKeyESaIvELN9__gnu_cxx12_Lock_policyE2EEE10deallocateEPS7_m
FN:156,173,_ZNSt15__new_allocatorISt6vectorINSt7__cxx1112basic_stringIcSt11char_traitsIcESaIcEEESaIS6_EEE10deallocateEPS8_m
FN:156,173,_ZNSt15__new_allocatorIcE10deallocateEPcm
FN:156,173,_ZNSt15__new_allocatorIhE10deallocateEPhm
FNDA:2,_ZNSt15__new_allocatorIN5sqlcc10sql_parser15TableConstraintEED2Ev
FNDA:2,_ZNSt15__new_allocatorIN5sqlcc10sql_parser16ColumnDefinitionEED2Ev
FNDA:45,_ZNSt15__new_allocatorINSt7__cxx1112basic_stringIcSt11char_traitsIcESaIcEEEED2Ev
FNDA:0,_ZNSt15__new_allocatorINSt8__detail10_Hash_nodeISt4pairIKNSt7__cxx1112basic_stringIcSt11char_traitsIcESaIcEEES8_ELb1EEEED2Ev
FNDA:0,_ZNSt15__new_allocatorIPNSt8__detail15_Hash_node_baseEED2Ev
FNDA:13,_ZNSt15__new_allocatorISt10unique_ptrIN5sqlcc10sql_parser9StatementESt14default_deleteIS3_EEED2Ev
FNDA:12,_ZNSt15__new_allocatorISt23_Sp_counted_ptr_inplaceIN5sqlcc7network12AESEncryptorESaIvELN9__gnu_cxx12_Lock_policyE2EEED2Ev
FNDA:50,_ZNSt15__new_allocatorISt23_Sp_counted_ptr_inplaceIN5sqlcc7network13EncryptionKeyESaIvELN9__gnu_cxx12_Lock_policyE2EEED2Ev
FNDA:0,_ZNSt15__new_allocatorISt6vectorINSt7__cxx1112basic_stringIcSt11char_traitsIcESaIcEEESaIS6_EEED2Ev
FNDA:304,_ZNSt15__new_allocatorIcED2Ev
FNDA:455,_ZNSt15__new_allocatorIhED2Ev
FNDA:0,_ZNSt15__new_allocatorIN5sqlcc10sql_parser15TableConstraintEE8allocateEmPKv
FNDA:2,_ZNSt15__new_allocatorIN5sqlcc10sql_parser16ColumnDefinitionEE8allocateEmPKv
FNDA:11,_ZNSt15__new_allocatorINSt7__cxx1112basic_stringIcSt11char_traitsIcESaIcEEEE8allocateEmPKv
FNDA:0,_ZNSt15__new_allocatorINSt8__detail10_Hash_nodeISt4pairIKNSt7__cxx1112basic_stringIcSt11char_traitsIcESaIcEEES8_ELb1EEEE8allocateEmPKv
FNDA:0,_ZNSt15__new_allocatorIPNSt8__detail15_Hash_node_baseEE8allocateEmPKv
FNDA:13,_ZNSt15__new_allocatorISt10unique_ptrIN5sqlcc10sql_parser9StatementESt14default_deleteIS3_EEE8allocateEmPKv
FNDA:6,_ZNSt15__new_allocatorISt23_Sp_counted_ptr_inplaceIN5sqlcc7network12AESEncryptorESaIvELN9__gnu_cxx12_Lock_policyE2EEE8allocateEmPKv
FNDA:25,_ZNSt15__new_allocatorISt23_Sp_counted_ptr_inplaceIN5sqlcc7network13EncryptionKeyESaIvELN9__gnu_cxx12_Lock_policyE2EEE8allocateEmPKv
FNDA:0,_ZNSt15__new_allocatorISt6vectorINSt7__cxx1112basic_stringIcSt11char_traitsIcESaIcEEESaIS6_EEE8allocateEmPKv
FNDA:7,_ZNSt15__new_allocatorIcE8allocateEmPKv
FNDA:170,_ZNSt15__new_allocatorIhE8allocateEmPKv
FNDA:0,_ZNSt15__new_allocatorIN5sqlcc10sql_parser15TableConstraintEE10deallocateEPS2_m
FNDA:2,_ZNSt15__new_allocatorIN5sqlcc10sql_parser16ColumnDefinitionEE10deallocateEPS2_m
FNDA:41,_ZNSt15__new_allocatorINSt7__cxx1112basic_stringIcSt11char_traitsIcESaIcEEEE10deallocateEPS5_m
FNDA:0,_ZNSt15__new_allocatorINSt8__detail10_Hash_nodeISt4pairIKNSt7__cxx1112basic_stringIcSt11char_traitsIcESaIcEEES8_ELb1EEEE10deallocateEPSB_m
FNDA:0,_ZNSt15__new_allocatorIPNSt8__detail15_Hash_node_baseEE10deallocateEPS2_m
FNDA:13,_ZNSt15__new_allocatorISt10unique_ptrIN5sqlcc10sql_parser9StatementESt14default_deleteIS3_EEE10deallocateEPS6_m
FNDA:6,_ZNSt15__new_allocatorISt23_Sp_counted_ptr_inplaceIN5sqlcc7network12AESEncryptorESaIvELN9__gnu_cxx12_Lock_policyE2EEE10deallocateEPS7_m
FNDA:25,_ZNSt15__new_allocatorISt23_Sp_counted_ptr_inplaceIN5sqlcc7network13EncryptionKeyESaIvELN9__gnu_cxx12_Lock_policyE2EEE10deallocateEPS7_m
FNDA:0,_ZNSt15__new_allocatorISt6vectorINSt7__cxx1112basic_stringIcSt11char_traitsIcESaIcEEESaIS6_EEE10deallocateEPS8_m
FNDA:7,_ZNSt15__new_allocatorIcE10deallocateEPcm
FNDA:170,_ZNSt15__new_allocatorIhE10deallocateEPhm
FNF:33
FNH:22
DA:88,402
DA:92,355
DA:104,883
DA:126,234
DA:134,234
DA:138,0
DA:139,0
DA:140,0
DA:151,234
DA:156,264
DA:172,264
DA:183,175
DA:191,31
DA:198,6
DA:233,409
LF:15
LH:12
end_of_record
TN:
SF:/usr/include/c++/13/bits/ptr_traits.h
FN:141,142,_ZNSt19__ptr_traits_ptr_toIPNSt8__detail10_Hash_nodeISt4pairIKNSt7__cxx1112basic_stringIcSt11char_traitsIcESaIcEEES8_ELb1EEESB_Lb0EE10pointer_toERSB_
FN:141,142,_ZNSt19__ptr_traits_ptr_toIPPNSt8__detail15_Hash_node_baseES2_Lb0EE10pointer_toERS2_
FN:212,216,_ZSt12__to_addressINSt8__detail10_Hash_nodeISt4pairIKNSt7__cxx1112basic_stringIcSt11char_traitsIcESaIcEEES8_ELb1EEEEPT_SD_
FN:212,216,_ZSt12__to_addressIPNSt8__detail15_Hash_node_baseEEPT_S4_
FN:212,216,_ZSt12__to_addressISt23_Sp_counted_ptr_inplaceIN5sqlcc7network12AESEncryptorESaIvELN9__gnu_cxx12_Lock_policyE2EEEPT_S9_
FN:212,216,_ZSt12__to_addressISt23_Sp_counted_ptr_inplaceIN5sqlcc7network13EncryptionKeyESaIvELN9__gnu_cxx12_Lock_policyE2EEEPT_S9_
FNDA:0,_ZNSt19__ptr_traits_ptr_toIPNSt8__detail10_Hash_nodeISt4pairIKNSt7__cxx1112basic_stringIcSt11char_traitsIcESaIcEEES8_ELb1EEESB_Lb0EE10pointer_toERSB_
FNDA:0,_ZNSt19__ptr_traits_ptr_toIPPNSt8__detail15_Hash_node_baseES2_Lb0EE10pointer_toERS2_
FNDA:0,_ZSt12__to_addressINSt8__detail10_Hash_nodeISt4pairIKNSt7__cxx1112basic_stringIcSt11char_traitsIcESaIcEEES8_ELb1EEEEPT_SD_
FNDA:0,_ZSt12__to_addressIPNSt8__detail15_Hash_node_baseEEPT_S4_
FNDA:6,_ZSt12__to_addressISt23_Sp_counted_ptr_inplaceIN5sqlcc7network12AESEncryptorESaIvELN9__gnu_cxx12_Lock_policyE2EEEPT_S9_
FNDA:25,_ZSt12__to_addressISt23_Sp_counted_ptr_inplaceIN5sqlcc7network13EncryptionKeyESaIvELN9__gnu_cxx12_Lock_policyE2EEEPT_S9_
FNF:6
FNH:2
DA:141,0
DA:142,0
DA:212,31
DA:215,31
LF:4
LH:2
end_of_record
TN:
SF:/usr/include/c++/13/bits/shared_ptr.h
FN:1005,1011,_ZSt11make_sharedIN5sqlcc7network12AESEncryptorEJRSt10shared_ptrINS1_13EncryptionKeyEEEES3_INSt9enable_ifIXntsrSt8is_arrayIT_E5valueES9_E4typeEEDpOT0_
FN:1005,1011,_ZSt11make_sharedIN5sqlcc7network13EncryptionKeyEJRSt6vectorIhSaIhEES6_EESt10shared_ptrINSt9enable_ifIXntsrSt8is_arrayIT_E5valueESA_E4typeEEDpOT0_
FN:202,202,_ZNSt10shared_ptrIN5sqlcc7network13EncryptionKeyEEC2Ev
FN:204,204,_ZNSt10shared_ptrIN5sqlcc7network13EncryptionKeyEEC2ERKS3_
FN:412,412,_ZNSt10shared_ptrIN5sqlcc7network13EncryptionKeyEEC2EDn
FN:414,414,_ZNSt10shared_ptrIN5sqlcc7network13EncryptionKeyEEaSERKS3_
FN:438,442,_ZNSt10shared_ptrIN5sqlcc7network13EncryptionKeyEEaSEOS3_
FN:463,465,_ZNSt10shared_ptrIN5sqlcc7network12AESEncryptorEEC2ISaIvEJRS_INS1_13EncryptionKeyEEEEESt20_Sp_alloc_shared_tagIT_EDpOT0_
FN:463,465,_ZNSt10shared_ptrIN5sqlcc7network13EncryptionKeyEEC2ISaIvEJRSt6vectorIhSaIhEES9_EEESt20_Sp_alloc_shared_tagIT_EDpOT0_
FNDA:6,_ZSt11make_sharedIN5sqlcc7network12AESEncryptorEJRSt10shared_ptrINS1_13EncryptionKeyEEEES3_INSt9enable_ifIXntsrSt8is_arrayIT_E5valueES9_E4typeEEDpOT0_
FNDA:25,_ZSt11make_sharedIN5sqlcc7network13EncryptionKeyEJRSt6vectorIhSaIhEES6_EESt10shared_ptrINSt9enable_ifIXntsrSt8is_arrayIT_E5valueESA_E4typeEEDpOT0_
FNDA:9,_ZNSt10shared_ptrIN5sqlcc7network13EncryptionKeyEEC2Ev
FNDA:28,_ZNSt10shared_ptrIN5sqlcc7network13EncryptionKeyEEC2ERKS3_
FNDA:1,_ZNSt10shared_ptrIN5sqlcc7network13EncryptionKeyEEC2EDn
FNDA:1,_ZNSt10shared_ptrIN5sqlcc7network13EncryptionKeyEEaSERKS3_
FNDA:8,_ZNSt10shared_ptrIN5sqlcc7network13EncryptionKeyEEaSEOS3_
FNDA:6,_ZNSt10shared_ptrIN5sqlcc7network12AESEncryptorEEC2ISaIvEJRS_INS1_13EncryptionKeyEEEEESt20_Sp_alloc_shared_tagIT_EDpOT0_
FNDA:25,_ZNSt10shared_ptrIN5sqlcc7network13EncryptionKeyEEC2ISaIvEJRSt6vectorIhSaIhEES9_EEESt20_Sp_alloc_shared_tagIT_EDpOT0_
FNF:9
FNH:9
DA:202,9
DA:204,28
DA:412,1
DA:414,1
DA:438,8
DA:440,8
DA:441,8
DA:463,31
DA:464,31
DA:465,31
DA:1005,31
DA:1010,62
LF:12
LH:12
end_of_record
TN:
SF:/usr/include/c++/13/bits/shared_ptr_base.h
FN:1068,1072,_ZNSt14__shared_countILN9__gnu_cxx12_Lock_policyE2EED2Ev
FN:1074,1079,_ZNSt14__shared_countILN9__gnu_cxx12_Lock_policyE2EEC2ERKS2_
FN:1082,1094,_ZNSt14__shared_countILN9__gnu_cxx12_Lock_policyE2EEaSERKS2_
FN:1097,1102,_ZNSt14__shared_countILN9__gnu_cxx12_Lock_policyE2EE7_M_swapERS2_
FN:129,130,_ZNSt16_Sp_counted_baseILN9__gnu_cxx12_Lock_policyE2EEC2Ev
FN:133,134,_ZNSt16_Sp_counted_baseILN9__gnu_cxx12_Lock_policyE2EED0Ev
FN:133,134,_ZNSt16_Sp_counted_baseILN9__gnu_cxx12_Lock_policyE2EED2Ev
FN:1354,1358,_ZNKSt19__shared_ptr_accessIN5sqlcc7network12AESEncryptorELN9__gnu_cxx12_Lock_policyE2ELb0ELb0EEptEv
FN:1354,1358,_ZNKSt19__shared_ptr_accessIN5sqlcc7network13EncryptionKeyELN9__gnu_cxx12_Lock_policyE2ELb0ELb0EEptEv
FN:1362,1363,_ZNKSt19__shared_ptr_accessIN5sqlcc7network12AESEncryptorELN9__gnu_cxx12_Lock_policyE2ELb0ELb0EE6_M_getEv
FN:1362,1363,_ZNKSt19__shared_ptr_accessIN5sqlcc7network13EncryptionKeyELN9__gnu_cxx12_Lock_policyE2ELb0ELb0EE6_M_getEv
FN:143,144,_ZNSt16_Sp_counted_baseILN9__gnu_cxx12_Lock_policyE2EE10_M_destroyEv
FN:1462,1464,_ZNSt12__shared_ptrIN5sqlcc7network13EncryptionKeyELN9__gnu_cxx12_Lock_policyE2EEC2Ev
FN:151,152,_ZNSt16_Sp_counted_baseILN9__gnu_cxx12_Lock_policyE2EE15_M_add_ref_copyEv
FN:1522,1522,_ZNSt12__shared_ptrIN5sqlcc7network13EncryptionKeyELN9__gnu_cxx12_Lock_policyE2EEC2ERKS5_
FN:1523,1523,_ZNSt12__shared_ptrIN5sqlcc7network13EncryptionKeyELN9__gnu_cxx12_Lock_policyE2EEaSERKS5_
FN:1524,1524,_ZNSt12__shared_ptrIN5sqlcc7network12AESEncryptorELN9__gnu_cxx12_Lock_policyE2EED2Ev
FN:1524,1524,_ZNSt12__shared_ptrIN5sqlcc7network13EncryptionKeyELN9__gnu_cxx12_Lock_policyE2EED2Ev
FN:1531,1536,_ZNSt12__shared_ptrIN5sqlcc7network13EncryptionKeyELN9__gnu_cxx12_Lock_policyE2EEC2EOS5_
FN:1618,1622,_ZNSt12__shared_ptrIN5sqlcc7network13EncryptionKeyELN9__gnu_cxx12_Lock_policyE2EEaSEOS5_
FN:1665,1666,_ZNKSt12__shared_ptrIN5sqlcc7network12AESEncryptorELN9__gnu_cxx12_Lock_policyE2EE3getEv
FN:1665,1666,_ZNKSt12__shared_ptrIN5sqlcc7network13EncryptionKeyELN9__gnu_cxx12_Lock_policyE2EE3getEv
FN:1669,1670,_ZNKSt12__shared_ptrIN5sqlcc7network12AESEncryptorELN9__gnu_cxx12_Lock_policyE2EEcvbEv
FN:1669,1670,_ZNKSt12__shared_ptrIN5sqlcc7network13EncryptionKeyELN9__gnu_cxx12_Lock_policyE2EEcvbEv
FN:1684,1688,_ZNSt12__shared_ptrIN5sqlcc7network13EncryptionKeyELN9__gnu_cxx12_Lock_policyE2EE4swapERS5_
FN:1711,1713,_ZNSt12__shared_ptrIN5sqlcc7network12AESEncryptorELN9__gnu_cxx12_Lock_policyE2EEC2ISaIvEJRSt10shared_ptrINS1_13EncryptionKeyEEEEESt20_Sp_alloc_shared_tagIT_EDpOT0_
FN:1711,1713,_ZNSt12__shared_ptrIN5sqlcc7network13EncryptionKeyELN9__gnu_cxx12_Lock_policyE2EEC2ISaIvEJRSt6vectorIhSaIhEESB_EEESt20_Sp_alloc_shared_tagIT_EDpOT0_
FN:172,193,_ZNSt16_Sp_counted_baseILN9__gnu_cxx12_Lock_policyE2EE19_M_release_last_useEv
FN:1765,1766,_ZNSt12__shared_ptrIN5sqlcc7network12AESEncryptorELN9__gnu_cxx12_Lock_policyE2EE31_M_enable_shared_from_this_withIS2_S2_EENSt9enable_ifIXntsrNS5_15__has_esft_baseIT0_vEE5valueEvE4typeEPT_
FN:1765,1766,_ZNSt12__shared_ptrIN5sqlcc7network13EncryptionKeyELN9__gnu_cxx12_Lock_policyE2EE31_M_enable_shared_from_this_withIS2_S2_EENSt9enable_ifIXntsrNS5_15__has_esft_baseIT0_vEE5valueEvE4typeEPT_
FN:198,199,_ZNSt16_Sp_counted_baseILN9__gnu_cxx12_Lock_policyE2EE24_M_release_last_use_coldEv
FN:317,363,_ZNSt16_Sp_counted_baseILN9__gnu_cxx12_Lock_policyE2EE10_M_releaseEv
FN:470,470,_ZNSt14_Sp_ebo_helperILi0ESaIvELb1EEC2ERKS0_
FN:474,474,_ZNSt14_Sp_ebo_helperILi0ESaIvELb1EE6_S_getERS1_
FN:564,568,_ZNSt19_Sp_make_shared_tag5_S_tiEv
FN:587,587,_ZNSt23_Sp_counted_ptr_inplaceIN5sqlcc7network12AESEncryptorESaIvELN9__gnu_cxx12_Lock_policyE2EE5_ImplC2ES3_
FN:587,587,_ZNSt23_Sp_counted_ptr_inplaceIN5sqlcc7network13EncryptionKeyESaIvELN9__gnu_cxx12_Lock_policyE2EE5_ImplC2ES3_
FN:589,589,_ZNSt23_Sp_counted_ptr_inplaceIN5sqlcc7network12AESEncryptorESaIvELN9__gnu_cxx12_Lock_policyE2EE5_Impl8_M_allocEv
FN:589,589,_ZNSt23_Sp_counted_ptr_inplaceIN5sqlcc7network13EncryptionKeyESaIvELN9__gnu_cxx12_Lock_policyE2EE5_Impl8_M_allocEv
FN:599,606,_ZNSt23_Sp_counted_ptr_inplaceIN5sqlcc7network12AESEncryptorESaIvELN9__gnu_cxx12_Lock_policyE2EEC2IJRSt10shared_ptrINS1_13EncryptionKeyEEEEES3_DpOT_
FN:599,606,_ZNSt23_Sp_counted_ptr_inplaceIN5sqlcc7network13EncryptionKeyESaIvELN9__gnu_cxx12_Lock_policyE2EEC2IJRSt6vectorIhSaIhEESB_EEES3_DpOT_
FN:608,608,_ZNSt23_Sp_counted_ptr_inplaceIN5sqlcc7network12AESEncryptorESaIvELN9__gnu_cxx12_Lock_policyE2EED0Ev
FN:608,608,_ZNSt23_Sp_counted_ptr_inplaceIN5sqlcc7network12AESEncryptorESaIvELN9__gnu_cxx12_Lock_policyE2EED2Ev
FN:608,608,_ZNSt23_Sp_counted_ptr_inplaceIN5sqlcc7network13EncryptionKeyESaIvELN9__gnu_cxx12_Lock_policyE2EED0Ev
FN:608,608,_ZNSt23_Sp_counted_ptr_inplaceIN5sqlcc7network13EncryptionKeyESaIvELN9__gnu_cxx12_Lock_policyE2EED2Ev
FN:611,614,_ZNSt23_Sp_counted_ptr_inplaceIN5sqlcc7network12AESEncryptorESaIvELN9__gnu_cxx12_Lock_policyE2EE10_M_disposeEv
FN:611,614,_ZNSt23_Sp_counted_ptr_inplaceIN5sqlcc7network13EncryptionKeyESaIvELN9__gnu_cxx12_Lock_policyE2EE10_M_disposeEv
FN:618,623,_ZNSt23_Sp_counted_ptr_inplaceIN5sqlcc7network12AESEncryptorESaIvELN9__gnu_cxx12_Lock_policyE2EE10_M_destroyEv
FN:618,623,_ZNSt23_Sp_counted_ptr_inplaceIN5sqlcc7network13EncryptionKeyESaIvELN9__gnu_cxx12_Lock_policyE2EE10_M_destroyEv
FN:631,648,_ZNSt23_Sp_counted_ptr_inplaceIN5sqlcc7network12AESEncryptorESaIvELN9__gnu_cxx12_Lock_policyE2EE14_M_get_deleterERKSt9type_info
FN:631,648,_ZNSt23_Sp_counted_ptr_inplaceIN5sqlcc7network13EncryptionKeyESaIvELN9__gnu_cxx12_Lock_policyE2EE14_M_get_deleterERKSt9type_info
FN:650,650,_ZNSt23_Sp_counted_ptr_inplaceIN5sqlcc7network12AESEncryptorESaIvELN9__gnu_cxx12_Lock_policyE2EE6_M_ptrEv
FN:650,650,_ZNSt23_Sp_counted_ptr_inplaceIN5sqlcc7network13EncryptionKeyESaIvELN9__gnu_cxx12_Lock_policyE2EE6_M_ptrEv
FN:908,909,_ZNSt14__shared_countILN9__gnu_cxx12_Lock_policyE2EEC2Ev
FN:964,976,_ZNSt14__shared_countILN9__gnu_cxx12_Lock_policyE2EEC2IN5sqlcc7network12AESEncryptorESaIvEJRSt10shared_ptrINS5_13EncryptionKeyEEEEERPT_St20_Sp_alloc_shared_tagIT0_EDpOT1_
FN:964,976,_ZNSt14__shared_countILN9__gnu_cxx12_Lock_policyE2EEC2IN5sqlcc7network13EncryptionKeyESaIvEJRSt6vectorIhSaIhEESB_EEERPT_St20_Sp_alloc_shared_tagIT0_EDpOT1_
FNDA:76,_ZNSt14__shared_countILN9__gnu_cxx12_Lock_policyE2EED2Ev
FNDA:28,_ZNSt14__shared_countILN9__gnu_cxx12_Lock_policyE2EEC2ERKS2_
FNDA:1,_ZNSt14__shared_countILN9__gnu_cxx12_Lock_policyE2EEaSERKS2_
FNDA:16,_ZNSt14__shared_countILN9__gnu_cxx12_Lock_policyE2EE7_M_swapERS2_
FNDA:31,_ZNSt16_Sp_counted_baseILN9__gnu_cxx12_Lock_policyE2EEC2Ev
FNDA:0,_ZNSt16_Sp_counted_baseILN9__gnu_cxx12_Lock_policyE2EED0Ev
FNDA:31,_ZNSt16_Sp_counted_baseILN9__gnu_cxx12_Lock_policyE2EED2Ev
FNDA:18,_ZNKSt19__shared_ptr_accessIN5sqlcc7network12AESEncryptorELN9__gnu_cxx12_Lock_policyE2ELb0ELb0EEptEv
FNDA:108,_ZNKSt19__shared_ptr_accessIN5sqlcc7network13EncryptionKeyELN9__gnu_cxx12_Lock_policyE2ELb0ELb0EEptEv
FNDA:18,_ZNKSt19__shared_ptr_accessIN5sqlcc7network12AESEncryptorELN9__gnu_cxx12_Lock_policyE2ELb0ELb0EE6_M_getEv
FNDA:108,_ZNKSt19__shared_ptr_accessIN5sqlcc7network13EncryptionKeyELN9__gnu_cxx12_Lock_policyE2ELb0ELb0EE6_M_getEv
FNDA:0,_ZNSt16_Sp_counted_baseILN9__gnu_cxx12_Lock_policyE2EE10_M_destroyEv
FNDA:9,_ZNSt12__shared_ptrIN5sqlcc7network13EncryptionKeyELN9__gnu_cxx12_Lock_policyE2EEC2Ev
FNDA:29,_ZNSt16_Sp_counted_baseILN9__gnu_cxx12_Lock_policyE2EE15_M_add_ref_copyEv
FNDA:28,_ZNSt12__shared_ptrIN5sqlcc7network13EncryptionKeyELN9__gnu_cxx12_Lock_policyE2EEC2ERKS5_
FNDA:1,_ZNSt12__shared_ptrIN5sqlcc7network13EncryptionKeyELN9__gnu_cxx12_Lock_policyE2EEaSERKS5_
FNDA:6,_ZNSt12__shared_ptrIN5sqlcc7network12AESEncryptorELN9__gnu_cxx12_Lock_policyE2EED2Ev
FNDA:70,_ZNSt12__shared_ptrIN5sqlcc7network13EncryptionKeyELN9__gnu_cxx12_Lock_policyE2EED2Ev
FNDA:8,_ZNSt12__shared_ptrIN5sqlcc7network13EncryptionKeyELN9__gnu_cxx12_Lock_policyE2EEC2EOS5_
FNDA:8,_ZNSt12__shared_ptrIN5sqlcc7network13EncryptionKeyELN9__gnu_cxx12_Lock_policyE2EEaSEOS5_
FNDA:18,_ZNKSt12__shared_ptrIN5sqlcc7network12AESEncryptorELN9__gnu_cxx12_Lock_policyE2EE3getEv
FNDA:108,_ZNKSt12__shared_ptrIN5sqlcc7network13EncryptionKeyELN9__gnu_cxx12_Lock_policyE2EE3getEv
FNDA:2,_ZNKSt12__shared_ptrIN5sqlcc7network12AESEncryptorELN9__gnu_cxx12_Lock_policyE2EEcvbEv
FNDA:48,_ZNKSt12__shared_ptrIN5sqlcc7network13EncryptionKeyELN9__gnu_cxx12_Lock_policyE2EEcvbEv
FNDA:8,_ZNSt12__shared_ptrIN5sqlcc7network13EncryptionKeyELN9__gnu_cxx12_Lock_policyE2EE4swapERS5_
FNDA:6,_ZNSt12__shared_ptrIN5sqlcc7network12AESEncryptorELN9__gnu_cxx12_Lock_policyE2EEC2ISaIvEJRSt10shared_ptrINS1_13EncryptionKeyEEEEESt20_Sp_alloc_shared_tagIT_EDpOT0_
FNDA:25,_ZNSt12__shared_ptrIN5sqlcc7network13EncryptionKeyELN9__gnu_cxx12_Lock_policyE2EEC2ISaIvEJRSt6vectorIhSaIhEESB_EEESt20_Sp_alloc_shared_tagIT_EDpOT0_
FNDA:0,_ZNSt16_Sp_counted_baseILN9__gnu_cxx12_Lock_policyE2EE19_M_release_last_useEv
FNDA:6,_ZNSt12__shared_ptrIN5sqlcc7network12AESEncryptorELN9__gnu_cxx12_Lock_policyE2EE31_M_enable_shared_from_this_withIS2_S2_EENSt9enable_ifIXntsrNS5_15__has_esft_baseIT0_vEE5valueEvE4typeEPT_
FNDA:25,_ZNSt12__shared_ptrIN5sqlcc7network13EncryptionKeyELN9__gnu_cxx12_Lock_policyE2EE31_M_enable_shared_from_this_withIS2_S2_EENSt9enable_ifIXntsrNS5_15__has_esft_baseIT0_vEE5valueEvE4typeEPT_
FNDA:0,_ZNSt16_Sp_counted_baseILN9__gnu_cxx12_Lock_policyE2EE24_M_release_last_use_coldEv
FNDA:60,_ZNSt16_Sp_counted_baseILN9__gnu_cxx12_Lock_policyE2EE10_M_releaseEv
FNDA:31,_ZNSt14_Sp_ebo_helperILi0ESaIvELb1EEC2ERKS0_
FNDA:62,_ZNSt14_Sp_ebo_helperILi0ESaIvELb1EE6_S_getERS1_
FNDA:0,_ZNSt19_Sp_make_shared_tag5_S_tiEv
FNDA:6,_ZNSt23_Sp_counted_ptr_inplaceIN5sqlcc7network12AESEncryptorESaIvELN9__gnu_cxx12_Lock_policyE2EE5_ImplC2ES3_
FNDA:25,_ZNSt23_Sp_counted_ptr_inplaceIN5sqlcc7network13EncryptionKeyESaIvELN9__gnu_cxx12_Lock_policyE2EE5_ImplC2ES3_
FNDA:12,_ZNSt23_Sp_counted_ptr_inplaceIN5sqlcc7network12AESEncryptorESaIvELN9__gnu_cxx12_Lock_policyE2EE5_Impl8_M_allocEv
FNDA:50,_ZNSt23_Sp_counted_ptr_inplaceIN5sqlcc7network13EncryptionKeyESaIvELN9__gnu_cxx12_Lock_policyE2EE5_Impl8_M_allocEv
FNDA:6,_ZNSt23_Sp_counted_ptr_inplaceIN5sqlcc7network12AESEncryptorESaIvELN9__gnu_cxx12_Lock_policyE2EEC2IJRSt10shared_ptrINS1_13EncryptionKeyEEEEES3_DpOT_
FNDA:25,_ZNSt23_Sp_counted_ptr_inplaceIN5sqlcc7network13EncryptionKeyESaIvELN9__gnu_cxx12_Lock_policyE2EEC2IJRSt6vectorIhSaIhEESB_EEES3_DpOT_
FNDA:0,_ZNSt23_Sp_counted_ptr_inplaceIN5sqlcc7network12AESEncryptorESaIvELN9__gnu_cxx12_Lock_policyE2EED0Ev
FNDA:6,_ZNSt23_Sp_counted_ptr_inplaceIN5sqlcc7network12AESEncryptorESaIvELN9__gnu_cxx12_Lock_policyE2EED2Ev
FNDA:0,_ZNSt23_Sp_counted_ptr_inplaceIN5sqlcc7network13EncryptionKeyESaIvELN9__gnu_cxx12_Lock_policyE2EED0Ev
FNDA:25,_ZNSt23_Sp_counted_ptr_inplaceIN5sqlcc7network13EncryptionKeyESaIvELN9__gnu_cxx12_Lock_policyE2EED2Ev
FNDA:6,_ZNSt23_Sp_counted_ptr_inplaceIN5sqlcc7network12AESEncryptorESaIvELN9__gnu_cxx12_Lock_policyE2EE10_M_disposeEv
FNDA:25,_ZNSt23_Sp_counted_ptr_inplaceIN5sqlcc7network13EncryptionKeyESaIvELN9__gnu_cxx12_Lock_policyE2EE10_M_disposeEv
FNDA:6,_ZNSt23_Sp_counted_ptr_inplaceIN5sqlcc7network12AESEncryptorESaIvELN9__gnu_cxx12_Lock_policyE2EE10_M_destroyEv
FNDA:25,_ZNSt23_Sp_counted_ptr_inplaceIN5sqlcc7network13EncryptionKeyESaIvELN9__gnu_cxx12_Lock_policyE2EE10_M_destroyEv
FNDA:0,_ZNSt23_Sp_counted_ptr_inplaceIN5sqlcc7network12AESEncryptorESaIvELN9__gnu_cxx12_Lock_policyE2EE14_M_get_deleterERKSt9type_info
FNDA:0,_ZNSt23_Sp_counted_ptr_inplaceIN5sqlcc7network13EncryptionKeyESaIvELN9__gnu_cxx12_Lock_policyE2EE14_M_get_deleterERKSt9type_info
FNDA:18,_ZNSt23_Sp_counted_ptr_inplaceIN5sqlcc7network12AESEncryptorESaIvELN9__gnu_cxx12_Lock_policyE2EE6_M_ptrEv
FNDA:75,_ZNSt23_Sp_counted_ptr_inplaceIN5sqlcc7network13EncryptionKeyESaIvELN9__gnu_cxx12_Lock_policyE2EE6_M_ptrEv
FNDA:17,_ZNSt14__shared_countILN9__gnu_cxx12_Lock_policyE2EEC2Ev
FNDA:6,_ZNSt14__shared_countILN9__gnu_cxx12_Lock_policyE2EEC2IN5sqlcc7network12AESEncryptorESaIvEJRSt10shared_ptrINS5_13EncryptionKeyEEEEERPT_St20_Sp_alloc_shared_tagIT0_EDpOT1_
FNDA:25,_ZNSt14__shared_countILN9__gnu_cxx12_Lock_policyE2EEC2IN5sqlcc7network13EncryptionKeyESaIvEJRSt6vectorIhSaIhEESB_EEERPT_St20_Sp_alloc_shared_tagIT0_EDpOT1_
FNF:56
FNH:47
DA:129,31
DA:130,31
DA:133,31
DA:134,31
DA:143,0
DA:144,0
DA:151,29
DA:152,29
DA:172,0
DA:175,0
DA:187,0
DA:188,0
DA:191,0
DA:193,0
DA:198,0
DA:199,0
DA:317,60
DA:321,60
DA:324,60
DA:328,60
DA:331,60
DA:332,60
DA:333,60
DA:334,60
DA:337,60
DA:343,31
DA:346,31
DA:347,31
DA:348,31
DA:350,58
DA:351,0
DA:353,0
DA:354,0
DA:470,31
DA:474,62
DA:564,0
DA:567,0
DA:587,31
DA:589,62
DA:599,31
DA:600,31
DA:604,31
DA:606,31
DA:608,31
DA:611,31
DA:613,31
DA:614,31
DA:618,31
DA:620,31
DA:621,31
DA:622,31
DA:623,31
DA:631,0
DA:633,0
DA:638,0
DA:639,0
DA:641,0
DA:646,0
DA:647,0
DA:650,93
DA:908,17
DA:909,17
DA:964,31
DA:968,31
DA:969,31
DA:970,31
DA:971,31
DA:973,31
DA:974,31
DA:975,31
DA:976,62
DA:1068,76
DA:1070,76
DA:1071,59
DA:1072,76
DA:1074,28
DA:1075,28
DA:1077,28
DA:1078,28
DA:1079,28
DA:1082,1
DA:1084,1
DA:1085,1
DA:1087,1
DA:1088,1
DA:1089,1
DA:1090,1
DA:1091,1
DA:1093,1
DA:1097,16
DA:1099,16
DA:1100,16
DA:1101,16
DA:1102,16
DA:1354,126
DA:1357,126
DA:1362,126
DA:1363,126
DA:1462,9
DA:1463,9
DA:1464,9
DA:1522,28
DA:1523,1
DA:1524,76
DA:1531,8
DA:1532,8
DA:1534,8
DA:1535,8
DA:1536,8
DA:1618,8
DA:1620,8
DA:1621,8
DA:1665,126
DA:1666,126
DA:1669,50
DA:1670,50
DA:1684,8
DA:1686,8
DA:1687,8
DA:1688,8
DA:1711,31
DA:1712,31
DA:1713,31
DA:1765,31
DA:1766,31
LF:125
LH:103
end_of_record
TN:
SF:/usr/include/c++/13/bits/stl_algo.h
FN:4298,4311,_ZSt9transformIN9__gnu_cxx17__normal_iteratorIPcNSt7__cxx1112basic_stringIcSt11char_traitsIcESaIcEEEEES9_PDoFiiEET0_T_SD_SC_T1_
FNDA:6,_ZSt9transformIN9__gnu_cxx17__normal_iteratorIPcNSt7__cxx1112basic_stringIcSt11char_traitsIcESaIcEEEEES9_PDoFiiEET0_T_SD_SC_T1_
FNF:1
FNH:1
DA:4298,6
DA:4308,36
DA:4309,30
DA:4310,6
LF:4
LH:4
end_of_record
TN:
SF:/usr/include/c++/13/bits/stl_algobase.h
FN:1018,1018,_ZSt17__size_to_integerm
FN:1117,1130,_ZSt10__fill_n_aIPcmcET_S1_T0_RKT1_St26random_access_iterator_tag
FN:1117,1130,_ZSt10__fill_n_aIPhmhET_S1_T0_RKT1_St26random_access_iterator_tag
FN:1152,1159,_ZSt6fill_nIPcmcET_S1_T0_RKT1_
FN:1152,1159,_ZSt6fill_nIPhmhET_S1_T0_RKT1_
FN:1182,1187,_ZNSt7__equalILb1EE5equalIcEEbPKT_S4_S4_
FN:1182,1187,_ZNSt7__equalILb1EE5equalIhEEbPKT_S4_S4_
FN:1213,1220,_ZSt12__equal_aux1IPKcS1_EbT_S2_T0_
FN:1213,1220,_ZSt12__equal_aux1IPKhS1_EbT_S2_T0_
FN:1225,1230,_ZSt11__equal_auxIN9__gnu_cxx17__normal_iteratorIPKcSt6vectorIcSaIcEEEES7_EbT_S8_T0_
FN:1225,1230,_ZSt11__equal_auxIN9__gnu_cxx17__normal_iteratorIPKhSt6vectorIhSaIhEEEES7_EbT_S8_T0_
FN:1547,1558,_ZSt5equalIN9__gnu_cxx17__normal_iteratorIPKcSt6vectorIcSaIcEEEES7_EbT_S8_T0_
FN:1547,1558,_ZSt5equalIN9__gnu_cxx17__normal_iteratorIPKhSt6vectorIhSaIhEEEES7_EbT_S8_T0_
FN:233,241,_ZSt3minImERKT_S2_S2_
FN:257,265,_ZSt3maxImERKT_S2_S2_
FN:316,318,_ZSt12__niter_baseIPKhET_S2_
FN:316,318,_ZSt12__niter_baseIPNSt7__cxx1112basic_stringIcSt11char_traitsIcESaIcEEEET_S7_
FN:316,318,_ZSt12__niter_baseIPSt10unique_ptrIN5sqlcc10sql_parser9StatementESt14default_deleteIS3_EEET_S8_
FN:316,318,_ZSt12__niter_baseIPSt6vectorINSt7__cxx1112basic_stringIcSt11char_traitsIcESaIcEEESaIS6_EEET_SA_
FN:316,318,_ZSt12__niter_baseIPcET_S1_
FN:316,318,_ZSt12__niter_baseIPhET_S1_
FN:331,332,_ZSt12__niter_wrapIN9__gnu_cxx17__normal_iteratorIPhSt6vectorIhSaIhEEEES2_ET_S7_T0_
FN:338,339,_ZSt12__niter_wrapIPcET_RKS1_S1_
FN:338,339,_ZSt12__niter_wrapIPhET_RKS1_S1_
FN:383,393,_ZNSt11__copy_moveILb0ELb0ESt26random_access_iterator_tagE8__copy_mIPKcPhEET0_T_S7_S6_
FN:383,393,_ZNSt11__copy_moveILb0ELb0ESt26random_access_iterator_tagE8__copy_mIPcPhEET0_T_S6_S5_
FN:397,398,_ZNSt11__copy_moveILb0ELb0ESt26random_access_iterator_tagE12__assign_oneIcKcEEvPT_PT0_
FN:397,398,_ZNSt11__copy_moveILb0ELb0ESt26random_access_iterator_tagE12__assign_oneIccEEvPT_PT0_
FN:397,398,_ZNSt11__copy_moveILb0ELb0ESt26random_access_iterator_tagE12__assign_oneIhKhEEvPT_PT0_
FN:397,398,_ZNSt11__copy_moveILb0ELb0ESt26random_access_iterator_tagE12__assign_oneIhhEEvPT_PT0_
FN:422,423,_ZNSt11__copy_moveILb1ELb0ESt26random_access_iterator_tagE12__assign_oneIhhEEvPT_PT0_
FN:433,442,_ZNSt11__copy_moveILb0ELb1ESt26random_access_iterator_tagE8__copy_mIKccEEPT0_PT_S7_S5_
FN:433,442,_ZNSt11__copy_moveILb0ELb1ESt26random_access_iterator_tagE8__copy_mIKhhEEPT0_PT_S7_S5_
FN:433,442,_ZNSt11__copy_moveILb0ELb1ESt26random_access_iterator_tagE8__copy_mIccEEPT0_PT_S6_S4_
FN:433,442,_ZNSt11__copy_moveILb0ELb1ESt26random_access_iterator_tagE8__copy_mIhhEEPT0_PT_S6_S4_
FN:433,442,_ZNSt11__copy_moveILb1ELb1ESt26random_access_iterator_tagE8__copy_mIhhEEPT0_PT_S6_S4_
FN:497,507,_ZSt14__copy_move_a2ILb0EPKcPcET1_T0_S4_S3_
FN:497,507,_ZSt14__copy_move_a2ILb0EPKcPhET1_T0_S4_S3_
FN:497,507,_ZSt14__copy_move_a2ILb0EPKhPhET1_T0_S4_S3_
FN:497,507,_ZSt14__copy_move_a2ILb0EPcPhET1_T0_S3_S2_
FN:497,507,_ZSt14__copy_move_a2ILb0EPcS0_ET1_T0_S2_S1_
FN:497,507,_ZSt14__copy_move_a2ILb0EPhS0_ET1_T0_S2_S1_
FN:497,507,_ZSt14__copy_move_a2ILb1EPhS0_ET1_T0_S2_S1_
FN:532,533,_ZSt14__copy_move_a1ILb0EPKcPcET1_T0_S4_S3_
FN:532,533,_ZSt14__copy_move_a1ILb0EPKcPhET1_T0_S4_S3_
FN:532,533,_ZSt14__copy_move_a1ILb0EPKhPhET1_T0_S4_S3_
FN:532,533,_ZSt14__copy_move_a1ILb0EPcPhET1_T0_S3_S2_
FN:532,533,_ZSt14__copy_move_a1ILb0EPcS0_ET1_T0_S2_S1_
FN:532,533,_ZSt14__copy_move_a1ILb0EPhS0_ET1_T0_S2_S1_
FN:532,533,_ZSt14__copy_move_a1ILb1EPhS0_ET1_T0_S2_S1_
FN:538,544,_ZSt13__copy_move_aILb0EN9__gnu_cxx17__normal_iteratorIPKcNSt7__cxx1112basic_stringIcSt11char_traitsIcESaIcEEEEEPhET1_T0_SD_SC_
FN:538,544,_ZSt13__copy_move_aILb0EN9__gnu_cxx17__normal_iteratorIPKcSt6vectorIcSaIcEEEEPcET1_T0_SA_S9_
FN:538,544,_ZSt13__copy_move_aILb0EN9__gnu_cxx17__normal_iteratorIPKhSt6vectorIhSaIhEEEEPhET1_T0_SA_S9_
FN:538,544,_ZSt13__copy_move_aILb0EN9__gnu_cxx17__normal_iteratorIPcNSt7__cxx1112basic_stringIcSt11char_traitsIcESaIcEEEEEPhET1_T0_SC_SB_
FN:538,544,_ZSt13__copy_move_aILb0EN9__gnu_cxx17__normal_iteratorIPcNSt7__cxx1112basic_stringIcSt11char_traitsIcESaIcEEEEES2_ET1_T0_SB_SA_
FN:538,544,_ZSt13__copy_move_aILb0EN9__gnu_cxx17__normal_iteratorIPhSt6vectorIhSaIhEEEES2_ET1_T0_S8_S7_
FN:538,544,_ZSt13__copy_move_aILb0EN9__gnu_cxx17__normal_iteratorIPhSt6vectorIhSaIhEEEES6_ET1_T0_S8_S7_
FN:538,544,_ZSt13__copy_move_aILb0EPKhPhET1_T0_S4_S3_
FN:538,544,_ZSt13__copy_move_aILb1EPhS0_ET1_T0_S2_S1_
FN:624,634,_ZSt4copyIN9__gnu_cxx17__normal_iteratorIPKcNSt7__cxx1112basic_stringIcSt11char_traitsIcESaIcEEEEEPhET0_T_SD_SC_
FN:624,634,_ZSt4copyIN9__gnu_cxx17__normal_iteratorIPKcSt6vectorIcSaIcEEEEPcET0_T_SA_S9_
FN:624,634,_ZSt4copyIN9__gnu_cxx17__normal_iteratorIPKhSt6vectorIhSaIhEEEEPhET0_T_SA_S9_
FN:624,634,_ZSt4copyIN9__gnu_cxx17__normal_iteratorIPcNSt7__cxx1112basic_stringIcSt11char_traitsIcESaIcEEEEEPhET0_T_SC_SB_
FN:624,634,_ZSt4copyIN9__gnu_cxx17__normal_iteratorIPcNSt7__cxx1112basic_stringIcSt11char_traitsIcESaIcEEEEES2_ET0_T_SB_SA_
FN:624,634,_ZSt4copyIN9__gnu_cxx17__normal_iteratorIPhSt6vectorIhSaIhEEEES2_ET0_T_S8_S7_
FN:624,634,_ZSt4copyIN9__gnu_cxx17__normal_iteratorIPhSt6vectorIhSaIhEEEES6_ET0_T_S8_S7_
FN:624,634,_ZSt4copyIPKhPhET0_T_S4_S3_
FN:624,634,_ZSt4copyISt13move_iteratorIPhES1_ET0_T_S4_S3_
FN:744,753,_ZNSt20__copy_move_backwardILb1ELb1ESt26random_access_iterator_tagE13__copy_move_bIhhEEPT0_PT_S6_S4_
FN:759,772,_ZSt23__copy_move_backward_a2ILb1EPhS0_ET1_T0_S2_S1_
FN:777,778,_ZSt23__copy_move_backward_a1ILb1EPhS0_ET1_T0_S2_S1_
FN:805,811,_ZSt22__copy_move_backward_aILb1EPhS0_ET1_T0_S2_S1_
FN:892,904,_ZSt13move_backwardIPhS0_ET0_T_S2_S1_
FN:93,109,_ZSt8__memcmpIccEiPKT_PKT0_m
FN:93,109,_ZSt8__memcmpIhhEiPKT_PKT0_m
FN:939,952,_ZSt9__fill_a1IcEN9__gnu_cxx11__enable_ifIXsrSt9__is_byteIT_E7__valueEvE6__typeEPS3_S7_RKS3_
FN:939,952,_ZSt9__fill_a1IhEN9__gnu_cxx11__enable_ifIXsrSt9__is_byteIT_E7__valueEvE6__typeEPS3_S7_RKS3_
FN:976,977,_ZSt8__fill_aIPccEvT_S1_RKT0_
FN:976,977,_ZSt8__fill_aIPhhEvT_S1_RKT0_
FNDA:95,_ZSt17__size_to_integerm
FNDA:4,_ZSt10__fill_n_aIPcmcET_S1_T0_RKT1_St26random_access_iterator_tag
FNDA:91,_ZSt10__fill_n_aIPhmhET_S1_T0_RKT1_St26random_access_iterator_tag
FNDA:4,_ZSt6fill_nIPcmcET_S1_T0_RKT1_
FNDA:91,_ZSt6fill_nIPhmhET_S1_T0_RKT1_
FNDA:2,_ZNSt7__equalILb1EE5equalIcEEbPKT_S4_S4_
FNDA:14,_ZNSt7__equalILb1EE5equalIhEEbPKT_S4_S4_
FNDA:2,_ZSt12__equal_aux1IPKcS1_EbT_S2_T0_
FNDA:14,_ZSt12__equal_aux1IPKhS1_EbT_S2_T0_
FNDA:2,_ZSt11__equal_auxIN9__gnu_cxx17__normal_iteratorIPKcSt6vectorIcSaIcEEEES7_EbT_S8_T0_
FNDA:14,_ZSt11__equal_auxIN9__gnu_cxx17__normal_iteratorIPKhSt6vectorIhSaIhEEEES7_EbT_S8_T0_
FNDA:2,_ZSt5equalIN9__gnu_cxx17__normal_iteratorIPKcSt6vectorIcSaIcEEEES7_EbT_S8_T0_
FNDA:14,_ZSt5equalIN9__gnu_cxx17__normal_iteratorIPKhSt6vectorIhSaIhEEEES7_EbT_S8_T0_
FNDA:175,_ZSt3minImERKT_S2_S2_
FNDA:26,_ZSt3maxImERKT_S2_S2_
FNDA:12,_ZSt12__niter_baseIPKhET_S2_
FNDA:60,_ZSt12__niter_baseIPNSt7__cxx1112basic_stringIcSt11char_traitsIcESaIcEEEET_S7_
FNDA:78,_ZSt12__niter_baseIPSt10unique_ptrIN5sqlcc10sql_parser9StatementESt14default_deleteIS3_EEET_S8_
FNDA:0,_ZSt12__niter_baseIPSt6vectorINSt7__cxx1112basic_stringIcSt11char_traitsIcESaIcEEESaIS6_EEET_SA_
FNDA:3,_ZSt12__niter_baseIPcET_S1_
FNDA:85,_ZSt12__niter_baseIPhET_S1_
FNDA:0,_ZSt12__niter_wrapIN9__gnu_cxx17__normal_iteratorIPhSt6vectorIhSaIhEEEES2_ET_S7_T0_
FNDA:3,_ZSt12__niter_wrapIPcET_RKS1_S1_
FNDA:81,_ZSt12__niter_wrapIPhET_RKS1_S1_
FNDA:4,_ZNSt11__copy_moveILb0ELb0ESt26random_access_iterator_tagE8__copy_mIPKcPhEET0_T_S7_S6_
FNDA:11,_ZNSt11__copy_moveILb0ELb0ESt26random_access_iterator_tagE8__copy_mIPcPhEET0_T_S6_S5_
FNDA:0,_ZNSt11__copy_moveILb0ELb0ESt26random_access_iterator_tagE12__assign_oneIcKcEEvPT_PT0_
FNDA:0,_ZNSt11__copy_moveILb0ELb0ESt26random_access_iterator_tagE12__assign_oneIccEEvPT_PT0_
FNDA:0,_ZNSt11__copy_moveILb0ELb0ESt26random_access_iterator_tagE12__assign_oneIhKhEEvPT_PT0_
FNDA:0,_ZNSt11__copy_moveILb0ELb0ESt26random_access_iterator_tagE12__assign_oneIhhEEvPT_PT0_
FNDA:0,_ZNSt11__copy_moveILb1ELb0ESt26random_access_iterator_tagE12__assign_oneIhhEEvPT_PT0_
FNDA:2,_ZNSt11__copy_moveILb0ELb1ESt26random_access_iterator_tagE8__copy_mIKccEEPT0_PT_S7_S5_
FNDA:58,_ZNSt11__copy_moveILb0ELb1ESt26random_access_iterator_tagE8__copy_mIKhhEEPT0_PT_S7_S5_
FNDA:1,_ZNSt11__copy_moveILb0ELb1ESt26random_access_iterator_tagE8__copy_mIccEEPT0_PT_S6_S4_
FNDA:6,_ZNSt11__copy_moveILb0ELb1ESt26random_access_iterator_tagE8__copy_mIhhEEPT0_PT_S6_S4_
FNDA:2,_ZNSt11__copy_moveILb1ELb1ESt26random_access_iterator_tagE8__copy_mIhhEEPT0_PT_S6_S4_
FNDA:2,_ZSt14__copy_move_a2ILb0EPKcPcET1_T0_S4_S3_
FNDA:4,_ZSt14__copy_move_a2ILb0EPKcPhET1_T0_S4_S3_
FNDA:58,_ZSt14__copy_move_a2ILb0EPKhPhET1_T0_S4_S3_
FNDA:11,_ZSt14__copy_move_a2ILb0EPcPhET1_T0_S3_S2_
FNDA:1,_ZSt14__copy_move_a2ILb0EPcS0_ET1_T0_S2_S1_
FNDA:6,_ZSt14__copy_move_a2ILb0EPhS0_ET1_T0_S2_S1_
FNDA:2,_ZSt14__copy_move_a2ILb1EPhS0_ET1_T0_S2_S1_
FNDA:2,_ZSt14__copy_move_a1ILb0EPKcPcET1_T0_S4_S3_
FNDA:4,_ZSt14__copy_move_a1ILb0EPKcPhET1_T0_S4_S3_
FNDA:58,_ZSt14__copy_move_a1ILb0EPKhPhET1_T0_S4_S3_
FNDA:11,_ZSt14__copy_move_a1ILb0EPcPhET1_T0_S3_S2_
FNDA:1,_ZSt14__copy_move_a1ILb0EPcS0_ET1_T0_S2_S1_
FNDA:6,_ZSt14__copy_move_a1ILb0EPhS0_ET1_T0_S2_S1_
FNDA:2,_ZSt14__copy_move_a1ILb1EPhS0_ET1_T0_S2_S1_
FNDA:4,_ZSt13__copy_move_aILb0EN9__gnu_cxx17__normal_iteratorIPKcNSt7__cxx1112basic_stringIcSt11char_traitsIcESaIcEEEEEPhET1_T0_SD_SC_
FNDA:2,_ZSt13__copy_move_aILb0EN9__gnu_cxx17__normal_iteratorIPKcSt6vectorIcSaIcEEEEPcET1_T0_SA_S9_
FNDA:52,_ZSt13__copy_move_aILb0EN9__gnu_cxx17__normal_iteratorIPKhSt6vectorIhSaIhEEEEPhET1_T0_SA_S9_
FNDA:11,_ZSt13__copy_move_aILb0EN9__gnu_cxx17__normal_iteratorIPcNSt7__cxx1112basic_stringIcSt11char_traitsIcESaIcEEEEEPhET1_T0_SC_SB_
FNDA:1,_ZSt13__copy_move_aILb0EN9__gnu_cxx17__normal_iteratorIPcNSt7__cxx1112basic_stringIcSt11char_traitsIcESaIcEEEEES2_ET1_T0_SB_SA_
FNDA:6,_ZSt13__copy_move_aILb0EN9__gnu_cxx17__normal_iteratorIPhSt6vectorIhSaIhEEEES2_ET1_T0_S8_S7_
FNDA:0,_ZSt13__copy_move_aILb0EN9__gnu_cxx17__normal_iteratorIPhSt6vectorIhSaIhEEEES6_ET1_T0_S8_S7_
FNDA:6,_ZSt13__copy_move_aILb0EPKhPhET1_T0_S4_S3_
FNDA:2,_ZSt13__copy_move_aILb1EPhS0_ET1_T0_S2_S1_
FNDA:4,_ZSt4copyIN9__gnu_cxx17__normal_iteratorIPKcNSt7__cxx1112basic_stringIcSt11char_traitsIcESaIcEEEEEPhET0_T_SD_SC_
FNDA:2,_ZSt4copyIN9__gnu_cxx17__normal_iteratorIPKcSt6vectorIcSaIcEEEEPcET0_T_SA_S9_
FNDA:52,_ZSt4copyIN9__gnu_cxx17__normal_iteratorIPKhSt6vectorIhSaIhEEEEPhET0_T_SA_S9_
FNDA:11,_ZSt4copyIN9__gnu_cxx17__normal_iteratorIPcNSt7__cxx1112basic_stringIcSt11char_traitsIcESaIcEEEEEPhET0_T_SC_SB_
FNDA:1,_ZSt4copyIN9__gnu_cxx17__normal_iteratorIPcNSt7__cxx1112basic_stringIcSt11char_traitsIcESaIcEEEEES2_ET0_T_SB_SA_
FNDA:6,_ZSt4copyIN9__gnu_cxx17__normal_iteratorIPhSt6vectorIhSaIhEEEES2_ET0_T_S8_S7_
FNDA:0,_ZSt4copyIN9__gnu_cxx17__normal_iteratorIPhSt6vectorIhSaIhEEEES6_ET0_T_S8_S7_
FNDA:6,_ZSt4copyIPKhPhET0_T_S4_S3_
FNDA:2,_ZSt4copyISt13move_iteratorIPhES1_ET0_T_S4_S3_
FNDA:0,_ZNSt20__copy_move_backwardILb1ELb1ESt26random_access_iterator_tagE13__copy_move_bIhhEEPT0_PT_S6_S4_
FNDA:0,_ZSt23__copy_move_backward_a2ILb1EPhS0_ET1_T0_S2_S1_
FNDA:0,_ZSt23__copy_move_backward_a1ILb1EPhS0_ET1_T0_S2_S1_
FNDA:0,_ZSt22__copy_move_backward_aILb1EPhS0_ET1_T0_S2_S1_
FNDA:0,_ZSt13move_backwardIPhS0_ET0_T_S2_S1_
FNDA:2,_ZSt8__memcmpIccEiPKT_PKT0_m
FNDA:14,_ZSt8__memcmpIhhEiPKT_PKT0_m
FNDA:4,_ZSt9__fill_a1IcEN9__gnu_cxx11__enable_ifIXsrSt9__is_byteIT_E7__valueEvE6__typeEPS3_S7_RKS3_
FNDA:91,_ZSt9__fill_a1IhEN9__gnu_cxx11__enable_ifIXsrSt9__is_byteIT_E7__valueEvE6__typeEPS3_S7_RKS3_
FNDA:4,_ZSt8__fill_aIPccEvT_S1_RKT0_
FNDA:91,_ZSt8__fill_aIPhhEvT_S1_RKT0_
FNF:79
FNH:65
DA:93,16
DA:108,16
DA:233,175
DA:238,175
DA:239,0
DA:240,175
DA:257,26
DA:262,26
DA:263,20
DA:264,6
DA:316,238
DA:318,238
DA:331,0
DA:332,0
DA:338,84
DA:339,84
DA:383,15
DA:386,377
DA:388,362
DA:389,362
DA:390,362
DA:392,15
DA:397,0
DA:398,0
DA:422,0
DA:423,0
DA:433,69
DA:435,69
DA:436,69
DA:437,68
DA:438,1
DA:440,0
DA:441,69
DA:497,84
DA:506,84
DA:532,84
DA:533,84
DA:538,84
DA:540,84
DA:543,84
DA:624,84
DA:633,84
DA:744,0
DA:746,0
DA:747,0
DA:748,0
DA:749,0
DA:751,0
DA:752,0
DA:759,0
DA:769,0
DA:771,0
DA:777,0
DA:778,0
DA:805,0
DA:807,0
DA:810,0
DA:892,0
DA:901,0
DA:903,0
DA:939,95
DA:941,95
DA:950,95
DA:951,95
DA:952,95
DA:976,95
DA:977,95
DA:1018,95
DA:1117,95
DA:1123,95
DA:1124,0
DA:1128,95
DA:1129,95
DA:1152,95
DA:1157,95
DA:1158,190
DA:1182,16
DA:1184,16
DA:1185,16
DA:1186,0
DA:1213,16
DA:1216,16
DA:1219,16
DA:1225,16
DA:1227,16
DA:1229,16
DA:1547,16
DA:1557,16
LF:88
LH:60
end_of_record
TN:
SF:/usr/include/c++/13/bits/stl_construct.h
FN:109,120,_ZSt10_ConstructIN5sqlcc10sql_parser15TableConstraintEJRKS2_EEvPT_DpOT0_
FN:109,120,_ZSt10_ConstructIN5sqlcc10sql_parser16ColumnDefinitionEJRKS2_EEvPT_DpOT0_
FN:109,120,_ZSt10_ConstructIN5sqlcc7network12AESEncryptorEJRSt10shared_ptrINS1_13EncryptionKeyEEEEvPT_DpOT0_
FN:109,120,_ZSt10_ConstructIN5sqlcc7network13EncryptionKeyEJRSt6vectorIhSaIhEES6_EEvPT_DpOT0_
FN:109,120,_ZSt10_ConstructINSt7__cxx1112basic_stringIcSt11char_traitsIcESaIcEEEJRKPKcEEvPT_DpOT0_
FN:109,120,_ZSt10_ConstructINSt7__cxx1112basic_stringIcSt11char_traitsIcESaIcEEEJRKS5_EEvPT_DpOT0_
FN:109,120,_ZSt10_ConstructIcJEEvPT_DpOT0_
FN:109,120,_ZSt10_ConstructIhJEEvPT_DpOT0_
FN:146,153,_ZSt8_DestroyIN5sqlcc10sql_parser15TableConstraintEEvPT_
FN:146,153,_ZSt8_DestroyIN5sqlcc10sql_parser16ColumnDefinitionEEvPT_
FN:146,153,_ZSt8_DestroyIN5sqlcc7network12AESEncryptorEEvPT_
FN:146,153,_ZSt8_DestroyIN5sqlcc7network13EncryptionKeyEEvPT_
FN:146,153,_ZSt8_DestroyINSt7__cxx1112basic_stringIcSt11char_traitsIcESaIcEEEEvPT_
FN:146,153,_ZSt8_DestroyISt10unique_ptrIN5sqlcc10sql_parser9StatementESt14default_deleteIS3_EEEvPT_
FN:146,153,_ZSt8_DestroyISt6vectorINSt7__cxx1112basic_stringIcSt11char_traitsIcESaIcEEESaIS6_EEEvPT_
FN:160,164,_ZNSt12_Destroy_auxILb0EE9__destroyIPN5sqlcc10sql_parser15TableConstraintEEEvT_S6_
FN:160,164,_ZNSt12_Destroy_auxILb0EE9__destroyIPN5sqlcc10sql_parser16ColumnDefinitionEEEvT_S6_
FN:160,164,_ZNSt12_Destroy_auxILb0EE9__destroyIPNSt7__cxx1112basic_stringIcSt11char_traitsIcESaIcEEEEEvT_S9_
FN:160,164,_ZNSt12_Destroy_auxILb0EE9__destroyIPSt10unique_ptrIN5sqlcc10sql_parser9StatementESt14default_deleteIS5_EEEEvT_SA_
FN:160,164,_ZNSt12_Destroy_auxILb0EE9__destroyIPSt6vectorINSt7__cxx1112basic_stringIcSt11char_traitsIcESaIcEEESaIS8_EEEEvT_SC_
FN:172,172,_ZNSt12_Destroy_auxILb1EE9__destroyIPcEEvT_S3_
FN:172,172,_ZNSt12_Destroy_auxILb1EE9__destroyIPhEEvT_S3_
FN:182,197,_ZSt8_DestroyIPN5sqlcc10sql_parser15TableConstraintEEvT_S4_
FN:182,197,_ZSt8_DestroyIPN5sqlcc10sql_parser16ColumnDefinitionEEvT_S4_
FN:182,197,_ZSt8_DestroyIPNSt7__cxx1112basic_stringIcSt11char_traitsIcESaIcEEEEvT_S7_
FN:182,197,_ZSt8_DestroyIPSt10unique_ptrIN5sqlcc10sql_parser9StatementESt14default_deleteIS3_EEEvT_S8_
FN:182,197,_ZSt8_DestroyIPSt6vectorINSt7__cxx1112basic_stringIcSt11char_traitsIcESaIcEEESaIS6_EEEvT_SA_
FN:182,197,_ZSt8_DestroyIPcEvT_S1_
FN:182,197,_ZSt8_DestroyIPhEvT_S1_
FNDA:0,_ZSt10_ConstructIN5sqlcc10sql_parser15TableConstraintEJRKS2_EEvPT_DpOT0_
FNDA:1,_ZSt10_ConstructIN5sqlcc10sql_parser16ColumnDefinitionEJRKS2_EEvPT_DpOT0_
FNDA:6,_ZSt10_ConstructIN5sqlcc7network12AESEncryptorEJRSt10shared_ptrINS1_13EncryptionKeyEEEEvPT_DpOT0_
FNDA:25,_ZSt10_ConstructIN5sqlcc7network13EncryptionKeyEJRSt6vectorIhSaIhEES6_EEvPT_DpOT0_
FNDA:4,_ZSt10_ConstructINSt7__cxx1112basic_stringIcSt11char_traitsIcESaIcEEEJRKPKcEEvPT_DpOT0_
FNDA:1,_ZSt10_ConstructINSt7__cxx1112basic_stringIcSt11char_traitsIcESaIcEEEJRKS5_EEvPT_DpOT0_
FNDA:4,_ZSt10_ConstructIcJEEvPT_DpOT0_
FNDA:90,_ZSt10_ConstructIhJEEvPT_DpOT0_
FNDA:0,_ZSt8_DestroyIN5sqlcc10sql_parser15TableConstraintEEvPT_
FNDA:3,_ZSt8_DestroyIN5sqlcc10sql_parser16ColumnDefinitionEEvPT_
FNDA:6,_ZSt8_DestroyIN5sqlcc7network12AESEncryptorEEvPT_
FNDA:25,_ZSt8_DestroyIN5sqlcc7network13EncryptionKeyEEvPT_
FNDA:64,_ZSt8_DestroyINSt7__cxx1112basic_stringIcSt11char_traitsIcESaIcEEEEvPT_
FNDA:13,_ZSt8_DestroyISt10unique_ptrIN5sqlcc10sql_parser9StatementESt14default_deleteIS3_EEEvPT_
FNDA:0,_ZSt8_DestroyISt6vectorINSt7__cxx1112basic_stringIcSt11char_traitsIcESaIcEEESaIS6_EEEvPT_
FNDA:2,_ZNSt12_Destroy_auxILb0EE9__destroyIPN5sqlcc10sql_parser15TableConstraintEEEvT_S6_
FNDA:4,_ZNSt12_Destroy_auxILb0EE9__destroyIPN5sqlcc10sql_parser16ColumnDefinitionEEEvT_S6_
FNDA:43,_ZNSt12_Destroy_auxILb0EE9__destroyIPNSt7__cxx1112basic_stringIcSt11char_traitsIcESaIcEEEEEvT_S9_
FNDA:13,_ZNSt12_Destroy_auxILb0EE9__destroyIPSt10unique_ptrIN5sqlcc10sql_parser9StatementESt14default_deleteIS5_EEEEvT_SA_
FNDA:0,_ZNSt12_Destroy_auxILb0EE9__destroyIPSt6vectorINSt7__cxx1112basic_stringIcSt11char_traitsIcESaIcEEESaIS8_EEEEvT_SC_
FNDA:7,_ZNSt12_Destroy_auxILb1EE9__destroyIPcEEvT_S3_
FNDA:203,_ZNSt12_Destroy_auxILb1EE9__destroyIPhEEvT_S3_
FNDA:2,_ZSt8_DestroyIPN5sqlcc10sql_parser15TableConstraintEEvT_S4_
FNDA:4,_ZSt8_DestroyIPN5sqlcc10sql_parser16ColumnDefinitionEEvT_S4_
FNDA:43,_ZSt8_DestroyIPNSt7__cxx1112basic_stringIcSt11char_traitsIcESaIcEEEEvT_S7_
FNDA:13,_ZSt8_DestroyIPSt10unique_ptrIN5sqlcc10sql_parser9StatementESt14default_deleteIS3_EEEvT_S8_
FNDA:0,_ZSt8_DestroyIPSt6vectorINSt7__cxx1112basic_stringIcSt11char_traitsIcESaIcEEESaIS6_EEEvT_SA_
FNDA:7,_ZSt8_DestroyIPcEvT_S1_
FNDA:203,_ZSt8_DestroyIPhEvT_S1_
FNF:29
FNH:24
DA:109,131
DA:119,135
DA:120,131
DA:146,111
DA:151,111
DA:153,111
DA:160,62
DA:162,142
DA:163,80
DA:164,62
DA:172,210
DA:182,272
DA:196,272
DA:197,272
LF:14
LH:14
end_of_record
TN:
SF:/usr/include/c++/13/bits/stl_function.h
FN:377,378,_ZNKSt8equal_toINSt7__cxx1112basic_stringIcSt11char_traitsIcESaIcEEEEclERKS5_S8_
FNDA:0,_ZNKSt8equal_toINSt7__cxx1112basic_stringIcSt11char_traitsIcESaIcEEEEclERKS5_S8_
FNF:1
FNH:0
DA:377,0
DA:378,0
LF:2
LH:0
end_of_record
TN:
SF:/usr/include/c++/13/bits/stl_iterator.h
FN:1076,1077,_ZN9__gnu_cxx17__normal_iteratorIPKNSt7__cxx1112basic_stringIcSt11char_traitsIcESaIcEEESt6vectorIS6_SaIS6_EEEC2ERKS8_
FN:1076,1077,_ZN9__gnu_cxx17__normal_iteratorIPKSt10unique_ptrIN5sqlcc10sql_parser10ExpressionESt14default_deleteIS4_EESt6vectorIS7_SaIS7_EEEC2ERKS9_
FN:1076,1077,_ZN9__gnu_cxx17__normal_iteratorIPKSt10unique_ptrIN5sqlcc10sql_parser9StatementESt14default_deleteIS4_EESt6vectorIS7_SaIS7_EEEC2ERKS9_
FN:1076,1077,_ZN9__gnu_cxx17__normal_iteratorIPKcSt6vectorIcSaIcEEEC2ERKS2_
FN:1076,1077,_ZN9__gnu_cxx17__normal_iteratorIPKhSt6vectorIhSaIhEEEC2ERKS2_
FN:1076,1077,_ZN9__gnu_cxx17__normal_iteratorIPN5sqlcc10sql_parser15TableConstraintESt6vectorIS3_SaIS3_EEEC2ERKS4_
FN:1076,1077,_ZN9__gnu_cxx17__normal_iteratorIPN5sqlcc10sql_parser16ColumnDefinitionESt6vectorIS3_SaIS3_EEEC2ERKS4_
FN:1076,1077,_ZN9__gnu_cxx17__normal_iteratorIPNSt7__cxx1112basic_stringIcSt11char_traitsIcESaIcEEESt6vectorIS6_SaIS6_EEEC2ERKS7_
FN:1076,1077,_ZN9__gnu_cxx17__normal_iteratorIPSt10unique_ptrIN5sqlcc10sql_parser9StatementESt14default_deleteIS4_EESt6vectorIS7_SaIS7_EEEC2ERKS8_
FN:1076,1077,_ZN9__gnu_cxx17__normal_iteratorIPSt6vectorINSt7__cxx1112basic_stringIcSt11char_traitsIcESaIcEEESaIS7_EES1_IS9_SaIS9_EEEC2ERKSA_
FN:1076,1077,_ZN9__gnu_cxx17__normal_iteratorIPhSt6vectorIhSaIhEEEC2ERKS1_
FN:1083,1094,_ZN9__gnu_cxx17__normal_iteratorIPKhSt6vectorIhSaIhEEEC2IPhvEERKNS0_IT_S5_EE
FN:1099,1100,_ZNK9__gnu_cxx17__normal_iteratorIPKNSt7__cxx1112basic_stringIcSt11char_traitsIcESaIcEEESt6vectorIS6_SaIS6_EEEdeEv
FN:1099,1100,_ZNK9__gnu_cxx17__normal_iteratorIPKSt10unique_ptrIN5sqlcc10sql_parser10ExpressionESt14default_deleteIS4_EESt6vectorIS7_SaIS7_EEEdeEv
FN:1099,1100,_ZNK9__gnu_cxx17__normal_iteratorIPKcSt6vectorIcSaIcEEEdeEv
FN:1099,1100,_ZNK9__gnu_cxx17__normal_iteratorIPKhSt6vectorIhSaIhEEEdeEv
FN:1099,1100,_ZNK9__gnu_cxx17__normal_iteratorIPN5sqlcc10sql_parser15TableConstraintESt6vectorIS3_SaIS3_EEEdeEv
FN:1099,1100,_ZNK9__gnu_cxx17__normal_iteratorIPN5sqlcc10sql_parser16ColumnDefinitionESt6vectorIS3_SaIS3_EEEdeEv
FN:1099,1100,_ZNK9__gnu_cxx17__normal_iteratorIPNSt7__cxx1112basic_stringIcSt11char_traitsIcESaIcEEESt6vectorIS6_SaIS6_EEEdeEv
FN:1099,1100,_ZNK9__gnu_cxx17__normal_iteratorIPSt10unique_ptrIN5sqlcc10sql_parser9StatementESt14default_deleteIS4_EESt6vectorIS7_SaIS7_EEEdeEv
FN:1099,1100,_ZNK9__gnu_cxx17__normal_iteratorIPcNSt7__cxx1112basic_stringIcSt11char_traitsIcESaIcEEEEdeEv
FN:1099,1100,_ZNK9__gnu_cxx17__normal_iteratorIPhSt6vectorIhSaIhEEEdeEv
FN:1109,1113,_ZN9__gnu_cxx17__normal_iteratorIPKNSt7__cxx1112basic_stringIcSt11char_traitsIcESaIcEEESt6vectorIS6_SaIS6_EEEppEv
FN:1109,1113,_ZN9__gnu_cxx17__normal_iteratorIPKSt10unique_ptrIN5sqlcc10sql_parser10ExpressionESt14default_deleteIS4_EESt6vectorIS7_SaIS7_EEEppEv
FN:1109,1113,_ZN9__gnu_cxx17__normal_iteratorIPKcSt6vectorIcSaIcEEEppEv
FN:1109,1113,_ZN9__gnu_cxx17__normal_iteratorIPKhSt6vectorIhSaIhEEEppEv
FN:1109,1113,_ZN9__gnu_cxx17__normal_iteratorIPNSt7__cxx1112basic_stringIcSt11char_traitsIcESaIcEEESt6vectorIS6_SaIS6_EEEppEv
FN:1109,1113,_ZN9__gnu_cxx17__normal_iteratorIPcNSt7__cxx1112basic_stringIcSt11char_traitsIcESaIcEEEEppEv
FN:1109,1113,_ZN9__gnu_cxx17__normal_iteratorIPhSt6vectorIhSaIhEEEppEv
FN:1142,1143,_ZN9__gnu_cxx17__normal_iteratorIPhSt6vectorIhSaIhEEEpLEl
FN:1147,1148,_ZNK9__gnu_cxx17__normal_iteratorIPhSt6vectorIhSaIhEEEplEl
FN:1157,1158,_ZNK9__gnu_cxx17__normal_iteratorIPN5sqlcc10sql_parser15TableConstraintESt6vectorIS3_SaIS3_EEEmiEl
FN:1157,1158,_ZNK9__gnu_cxx17__normal_iteratorIPN5sqlcc10sql_parser16ColumnDefinitionESt6vectorIS3_SaIS3_EEEmiEl
FN:1157,1158,_ZNK9__gnu_cxx17__normal_iteratorIPSt10unique_ptrIN5sqlcc10sql_parser9StatementESt14default_deleteIS4_EESt6vectorIS7_SaIS7_EEEmiEl
FN:1157,1158,_ZNK9__gnu_cxx17__normal_iteratorIPhSt6vectorIhSaIhEEEmiEl
FN:1162,1163,_ZNK9__gnu_cxx17__normal_iteratorIPKNSt7__cxx1112basic_stringIcSt11char_traitsIcESaIcEEESt6vectorIS6_SaIS6_EEE4baseEv
FN:1162,1163,_ZNK9__gnu_cxx17__normal_iteratorIPKSt10unique_ptrIN5sqlcc10sql_parser10ExpressionESt14default_deleteIS4_EESt6vectorIS7_SaIS7_EEE4baseEv
FN:1162,1163,_ZNK9__gnu_cxx17__normal_iteratorIPKSt10unique_ptrIN5sqlcc10sql_parser9StatementESt14default_deleteIS4_EESt6vectorIS7_SaIS7_EEE4baseEv
FN:1162,1163,_ZNK9__gnu_cxx17__normal_iteratorIPKcNSt7__cxx1112basic_stringIcSt11char_traitsIcESaIcEEEE4baseEv
FN:1162,1163,_ZNK9__gnu_cxx17__normal_iteratorIPKcSt6vectorIcSaIcEEE4baseEv
FN:1162,1163,_ZNK9__gnu_cxx17__normal_iteratorIPKhSt6vectorIhSaIhEEE4baseEv
FN:1162,1163,_ZNK9__gnu_cxx17__normal_iteratorIPN5sqlcc10sql_parser15TableConstraintESt6vectorIS3_SaIS3_EEE4baseEv
FN:1162,1163,_ZNK9__gnu_cxx17__normal_iteratorIPN5sqlcc10sql_parser16ColumnDefinitionESt6vectorIS3_SaIS3_EEE4baseEv
FN:1162,1163,_ZNK9__gnu_cxx17__normal_iteratorIPNSt7__cxx1112basic_stringIcSt11char_traitsIcESaIcEEESt6vectorIS6_SaIS6_EEE4baseEv
FN:1162,1163,_ZNK9__gnu_cxx17__normal_iteratorIPSt10unique_ptrIN5sqlcc10sql_parser9StatementESt14default_deleteIS4_EESt6vectorIS7_SaIS7_EEE4baseEv
FN:1162,1163,_ZNK9__gnu_cxx17__normal_iteratorIPSt6vectorINSt7__cxx1112basic_stringIcSt11char_traitsIcESaIcEEESaIS7_EES1_IS9_SaIS9_EEE4baseEv
FN:1162,1163,_ZNK9__gnu_cxx17__normal_iteratorIPcNSt7__cxx1112basic_stringIcSt11char_traitsIcESaIcEEEE4baseEv
FN:1162,1163,_ZNK9__gnu_cxx17__normal_iteratorIPhSt6vectorIhSaIhEEE4baseEv
FN:1225,1228,_ZN9__gnu_cxxeqIPKNSt7__cxx1112basic_stringIcSt11char_traitsIcESaIcEEESt6vectorIS6_SaIS6_EEEEbRKNS_17__normal_iteratorIT_T0_EESH_
FN:1225,1228,_ZN9__gnu_cxxeqIPKSt10unique_ptrIN5sqlcc10sql_parser9StatementESt14default_deleteIS4_EESt6vectorIS7_SaIS7_EEEEbRKNS_17__normal_iteratorIT_T0_EESI_
FN:1225,1228,_ZN9__gnu_cxxeqIPKcSt6vectorIcSaIcEEEEbRKNS_17__normal_iteratorIT_T0_EESB_
FN:1225,1228,_ZN9__gnu_cxxeqIPKhSt6vectorIhSaIhEEEEbRKNS_17__normal_iteratorIT_T0_EESB_
FN:1241,1244,_ZN9__gnu_cxxneIPKNSt7__cxx1112basic_stringIcSt11char_traitsIcESaIcEEESt6vectorIS6_SaIS6_EEEEbRKNS_17__normal_iteratorIT_T0_EESH_
FN:1241,1244,_ZN9__gnu_cxxneIPKSt10unique_ptrIN5sqlcc10sql_parser10ExpressionESt14default_deleteIS4_EESt6vectorIS7_SaIS7_EEEEbRKNS_17__normal_iteratorIT_T0_EESI_
FN:1241,1244,_ZN9__gnu_cxxneIPKcSt6vectorIcSaIcEEEEbRKNS_17__normal_iteratorIT_T0_EESB_
FN:1241,1244,_ZN9__gnu_cxxneIPKhSt6vectorIhSaIhEEEEbRKNS_17__normal_iteratorIT_T0_EESB_
FN:1241,1244,_ZN9__gnu_cxxneIPNSt7__cxx1112basic_stringIcSt11char_traitsIcESaIcEEESt6vectorIS6_SaIS6_EEEEbRKNS_17__normal_iteratorIT_T0_EESG_
FN:1241,1244,_ZN9__gnu_cxxneIPcNSt7__cxx1112basic_stringIcSt11char_traitsIcESaIcEEEEEbRKNS_17__normal_iteratorIT_T0_EESD_
FN:1241,1244,_ZN9__gnu_cxxneIPhSt6vectorIhSaIhEEEEbRKNS_17__normal_iteratorIT_T0_EESA_
FN:1334,1337,_ZN9__gnu_cxxmiIPKcNSt7__cxx1112basic_stringIcSt11char_traitsIcESaIcEEEEENS_17__normal_iteratorIT_T0_E15difference_typeERKSC_SF_
FN:1334,1337,_ZN9__gnu_cxxmiIPKhSt6vectorIhSaIhEEEENS_17__normal_iteratorIT_T0_E15difference_typeERKS9_SC_
FN:1334,1337,_ZN9__gnu_cxxmiIPN5sqlcc10sql_parser15TableConstraintESt6vectorIS3_SaIS3_EEEENS_17__normal_iteratorIT_T0_E15difference_typeERKSB_SE_
FN:1334,1337,_ZN9__gnu_cxxmiIPN5sqlcc10sql_parser16ColumnDefinitionESt6vectorIS3_SaIS3_EEEENS_17__normal_iteratorIT_T0_E15difference_typeERKSB_SE_
FN:1334,1337,_ZN9__gnu_cxxmiIPNSt7__cxx1112basic_stringIcSt11char_traitsIcESaIcEEESt6vectorIS6_SaIS6_EEEENS_17__normal_iteratorIT_T0_E15difference_typeERKSE_SH_
FN:1334,1337,_ZN9__gnu_cxxmiIPSt10unique_ptrIN5sqlcc10sql_parser9StatementESt14default_deleteIS4_EESt6vectorIS7_SaIS7_EEEENS_17__normal_iteratorIT_T0_E15difference_typeERKSF_SI_
FN:1334,1337,_ZN9__gnu_cxxmiIPSt6vectorINSt7__cxx1112basic_stringIcSt11char_traitsIcESaIcEEESaIS7_EES1_IS9_SaIS9_EEEENS_17__normal_iteratorIT_T0_E15difference_typeERKSG_SJ_
FN:1334,1337,_ZN9__gnu_cxxmiIPcNSt7__cxx1112basic_stringIcSt11char_traitsIcESaIcEEEEENS_17__normal_iteratorIT_T0_E15difference_typeERKSB_SE_
FN:1334,1337,_ZN9__gnu_cxxmiIPhSt6vectorIhSaIhEEEENS_17__normal_iteratorIT_T0_E15difference_typeERKS8_SB_
FN:1357,1359,_ZSt12__niter_baseIPKcNSt7__cxx1112basic_stringIcSt11char_traitsIcESaIcEEEET_N9__gnu_cxx17__normal_iteratorIS8_T0_EE
FN:1357,1359,_ZSt12__niter_baseIPKcSt6vectorIcSaIcEEET_N9__gnu_cxx17__normal_iteratorIS5_T0_EE
FN:1357,1359,_ZSt12__niter_baseIPKhSt6vectorIhSaIhEEET_N9__gnu_cxx17__normal_iteratorIS5_T0_EE
FN:1357,1359,_ZSt12__niter_baseIPcNSt7__cxx1112basic_stringIcSt11char_traitsIcESaIcEEEET_N9__gnu_cxx17__normal_iteratorIS7_T0_EE
FN:1357,1359,_ZSt12__niter_baseIPhSt6vectorIhSaIhEEET_N9__gnu_cxx17__normal_iteratorIS4_T0_EE
FN:1519,1520,_ZNSt13move_iteratorIPhEC2ES0_
FN:1545,1546,_ZNKSt13move_iteratorIPhE4baseEv
FN:1815,1816,_ZSt18make_move_iteratorIPhESt13move_iteratorIT_ES2_
FN:1832,1833,_ZSt32__make_move_if_noexcept_iteratorIN5sqlcc10sql_parser15TableConstraintEPKS2_ET0_PT_
FN:1832,1833,_ZSt32__make_move_if_noexcept_iteratorIN5sqlcc10sql_parser16ColumnDefinitionEPKS2_ET0_PT_
FN:1832,1833,_ZSt32__make_move_if_noexcept_iteratorIhSt13move_iteratorIPhEET0_PT_
FN:2968,2970,_ZSt12__miter_baseIPhEDTcl12__miter_basecldtfp_4baseEEESt13move_iteratorIT_E
FNDA:0,_ZN9__gnu_cxx17__normal_iteratorIPKNSt7__cxx1112basic_stringIcSt11char_traitsIcESaIcEEESt6vectorIS6_SaIS6_EEEC2ERKS8_
FNDA:0,_ZN9__gnu_cxx17__normal_iteratorIPKSt10unique_ptrIN5sqlcc10sql_parser10ExpressionESt14default_deleteIS4_EESt6vectorIS7_SaIS7_EEEC2ERKS9_
FNDA:6,_ZN9__gnu_cxx17__normal_iteratorIPKSt10unique_ptrIN5sqlcc10sql_parser9StatementESt14default_deleteIS4_EESt6vectorIS7_SaIS7_EEEC2ERKS9_
FNDA:12,_ZN9__gnu_cxx17__normal_iteratorIPKcSt6vectorIcSaIcEEEC2ERKS2_
FNDA:161,_ZN9__gnu_cxx17__normal_iteratorIPKhSt6vectorIhSaIhEEEC2ERKS2_
FNDA:0,_ZN9__gnu_cxx17__normal_iteratorIPN5sqlcc10sql_parser15TableConstraintESt6vectorIS3_SaIS3_EEEC2ERKS4_
FNDA:8,_ZN9__gnu_cxx17__normal_iteratorIPN5sqlcc10sql_parser16ColumnDefinitionESt6vectorIS3_SaIS3_EEEC2ERKS4_
FNDA:22,_ZN9__gnu_cxx17__normal_iteratorIPNSt7__cxx1112basic_stringIcSt11char_traitsIcESaIcEEESt6vectorIS6_SaIS6_EEEC2ERKS7_
FNDA:52,_ZN9__gnu_cxx17__normal_iteratorIPSt10unique_ptrIN5sqlcc10sql_parser9StatementESt14default_deleteIS4_EESt6vectorIS7_SaIS7_EEEC2ERKS8_
FNDA:0,_ZN9__gnu_cxx17__normal_iteratorIPSt6vectorINSt7__cxx1112basic_stringIcSt11char_traitsIcESaIcEEESaIS7_EES1_IS9_SaIS9_EEEC2ERKSA_
FNDA:32,_ZN9__gnu_cxx17__normal_iteratorIPhSt6vectorIhSaIhEEEC2ERKS1_
FNDA:1,_ZN9__gnu_cxx17__normal_iteratorIPKhSt6vectorIhSaIhEEEC2IPhvEERKNS0_IT_S5_EE
FNDA:1,_ZNK9__gnu_cxx17__normal_iteratorIPKNSt7__cxx1112basic_stringIcSt11char_traitsIcESaIcEEESt6vectorIS6_SaIS6_EEEdeEv
FNDA:0,_ZNK9__gnu_cxx17__normal_iteratorIPKSt10unique_ptrIN5sqlcc10sql_parser10ExpressionESt14default_deleteIS4_EESt6vectorIS7_SaIS7_EEEdeEv
FNDA:0,_ZNK9__gnu_cxx17__normal_iteratorIPKcSt6vectorIcSaIcEEEdeEv
FNDA:0,_ZNK9__gnu_cxx17__normal_iteratorIPKhSt6vectorIhSaIhEEEdeEv
FNDA:0,_ZNK9__gnu_cxx17__normal_iteratorIPN5sqlcc10sql_parser15TableConstraintESt6vectorIS3_SaIS3_EEEdeEv
FNDA:2,_ZNK9__gnu_cxx17__normal_iteratorIPN5sqlcc10sql_parser16ColumnDefinitionESt6vectorIS3_SaIS3_EEEdeEv
FNDA:4,_ZNK9__gnu_cxx17__normal_iteratorIPNSt7__cxx1112basic_stringIcSt11char_traitsIcESaIcEEESt6vectorIS6_SaIS6_EEEdeEv
FNDA:13,_ZNK9__gnu_cxx17__normal_iteratorIPSt10unique_ptrIN5sqlcc10sql_parser9StatementESt14default_deleteIS4_EESt6vectorIS7_SaIS7_EEEdeEv
FNDA:488,_ZNK9__gnu_cxx17__normal_iteratorIPcNSt7__cxx1112basic_stringIcSt11char_traitsIcESaIcEEEEdeEv
FNDA:148,_ZNK9__gnu_cxx17__normal_iteratorIPhSt6vectorIhSaIhEEEdeEv
FNDA:1,_ZN9__gnu_cxx17__normal_iteratorIPKNSt7__cxx1112basic_stringIcSt11char_traitsIcESaIcEEESt6vectorIS6_SaIS6_EEEppEv
FNDA:0,_ZN9__gnu_cxx17__normal_iteratorIPKSt10unique_ptrIN5sqlcc10sql_parser10ExpressionESt14default_deleteIS4_EESt6vectorIS7_SaIS7_EEEppEv
FNDA:0,_ZN9__gnu_cxx17__normal_iteratorIPKcSt6vectorIcSaIcEEEppEv
FNDA:0,_ZN9__gnu_cxx17__normal_iteratorIPKhSt6vectorIhSaIhEEEppEv
FNDA:4,_ZN9__gnu_cxx17__normal_iteratorIPNSt7__cxx1112basic_stringIcSt11char_traitsIcESaIcEEESt6vectorIS6_SaIS6_EEEppEv
FNDA:488,_ZN9__gnu_cxx17__normal_iteratorIPcNSt7__cxx1112basic_stringIcSt11char_traitsIcESaIcEEEEppEv
FNDA:148,_ZN9__gnu_cxx17__normal_iteratorIPhSt6vectorIhSaIhEEEppEv
FNDA:0,_ZN9__gnu_cxx17__normal_iteratorIPhSt6vectorIhSaIhEEEpLEl
FNDA:5,_ZNK9__gnu_cxx17__normal_iteratorIPhSt6vectorIhSaIhEEEplEl
FNDA:0,_ZNK9__gnu_cxx17__normal_iteratorIPN5sqlcc10sql_parser15TableConstraintESt6vectorIS3_SaIS3_EEEmiEl
FNDA:2,_ZNK9__gnu_cxx17__normal_iteratorIPN5sqlcc10sql_parser16ColumnDefinitionESt6vectorIS3_SaIS3_EEEmiEl
FNDA:13,_ZNK9__gnu_cxx17__normal_iteratorIPSt10unique_ptrIN5sqlcc10sql_parser9StatementESt14default_deleteIS4_EESt6vectorIS7_SaIS7_EEEmiEl
FNDA:2,_ZNK9__gnu_cxx17__normal_iteratorIPhSt6vectorIhSaIhEEEmiEl
FNDA:6,_ZNK9__gnu_cxx17__normal_iteratorIPKNSt7__cxx1112basic_stringIcSt11char_traitsIcESaIcEEESt6vectorIS6_SaIS6_EEE4baseEv
FNDA:0,_ZNK9__gnu_cxx17__normal_iteratorIPKSt10unique_ptrIN5sqlcc10sql_parser10ExpressionESt14default_deleteIS4_EESt6vectorIS7_SaIS7_EEE4baseEv
FNDA:6,_ZNK9__gnu_cxx17__normal_iteratorIPKSt10unique_ptrIN5sqlcc10sql_parser9StatementESt14default_deleteIS4_EESt6vectorIS7_SaIS7_EEE4baseEv
FNDA:16,_ZNK9__gnu_cxx17__normal_iteratorIPKcNSt7__cxx1112basic_stringIcSt11char_traitsIcESaIcEEEE4baseEv
FNDA:12,_ZNK9__gnu_cxx17__normal_iteratorIPKcSt6vectorIcSaIcEEE4baseEv
FNDA:162,_ZNK9__gnu_cxx17__normal_iteratorIPKhSt6vectorIhSaIhEEE4baseEv
FNDA:0,_ZNK9__gnu_cxx17__normal_iteratorIPN5sqlcc10sql_parser15TableConstraintESt6vectorIS3_SaIS3_EEE4baseEv
FNDA:8,_ZNK9__gnu_cxx17__normal_iteratorIPN5sqlcc10sql_parser16ColumnDefinitionESt6vectorIS3_SaIS3_EEE4baseEv
FNDA:50,_ZNK9__gnu_cxx17__normal_iteratorIPNSt7__cxx1112basic_stringIcSt11char_traitsIcESaIcEEESt6vectorIS6_SaIS6_EEE4baseEv
FNDA:52,_ZNK9__gnu_cxx17__normal_iteratorIPSt10unique_ptrIN5sqlcc10sql_parser9StatementESt14default_deleteIS4_EESt6vectorIS7_SaIS7_EEE4baseEv
FNDA:0,_ZNK9__gnu_cxx17__normal_iteratorIPSt6vectorINSt7__cxx1112basic_stringIcSt11char_traitsIcESaIcEEESaIS7_EES1_IS9_SaIS9_EEE4baseEv
FNDA:1138,_ZNK9__gnu_cxx17__normal_iteratorIPcNSt7__cxx1112basic_stringIcSt11char_traitsIcESaIcEEEE4baseEv
FNDA:345,_ZNK9__gnu_cxx17__normal_iteratorIPhSt6vectorIhSaIhEEE4baseEv
FNDA:0,_ZN9__gnu_cxxeqIPKNSt7__cxx1112basic_stringIcSt11char_traitsIcESaIcEEESt6vectorIS6_SaIS6_EEEEbRKNS_17__normal_iteratorIT_T0_EESH_
FNDA:3,_ZN9__gnu_cxxeqIPKSt10unique_ptrIN5sqlcc10sql_parser9StatementESt14default_deleteIS4_EESt6vectorIS7_SaIS7_EEEEbRKNS_17__normal_iteratorIT_T0_EESI_
FNDA:1,_ZN9__gnu_cxxeqIPKcSt6vectorIcSaIcEEEEbRKNS_17__normal_iteratorIT_T0_EESB_
FNDA:7,_ZN9__gnu_cxxeqIPKhSt6vectorIhSaIhEEEEbRKNS_17__normal_iteratorIT_T0_EESB_
FNDA:3,_ZN9__gnu_cxxneIPKNSt7__cxx1112basic_stringIcSt11char_traitsIcESaIcEEESt6vectorIS6_SaIS6_EEEEbRKNS_17__normal_iteratorIT_T0_EESH_
FNDA:0,_ZN9__gnu_cxxneIPKSt10unique_ptrIN5sqlcc10sql_parser10ExpressionESt14default_deleteIS4_EESt6vectorIS7_SaIS7_EEEEbRKNS_17__normal_iteratorIT_T0_EESI_
FNDA:0,_ZN9__gnu_cxxneIPKcSt6vectorIcSaIcEEEEbRKNS_17__normal_iteratorIT_T0_EESB_
FNDA:0,_ZN9__gnu_cxxneIPKhSt6vectorIhSaIhEEEEbRKNS_17__normal_iteratorIT_T0_EESB_
FNDA:5,_ZN9__gnu_cxxneIPNSt7__cxx1112basic_stringIcSt11char_traitsIcESaIcEEESt6vectorIS6_SaIS6_EEEEbRKNS_17__normal_iteratorIT_T0_EESG_
FNDA:545,_ZN9__gnu_cxxneIPcNSt7__cxx1112basic_stringIcSt11char_traitsIcESaIcEEEEEbRKNS_17__normal_iteratorIT_T0_EESD_
FNDA:154,_ZN9__gnu_cxxneIPhSt6vectorIhSaIhEEEEbRKNS_17__normal_iteratorIT_T0_EESA_
FNDA:4,_ZN9__gnu_cxxmiIPKcNSt7__cxx1112basic_stringIcSt11char_traitsIcESaIcEEEEENS_17__normal_iteratorIT_T0_E15difference_typeERKSC_SF_
FNDA:1,_ZN9__gnu_cxxmiIPKhSt6vectorIhSaIhEEEENS_17__normal_iteratorIT_T0_E15difference_typeERKS9_SC_
FNDA:0,_ZN9__gnu_cxxmiIPN5sqlcc10sql_parser15TableConstraintESt6vectorIS3_SaIS3_EEEENS_17__normal_iteratorIT_T0_E15difference_typeERKSB_SE_
FNDA:2,_ZN9__gnu_cxxmiIPN5sqlcc10sql_parser16ColumnDefinitionESt6vectorIS3_SaIS3_EEEENS_17__normal_iteratorIT_T0_E15difference_typeERKSB_SE_
FNDA:10,_ZN9__gnu_cxxmiIPNSt7__cxx1112basic_stringIcSt11char_traitsIcESaIcEEESt6vectorIS6_SaIS6_EEEENS_17__normal_iteratorIT_T0_E15difference_typeERKSE_SH_
FNDA:13,_ZN9__gnu_cxxmiIPSt10unique_ptrIN5sqlcc10sql_parser9StatementESt14default_deleteIS4_EESt6vectorIS7_SaIS7_EEEENS_17__normal_iteratorIT_T0_E15difference_typeERKSF_SI_
FNDA:0,_ZN9__gnu_cxxmiIPSt6vectorINSt7__cxx1112basic_stringIcSt11char_traitsIcESaIcEEESaIS7_EES1_IS9_SaIS9_EEEENS_17__normal_iteratorIT_T0_E15difference_typeERKSG_SJ_
FNDA:12,_ZN9__gnu_cxxmiIPcNSt7__cxx1112basic_stringIcSt11char_traitsIcESaIcEEEEENS_17__normal_iteratorIT_T0_E15difference_typeERKSB_SE_
FNDA:11,_ZN9__gnu_cxxmiIPhSt6vectorIhSaIhEEEENS_17__normal_iteratorIT_T0_E15difference_typeERKS8_SB_
FNDA:8,_ZSt12__niter_baseIPKcNSt7__cxx1112basic_stringIcSt11char_traitsIcESaIcEEEET_N9__gnu_cxx17__normal_iteratorIS8_T0_EE
FNDA:10,_ZSt12__niter_baseIPKcSt6vectorIcSaIcEEET_N9__gnu_cxx17__normal_iteratorIS5_T0_EE
FNDA:146,_ZSt12__niter_baseIPKhSt6vectorIhSaIhEEET_N9__gnu_cxx17__normal_iteratorIS5_T0_EE
FNDA:24,_ZSt12__niter_baseIPcNSt7__cxx1112basic_stringIcSt11char_traitsIcESaIcEEEET_N9__gnu_cxx17__normal_iteratorIS7_T0_EE
FNDA:12,_ZSt12__niter_baseIPhSt6vectorIhSaIhEEET_N9__gnu_cxx17__normal_iteratorIS4_T0_EE
FNDA:4,_ZNSt13move_iteratorIPhEC2ES0_
FNDA:4,_ZNKSt13move_iteratorIPhE4baseEv
FNDA:0,_ZSt18make_move_iteratorIPhESt13move_iteratorIT_ES2_
FNDA:0,_ZSt32__make_move_if_noexcept_iteratorIN5sqlcc10sql_parser15TableConstraintEPKS2_ET0_PT_
FNDA:8,_ZSt32__make_move_if_noexcept_iteratorIN5sqlcc10sql_parser16ColumnDefinitionEPKS2_ET0_PT_
FNDA:4,_ZSt32__make_move_if_noexcept_iteratorIhSt13move_iteratorIPhEET0_PT_
FNDA:4,_ZSt12__miter_baseIPhEDTcl12__miter_basecldtfp_4baseEEESt13move_iteratorIT_E
FNF:80
FNH:56
DA:1076,293
DA:1077,293
DA:1083,1
DA:1094,1
DA:1099,656
DA:1100,656
DA:1109,641
DA:1111,641
DA:1112,641
DA:1142,0
DA:1143,0
DA:1147,5
DA:1148,5
DA:1157,17
DA:1158,17
DA:1162,1795
DA:1163,1795
DA:1225,11
DA:1228,11
DA:1241,707
DA:1244,707
DA:1334,53
DA:1337,53
DA:1357,200
DA:1359,200
DA:1519,4
DA:1520,4
DA:1545,4
DA:1546,4
DA:1815,0
DA:1816,0
DA:1832,12
DA:1833,12
DA:2968,4
DA:2970,4
LF:35
LH:31
end_of_record
TN:
SF:/usr/include/c++/13/bits/stl_iterator_base_funcs.h
FN:184,196,_ZSt9__advanceIN9__gnu_cxx17__normal_iteratorIPhSt6vectorIhSaIhEEEElEvRT_T0_St26random_access_iterator_tag
FNDA:0,_ZSt9__advanceIN9__gnu_cxx17__normal_iteratorIPhSt6vectorIhSaIhEEEElEvRT_T0_St26random_access_iterator_tag
FNF:1
FNH:0
DA:106,320
DA:151,761
DA:152,788
DA:184,0
DA:195,0
DA:196,0
DA:223,0
DA:224,0
DA:225,0
LF:9
LH:3
end_of_record
TN:
SF:/usr/include/c++/13/bits/stl_iterator_base_types.h
FNF:0
FNH:0
DA:240,517
LF:1
LH:1
end_of_record
TN:
SF:/usr/include/c++/13/bits/stl_pair.h
FNF:0
FNH:0
LF:0
LH:0
end_of_record
TN:
SF:/usr/include/c++/13/bits/stl_uninitialized.h
FN:1069,1079,_ZSt19__relocate_object_aINSt7__cxx1112basic_stringIcSt11char_traitsIcESaIcEEES5_SaIS5_EEvPT_PT0_RT1_
FN:1069,1079,_ZSt19__relocate_object_aISt10unique_ptrIN5sqlcc10sql_parser9StatementESt14default_deleteIS3_EES6_SaIS6_EEvPT_PT0_RT1_
FN:1069,1079,_ZSt19__relocate_object_aISt6vectorINSt7__cxx1112basic_stringIcSt11char_traitsIcESaIcEEESaIS6_EES8_SaIS8_EEvPT_PT0_RT1_
FN:1091,1108,_ZSt14__relocate_a_1IPNSt7__cxx1112basic_stringIcSt11char_traitsIcESaIcEEES6_SaIS5_EET0_T_S9_S8_RT1_
FN:1091,1108,_ZSt14__relocate_a_1IPSt10unique_ptrIN5sqlcc10sql_parser9StatementESt14default_deleteIS3_EES7_SaIS6_EET0_T_SA_S9_RT1_
FN:1091,1108,_ZSt14__relocate_a_1IPSt6vectorINSt7__cxx1112basic_stringIcSt11char_traitsIcESaIcEEESaIS6_EES9_SaIS8_EET0_T_SC_SB_RT1_
FN:1114,1134,_ZSt14__relocate_a_1IhhENSt9enable_ifIXsrSt24__is_bitwise_relocatableIT_vE5valueEPS2_E4typeES4_S4_S4_RSaIT0_E
FN:113,128,_ZSt16__do_uninit_copyIN9__gnu_cxx17__normal_iteratorIPKNSt7__cxx1112basic_stringIcSt11char_traitsIcESaIcEEESt6vectorIS7_SaIS7_EEEEPS7_ET0_T_SG_SF_
FN:113,128,_ZSt16__do_uninit_copyIPKN5sqlcc10sql_parser15TableConstraintEPS2_ET0_T_S7_S6_
FN:113,128,_ZSt16__do_uninit_copyIPKN5sqlcc10sql_parser16ColumnDefinitionEPS2_ET0_T_S7_S6_
FN:113,128,_ZSt16__do_uninit_copyIPKPKcPNSt7__cxx1112basic_stringIcSt11char_traitsIcESaIcEEEET0_T_SC_SB_
FN:1141,1150,_ZSt12__relocate_aIPNSt7__cxx1112basic_stringIcSt11char_traitsIcESaIcEEES6_SaIS5_EET0_T_S9_S8_RT1_
FN:1141,1150,_ZSt12__relocate_aIPSt10unique_ptrIN5sqlcc10sql_parser9StatementESt14default_deleteIS3_EES7_SaIS6_EET0_T_SA_S9_RT1_
FN:1141,1150,_ZSt12__relocate_aIPSt6vectorINSt7__cxx1112basic_stringIcSt11char_traitsIcESaIcEEESaIS6_EES9_SaIS8_EET0_T_SC_SB_RT1_
FN:1141,1150,_ZSt12__relocate_aIPhS0_SaIhEET0_T_S3_S2_RT1_
FN:135,137,_ZNSt20__uninitialized_copyILb0EE13__uninit_copyIN9__gnu_cxx17__normal_iteratorIPKNSt7__cxx1112basic_stringIcSt11char_traitsIcESaIcEEESt6vectorIS9_SaIS9_EEEEPS9_EET0_T_SI_SH_
FN:135,137,_ZNSt20__uninitialized_copyILb0EE13__uninit_copyIPKN5sqlcc10sql_parser15TableConstraintEPS4_EET0_T_S9_S8_
FN:135,137,_ZNSt20__uninitialized_copyILb0EE13__uninit_copyIPKN5sqlcc10sql_parser16ColumnDefinitionEPS4_EET0_T_S9_S8_
FN:135,137,_ZNSt20__uninitialized_copyILb0EE13__uninit_copyIPKPKcPNSt7__cxx1112basic_stringIcSt11char_traitsIcESaIcEEEEET0_T_SE_SD_
FN:145,147,_ZNSt20__uninitialized_copyILb1EE13__uninit_copyIN9__gnu_cxx17__normal_iteratorIPKcNSt7__cxx1112basic_stringIcSt11char_traitsIcESaIcEEEEEPhEET0_T_SF_SE_
FN:145,147,_ZNSt20__uninitialized_copyILb1EE13__uninit_copyIN9__gnu_cxx17__normal_iteratorIPKcSt6vectorIcSaIcEEEEPcEET0_T_SC_SB_
FN:145,147,_ZNSt20__uninitialized_copyILb1EE13__uninit_copyIN9__gnu_cxx17__normal_iteratorIPKhSt6vectorIhSaIhEEEEPhEET0_T_SC_SB_
FN:145,147,_ZNSt20__uninitialized_copyILb1EE13__uninit_copyIN9__gnu_cxx17__normal_iteratorIPcNSt7__cxx1112basic_stringIcSt11char_traitsIcESaIcEEEEEPhEET0_T_SE_SD_
FN:145,147,_ZNSt20__uninitialized_copyILb1EE13__uninit_copyIN9__gnu_cxx17__normal_iteratorIPcNSt7__cxx1112basic_stringIcSt11char_traitsIcESaIcEEEEES4_EET0_T_SD_SC_
FN:145,147,_ZNSt20__uninitialized_copyILb1EE13__uninit_copyIN9__gnu_cxx17__normal_iteratorIPhSt6vectorIhSaIhEEEES4_EET0_T_SA_S9_
FN:145,147,_ZNSt20__uninitialized_copyILb1EE13__uninit_copyIPKhPhEET0_T_S6_S5_
FN:145,147,_ZNSt20__uninitialized_copyILb1EE13__uninit_copyISt13move_iteratorIPhES3_EET0_T_S6_S5_
FN:163,186,_ZSt18uninitialized_copyIN9__gnu_cxx17__normal_iteratorIPKNSt7__cxx1112basic_stringIcSt11char_traitsIcESaIcEEESt6vectorIS7_SaIS7_EEEEPS7_ET0_T_SG_SF_
FN:163,186,_ZSt18uninitialized_copyIN9__gnu_cxx17__normal_iteratorIPKcNSt7__cxx1112basic_stringIcSt11char_traitsIcESaIcEEEEEPhET0_T_SD_SC_
FN:163,186,_ZSt18uninitialized_copyIN9__gnu_cxx17__normal_iteratorIPKcSt6vectorIcSaIcEEEEPcET0_T_SA_S9_
FN:163,186,_ZSt18uninitialized_copyIN9__gnu_cxx17__normal_iteratorIPKhSt6vectorIhSaIhEEEEPhET0_T_SA_S9_
FN:163,186,_ZSt18uninitialized_copyIN9__gnu_cxx17__normal_iteratorIPcNSt7__cxx1112basic_stringIcSt11char_traitsIcESaIcEEEEEPhET0_T_SC_SB_
FN:163,186,_ZSt18uninitialized_copyIN9__gnu_cxx17__normal_iteratorIPcNSt7__cxx1112basic_stringIcSt11char_traitsIcESaIcEEEEES2_ET0_T_SB_SA_
FN:163,186,_ZSt18uninitialized_copyIN9__gnu_cxx17__normal_iteratorIPhSt6vectorIhSaIhEEEES2_ET0_T_S8_S7_
FN:163,186,_ZSt18uninitialized_copyIPKN5sqlcc10sql_parser15TableConstraintEPS2_ET0_T_S7_S6_
FN:163,186,_ZSt18uninitialized_copyIPKN5sqlcc10sql_parser16ColumnDefinitionEPS2_ET0_T_S7_S6_
FN:163,186,_ZSt18uninitialized_copyIPKPKcPNSt7__cxx1112basic_stringIcSt11char_traitsIcESaIcEEEET0_T_SC_SB_
FN:163,186,_ZSt18uninitialized_copyIPKhPhET0_T_S4_S3_
FN:163,186,_ZSt18uninitialized_copyISt13move_iteratorIPhES1_ET0_T_S4_S3_
FN:292,294,_ZNSt22__uninitialized_fill_nILb1EE15__uninit_fill_nIPhmhEET_S3_T0_RKT1_
FN:312,328,_ZSt20uninitialized_fill_nIPhmhET_S1_T0_RKT1_
FN:366,374,_ZSt22__uninitialized_copy_aIN9__gnu_cxx17__normal_iteratorIPKNSt7__cxx1112basic_stringIcSt11char_traitsIcESaIcEEESt6vectorIS7_SaIS7_EEEEPS7_S7_ET0_T_SG_SF_RSaIT1_E
FN:366,374,_ZSt22__uninitialized_copy_aIN9__gnu_cxx17__normal_iteratorIPKcNSt7__cxx1112basic_stringIcSt11char_traitsIcESaIcEEEEEPhhET0_T_SD_SC_RSaIT1_E
FN:366,374,_ZSt22__uninitialized_copy_aIN9__gnu_cxx17__normal_iteratorIPKcSt6vectorIcSaIcEEEEPccET0_T_SA_S9_RSaIT1_E
FN:366,374,_ZSt22__uninitialized_copy_aIN9__gnu_cxx17__normal_iteratorIPKhSt6vectorIhSaIhEEEEPhhET0_T_SA_S9_RSaIT1_E
FN:366,374,_ZSt22__uninitialized_copy_aIN9__gnu_cxx17__normal_iteratorIPcNSt7__cxx1112basic_stringIcSt11char_traitsIcESaIcEEEEEPhhET0_T_SC_SB_RSaIT1_E
FN:366,374,_ZSt22__uninitialized_copy_aIN9__gnu_cxx17__normal_iteratorIPcNSt7__cxx1112basic_stringIcSt11char_traitsIcESaIcEEEEES2_cET0_T_SB_SA_RSaIT1_E
FN:366,374,_ZSt22__uninitialized_copy_aIN9__gnu_cxx17__normal_iteratorIPhSt6vectorIhSaIhEEEES2_hET0_T_S8_S7_RSaIT1_E
FN:366,374,_ZSt22__uninitialized_copy_aIPKN5sqlcc10sql_parser15TableConstraintEPS2_S2_ET0_T_S7_S6_RSaIT1_E
FN:366,374,_ZSt22__uninitialized_copy_aIPKN5sqlcc10sql_parser16ColumnDefinitionEPS2_S2_ET0_T_S7_S6_RSaIT1_E
FN:366,374,_ZSt22__uninitialized_copy_aIPKPKcPNSt7__cxx1112basic_stringIcSt11char_traitsIcESaIcEEES9_ET0_T_SC_SB_RSaIT1_E
FN:366,374,_ZSt22__uninitialized_copy_aIPKhPhhET0_T_S4_S3_RSaIT1_E
FN:366,374,_ZSt22__uninitialized_copy_aISt13move_iteratorIPhES1_hET0_T_S4_S3_RSaIT1_E
FN:381,387,_ZSt22__uninitialized_move_aIPhS0_SaIhEET0_T_S3_S2_RT1_
FN:393,401,_ZSt34__uninitialized_move_if_noexcept_aIPN5sqlcc10sql_parser15TableConstraintES3_SaIS2_EET0_T_S6_S5_RT1_
FN:393,401,_ZSt34__uninitialized_move_if_noexcept_aIPN5sqlcc10sql_parser16ColumnDefinitionES3_SaIS2_EET0_T_S6_S5_RT1_
FN:393,401,_ZSt34__uninitialized_move_if_noexcept_aIPhS0_SaIhEET0_T_S3_S2_RT1_
FN:465,473,_ZSt24__uninitialized_fill_n_aIPhmhhET_S1_T0_RKT1_RSaIT2_E
FN:660,671,_ZNSt27__uninitialized_default_n_1ILb1EE18__uninit_default_nIPcmEET_S3_T0_
FN:660,671,_ZNSt27__uninitialized_default_n_1ILb1EE18__uninit_default_nIPhmEET_S3_T0_
FN:696,713,_ZSt25__uninitialized_default_nIPcmET_S1_T0_
FN:696,713,_ZSt25__uninitialized_default_nIPhmET_S1_T0_
FN:777,779,_ZSt27__uninitialized_default_n_aIPcmcET_S1_T0_RSaIT1_E
FN:777,779,_ZSt27__uninitialized_default_n_aIPhmhET_S1_T0_RSaIT1_E
FNDA:6,_ZSt19__relocate_object_aINSt7__cxx1112basic_stringIcSt11char_traitsIcESaIcEEES5_SaIS5_EEvPT_PT0_RT1_
FNDA:0,_ZSt19__relocate_object_aISt10unique_ptrIN5sqlcc10sql_parser9StatementESt14default_deleteIS3_EES6_SaIS6_EEvPT_PT0_RT1_
FNDA:0,_ZSt19__relocate_object_aISt6vectorINSt7__cxx1112basic_stringIcSt11char_traitsIcESaIcEEESaIS6_EES8_SaIS8_EEvPT_PT0_RT1_
FNDA:20,_ZSt14__relocate_a_1IPNSt7__cxx1112basic_stringIcSt11char_traitsIcESaIcEEES6_SaIS5_EET0_T_S9_S8_RT1_
FNDA:26,_ZSt14__relocate_a_1IPSt10unique_ptrIN5sqlcc10sql_parser9StatementESt14default_deleteIS3_EES7_SaIS6_EET0_T_SA_S9_RT1_
FNDA:0,_ZSt14__relocate_a_1IPSt6vectorINSt7__cxx1112basic_stringIcSt11char_traitsIcESaIcEEESaIS6_EES9_SaIS8_EET0_T_SC_SB_RT1_
FNDA:0,_ZSt14__relocate_a_1IhhENSt9enable_ifIXsrSt24__is_bitwise_relocatableIT_vE5valueEPS2_E4typeES4_S4_S4_RSaIT0_E
FNDA:2,_ZSt16__do_uninit_copyIN9__gnu_cxx17__normal_iteratorIPKNSt7__cxx1112basic_stringIcSt11char_traitsIcESaIcEEESt6vectorIS7_SaIS7_EEEEPS7_ET0_T_SG_SF_
FNDA:0,_ZSt16__do_uninit_copyIPKN5sqlcc10sql_parser15TableConstraintEPS2_ET0_T_S7_S6_
FNDA:4,_ZSt16__do_uninit_copyIPKN5sqlcc10sql_parser16ColumnDefinitionEPS2_ET0_T_S7_S6_
FNDA:1,_ZSt16__do_uninit_copyIPKPKcPNSt7__cxx1112basic_stringIcSt11char_traitsIcESaIcEEEET0_T_SC_SB_
FNDA:20,_ZSt12__relocate_aIPNSt7__cxx1112basic_stringIcSt11char_traitsIcESaIcEEES6_SaIS5_EET0_T_S9_S8_RT1_
FNDA:26,_ZSt12__relocate_aIPSt10unique_ptrIN5sqlcc10sql_parser9StatementESt14default_deleteIS3_EES7_SaIS6_EET0_T_SA_S9_RT1_
FNDA:0,_ZSt12__relocate_aIPSt6vectorINSt7__cxx1112basic_stringIcSt11char_traitsIcESaIcEEESaIS6_EES9_SaIS8_EET0_T_SC_SB_RT1_
FNDA:0,_ZSt12__relocate_aIPhS0_SaIhEET0_T_S3_S2_RT1_
FNDA:0,_ZNSt20__uninitialized_copyILb0EE13__uninit_copyIN9__gnu_cxx17__normal_iteratorIPKNSt7__cxx1112basic_stringIcSt11char_traitsIcESaIcEEESt6vectorIS9_SaIS9_EEEEPS9_EET0_T_SI_SH_
FNDA:0,_ZNSt20__uninitialized_copyILb0EE13__uninit_copyIPKN5sqlcc10sql_parser15TableConstraintEPS4_EET0_T_S9_S8_
FNDA:4,_ZNSt20__uninitialized_copyILb0EE13__uninit_copyIPKN5sqlcc10sql_parser16ColumnDefinitionEPS4_EET0_T_S9_S8_
FNDA:1,_ZNSt20__uninitialized_copyILb0EE13__uninit_copyIPKPKcPNSt7__cxx1112basic_stringIcSt11char_traitsIcESaIcEEEEET0_T_SE_SD_
FNDA:4,_ZNSt20__uninitialized_copyILb1EE13__uninit_copyIN9__gnu_cxx17__normal_iteratorIPKcNSt7__cxx1112basic_stringIcSt11char_traitsIcESaIcEEEEEPhEET0_T_SF_SE_
FNDA:2,_ZNSt20__uninitialized_copyILb1EE13__uninit_copyIN9__gnu_cxx17__normal_iteratorIPKcSt6vectorIcSaIcEEEEPcEET0_T_SC_SB_
FNDA:52,_ZNSt20__uninitialized_copyILb1EE13__uninit_copyIN9__gnu_cxx17__normal_iteratorIPKhSt6vectorIhSaIhEEEEPhEET0_T_SC_SB_
FNDA:11,_ZNSt20__uninitialized_copyILb1EE13__uninit_copyIN9__gnu_cxx17__normal_iteratorIPcNSt7__cxx1112basic_stringIcSt11char_traitsIcESaIcEEEEEPhEET0_T_SE_SD_
FNDA:1,_ZNSt20__uninitialized_copyILb1EE13__uninit_copyIN9__gnu_cxx17__normal_iteratorIPcNSt7__cxx1112basic_stringIcSt11char_traitsIcESaIcEEEEES4_EET0_T_SD_SC_
FNDA:6,_ZNSt20__uninitialized_copyILb1EE13__uninit_copyIN9__gnu_cxx17__normal_iteratorIPhSt6vectorIhSaIhEEEES4_EET0_T_SA_S9_
FNDA:6,_ZNSt20__uninitialized_copyILb1EE13__uninit_copyIPKhPhEET0_T_S6_S5_
FNDA:2,_ZNSt20__uninitialized_copyILb1EE13__uninit_copyISt13move_iteratorIPhES3_EET0_T_S6_S5_
FNDA:0,_ZSt18uninitialized_copyIN9__gnu_cxx17__normal_iteratorIPKNSt7__cxx1112basic_stringIcSt11char_traitsIcESaIcEEESt6vectorIS7_SaIS7_EEEEPS7_ET0_T_SG_SF_
FNDA:4,_ZSt18uninitialized_copyIN9__gnu_cxx17__normal_iteratorIPKcNSt7__cxx1112basic_stringIcSt11char_traitsIcESaIcEEEEEPhET0_T_SD_SC_
FNDA:2,_ZSt18uninitialized_copyIN9__gnu_cxx17__normal_iteratorIPKcSt6vectorIcSaIcEEEEPcET0_T_SA_S9_
FNDA:52,_ZSt18uninitialized_copyIN9__gnu_cxx17__normal_iteratorIPKhSt6vectorIhSaIhEEEEPhET0_T_SA_S9_
FNDA:11,_ZSt18uninitialized_copyIN9__gnu_cxx17__normal_iteratorIPcNSt7__cxx1112basic_stringIcSt11char_traitsIcESaIcEEEEEPhET0_T_SC_SB_
FNDA:1,_ZSt18uninitialized_copyIN9__gnu_cxx17__normal_iteratorIPcNSt7__cxx1112basic_stringIcSt11char_traitsIcESaIcEEEEES2_ET0_T_SB_SA_
FNDA:6,_ZSt18uninitialized_copyIN9__gnu_cxx17__normal_iteratorIPhSt6vectorIhSaIhEEEES2_ET0_T_S8_S7_
FNDA:0,_ZSt18uninitialized_copyIPKN5sqlcc10sql_parser15TableConstraintEPS2_ET0_T_S7_S6_
FNDA:4,_ZSt18uninitialized_copyIPKN5sqlcc10sql_parser16ColumnDefinitionEPS2_ET0_T_S7_S6_
FNDA:1,_ZSt18uninitialized_copyIPKPKcPNSt7__cxx1112basic_stringIcSt11char_traitsIcESaIcEEEET0_T_SC_SB_
FNDA:6,_ZSt18uninitialized_copyIPKhPhET0_T_S4_S3_
FNDA:2,_ZSt18uninitialized_copyISt13move_iteratorIPhES1_ET0_T_S4_S3_
FNDA:1,_ZNSt22__uninitialized_fill_nILb1EE15__uninit_fill_nIPhmhEET_S3_T0_RKT1_
FNDA:1,_ZSt20uninitialized_fill_nIPhmhET_S1_T0_RKT1_
FNDA:0,_ZSt22__uninitialized_copy_aIN9__gnu_cxx17__normal_iteratorIPKNSt7__cxx1112basic_stringIcSt11char_traitsIcESaIcEEESt6vectorIS7_SaIS7_EEEEPS7_S7_ET0_T_SG_SF_RSaIT1_E
FNDA:4,_ZSt22__uninitialized_copy_aIN9__gnu_cxx17__normal_iteratorIPKcNSt7__cxx1112basic_stringIcSt11char_traitsIcESaIcEEEEEPhhET0_T_SD_SC_RSaIT1_E
FNDA:2,_ZSt22__uninitialized_copy_aIN9__gnu_cxx17__normal_iteratorIPKcSt6vectorIcSaIcEEEEPccET0_T_SA_S9_RSaIT1_E
FNDA:52,_ZSt22__uninitialized_copy_aIN9__gnu_cxx17__normal_iteratorIPKhSt6vectorIhSaIhEEEEPhhET0_T_SA_S9_RSaIT1_E
FNDA:11,_ZSt22__uninitialized_copy_aIN9__gnu_cxx17__normal_iteratorIPcNSt7__cxx1112basic_stringIcSt11char_traitsIcESaIcEEEEEPhhET0_T_SC_SB_RSaIT1_E
FNDA:1,_ZSt22__uninitialized_copy_aIN9__gnu_cxx17__normal_iteratorIPcNSt7__cxx1112basic_stringIcSt11char_traitsIcESaIcEEEEES2_cET0_T_SB_SA_RSaIT1_E
FNDA:6,_ZSt22__uninitialized_copy_aIN9__gnu_cxx17__normal_iteratorIPhSt6vectorIhSaIhEEEES2_hET0_T_S8_S7_RSaIT1_E
FNDA:0,_ZSt22__uninitialized_copy_aIPKN5sqlcc10sql_parser15TableConstraintEPS2_S2_ET0_T_S7_S6_RSaIT1_E
FNDA:4,_ZSt22__uninitialized_copy_aIPKN5sqlcc10sql_parser16ColumnDefinitionEPS2_S2_ET0_T_S7_S6_RSaIT1_E
FNDA:1,_ZSt22__uninitialized_copy_aIPKPKcPNSt7__cxx1112basic_stringIcSt11char_traitsIcESaIcEEES9_ET0_T_SC_SB_RSaIT1_E
FNDA:6,_ZSt22__uninitialized_copy_aIPKhPhhET0_T_S4_S3_RSaIT1_E
FNDA:2,_ZSt22__uninitialized_copy_aISt13move_iteratorIPhES1_hET0_T_S4_S3_RSaIT1_E
FNDA:0,_ZSt22__uninitialized_move_aIPhS0_SaIhEET0_T_S3_S2_RT1_
FNDA:0,_ZSt34__uninitialized_move_if_noexcept_aIPN5sqlcc10sql_parser15TableConstraintES3_SaIS2_EET0_T_S6_S5_RT1_
FNDA:4,_ZSt34__uninitialized_move_if_noexcept_aIPN5sqlcc10sql_parser16ColumnDefinitionES3_SaIS2_EET0_T_S6_S5_RT1_
FNDA:2,_ZSt34__uninitialized_move_if_noexcept_aIPhS0_SaIhEET0_T_S3_S2_RT1_
FNDA:1,_ZSt24__uninitialized_fill_n_aIPhmhhET_S1_T0_RKT1_RSaIT2_E
FNDA:4,_ZNSt27__uninitialized_default_n_1ILb1EE18__uninit_default_nIPcmEET_S3_T0_
FNDA:90,_ZNSt27__uninitialized_default_n_1ILb1EE18__uninit_default_nIPhmEET_S3_T0_
FNDA:4,_ZSt25__uninitialized_default_nIPcmET_S1_T0_
FNDA:90,_ZSt25__uninitialized_default_nIPhmET_S1_T0_
FNDA:4,_ZSt27__uninitialized_default_n_aIPcmcET_S1_T0_RSaIT1_E
FNDA:90,_ZSt27__uninitialized_default_n_aIPhmhET_S1_T0_RSaIT1_E
FNF:64
FNH:49
DA:113,7
DA:116,7
DA:119,13
DA:120,6
DA:121,7
DA:123,0
DA:125,0
DA:126,0
DA:135,5
DA:137,5
DA:145,84
DA:147,84
DA:163,89
DA:174,89
DA:181,89
DA:185,89
DA:292,1
DA:294,1
DA:312,1
DA:319,1
DA:327,1
DA:366,89
DA:373,89
DA:381,0
DA:384,0
DA:386,0
DA:393,6
DA:399,6
DA:400,6
DA:465,1
DA:472,1
DA:660,94
DA:662,94
DA:665,94
DA:666,94
DA:667,94
DA:668,94
DA:670,94
DA:696,94
DA:707,94
DA:712,94
DA:777,94
DA:779,94
DA:1069,6
DA:1077,6
DA:1078,6
DA:1079,6
DA:1091,46
DA:1103,46
DA:1104,52
DA:1105,6
DA:1107,46
DA:1114,0
DA:1118,0
DA:1119,0
DA:1131,0
DA:1133,0
DA:1141,46
DA:1147,46
DA:1149,46
LF:60
LH:49
end_of_record
TN:
SF:/usr/include/c++/13/bits/stl_vector.h
FN:1013,1019,_ZNSt6vectorIhSaIhEE6resizeEm
FN:105,108,_ZNSt12_Vector_baseINSt7__cxx1112basic_stringIcSt11char_traitsIcESaIcEEESaIS5_EE17_Vector_impl_dataC2EOS8_
FN:1088,1089,_ZNKSt6vectorINSt7__cxx1112basic_stringIcSt11char_traitsIcESaIcEEESaIS5_EE5emptyEv
FN:1088,1089,_ZNKSt6vectorISt10unique_ptrIN5sqlcc10sql_parser9StatementESt14default_deleteIS3_EESaIS6_EE5emptyEv
FN:1088,1089,_ZNKSt6vectorIcSaIcEE5emptyEv
FN:1088,1089,_ZNKSt6vectorIhSaIhEE5emptyEv
FN:1126,1130,_ZNSt6vectorISt10unique_ptrIN5sqlcc10sql_parser9StatementESt14default_deleteIS3_EESaIS6_EEixEm
FN:1126,1130,_ZNSt6vectorIcSaIcEEixEm
FN:1126,1130,_ZNSt6vectorIhSaIhEEixEm
FN:1145,1149,_ZNKSt6vectorINSt7__cxx1112basic_stringIcSt11char_traitsIcESaIcEEESaIS5_EEixEm
FN:1145,1149,_ZNKSt6vectorIcSaIcEEixEm
FN:1145,1149,_ZNKSt6vectorIhSaIhEEixEm
FN:1233,1237,_ZNSt6vectorIN5sqlcc10sql_parser15TableConstraintESaIS2_EE4backEv
FN:1233,1237,_ZNSt6vectorIN5sqlcc10sql_parser16ColumnDefinitionESaIS2_EE4backEv
FN:1233,1237,_ZNSt6vectorISt10unique_ptrIN5sqlcc10sql_parser9StatementESt14default_deleteIS3_EESaIS6_EE4backEv
FN:1260,1261,_ZNSt6vectorIcSaIcEE4dataEv
FN:1260,1261,_ZNSt6vectorIhSaIhEE4dataEv
FN:1265,1266,_ZNKSt6vectorIhSaIhEE4dataEv
FN:1281,1293,_ZNSt6vectorINSt7__cxx1112basic_stringIcSt11char_traitsIcESaIcEEESaIS5_EE9push_backERKS5_
FN:1281,1293,_ZNSt6vectorIS_INSt7__cxx1112basic_stringIcSt11char_traitsIcESaIcEEESaIS5_EESaIS7_EE9push_backERKS7_
FN:1298,1299,_ZNSt6vectorIN5sqlcc10sql_parser15TableConstraintESaIS2_EE9push_backEOS2_
FN:1298,1299,_ZNSt6vectorIN5sqlcc10sql_parser16ColumnDefinitionESaIS2_EE9push_backEOS2_
FN:1298,1299,_ZNSt6vectorISt10unique_ptrIN5sqlcc10sql_parser9StatementESt14default_deleteIS3_EESaIS6_EE9push_backEOS6_
FN:137,143,_ZNSt12_Vector_baseIN5sqlcc10sql_parser15TableConstraintESaIS2_EE12_Vector_implC2Ev
FN:137,143,_ZNSt12_Vector_baseIN5sqlcc10sql_parser16ColumnDefinitionESaIS2_EE12_Vector_implC2Ev
FN:137,143,_ZNSt12_Vector_baseINSt7__cxx1112basic_stringIcSt11char_traitsIcESaIcEEESaIS5_EE12_Vector_implC2Ev
FN:137,143,_ZNSt12_Vector_baseISt10unique_ptrIN5sqlcc10sql_parser9StatementESt14default_deleteIS3_EESaIS6_EE12_Vector_implC2Ev
FN:137,143,_ZNSt12_Vector_baseISt6vectorINSt7__cxx1112basic_stringIcSt11char_traitsIcESaIcEEESaIS6_EESaIS8_EE12_Vector_implC2Ev
FN:146,148,_ZNSt12_Vector_baseINSt7__cxx1112basic_stringIcSt11char_traitsIcESaIcEEESaIS5_EE12_Vector_implC2ERKS6_
FN:146,148,_ZNSt12_Vector_baseIcSaIcEE12_Vector_implC2ERKS0_
FN:146,148,_ZNSt12_Vector_baseIhSaIhEE12_Vector_implC2ERKS0_
FN:1482,1489,_ZNSt6vectorIhSaIhEE6insertIN9__gnu_cxx17__normal_iteratorIPhS1_EEvEES6_NS4_IPKhS1_EET_SA_
FN:154,156,_ZNSt12_Vector_baseINSt7__cxx1112basic_stringIcSt11char_traitsIcESaIcEEESaIS5_EE12_Vector_implC2EOS8_
FN:1605,1606,_ZNSt6vectorINSt7__cxx1112basic_stringIcSt11char_traitsIcESaIcEEESaIS5_EE5clearEv
FN:1687,1698,_ZNSt6vectorINSt7__cxx1112basic_stringIcSt11char_traitsIcESaIcEEESaIS5_EE19_M_range_initializeIPKPKcEEvT_SD_St20forward_iterator_tag
FN:1687,1698,_ZNSt6vectorIcSaIcEE19_M_range_initializeIN9__gnu_cxx17__normal_iteratorIPcNSt7__cxx1112basic_stringIcSt11char_traitsIcES0_EEEEEEvT_SC_St20forward_iterator_tag
FN:1687,1698,_ZNSt6vectorIhSaIhEE19_M_range_initializeIN9__gnu_cxx17__normal_iteratorIPKcNSt7__cxx1112basic_stringIcSt11char_traitsIcESaIcEEEEEEEvT_SE_St20forward_iterator_tag
FN:1687,1698,_ZNSt6vectorIhSaIhEE19_M_range_initializeIN9__gnu_cxx17__normal_iteratorIPcNSt7__cxx1112basic_stringIcSt11char_traitsIcESaIcEEEEEEEvT_SD_St20forward_iterator_tag
FN:1687,1698,_ZNSt6vectorIhSaIhEE19_M_range_initializeIN9__gnu_cxx17__normal_iteratorIPhS1_EEEEvT_S7_St20forward_iterator_tag
FN:1687,1698,_ZNSt6vectorIhSaIhEE19_M_range_initializeIPKhEEvT_S5_St20forward_iterator_tag
FN:1704,1709,_ZNSt6vectorIhSaIhEE18_M_fill_initializeEmRKh
FN:1715,1720,_ZNSt6vectorIcSaIcEE21_M_default_initializeEm
FN:1715,1720,_ZNSt6vectorIhSaIhEE21_M_default_initializeEm
FN:1896,1903,_ZNKSt6vectorIN5sqlcc10sql_parser15TableConstraintESaIS2_EE12_M_check_lenEmPKc
FN:1896,1903,_ZNKSt6vectorIN5sqlcc10sql_parser16ColumnDefinitionESaIS2_EE12_M_check_lenEmPKc
FN:1896,1903,_ZNKSt6vectorINSt7__cxx1112basic_stringIcSt11char_traitsIcESaIcEEESaIS5_EE12_M_check_lenEmPKc
FN:1896,1903,_ZNKSt6vectorIS_INSt7__cxx1112basic_stringIcSt11char_traitsIcESaIcEEESaIS5_EESaIS7_EE12_M_check_lenEmPKc
FN:1896,1903,_ZNKSt6vectorISt10unique_ptrIN5sqlcc10sql_parser9StatementESt14default_deleteIS3_EESaIS6_EE12_M_check_lenEmPKc
FN:1896,1903,_ZNKSt6vectorIhSaIhEE12_M_check_lenEmPKc
FN:1907,1913,_ZNSt6vectorINSt7__cxx1112basic_stringIcSt11char_traitsIcESaIcEEESaIS5_EE17_S_check_init_lenEmRKS6_
FN:1907,1913,_ZNSt6vectorIcSaIcEE17_S_check_init_lenEmRKS0_
FN:1907,1913,_ZNSt6vectorIhSaIhEE17_S_check_init_lenEmRKS0_
FN:1916,1925,_ZNSt6vectorIN5sqlcc10sql_parser15TableConstraintESaIS2_EE11_S_max_sizeERKS3_
FN:1916,1925,_ZNSt6vectorIN5sqlcc10sql_parser16ColumnDefinitionESaIS2_EE11_S_max_sizeERKS3_
FN:1916,1925,_ZNSt6vectorINSt7__cxx1112basic_stringIcSt11char_traitsIcESaIcEEESaIS5_EE11_S_max_sizeERKS6_
FN:1916,1925,_ZNSt6vectorIS_INSt7__cxx1112basic_stringIcSt11char_traitsIcESaIcEEESaIS5_EESaIS7_EE11_S_max_sizeERKS8_
FN:1916,1925,_ZNSt6vectorISt10unique_ptrIN5sqlcc10sql_parser9StatementESt14default_deleteIS3_EESaIS6_EE11_S_max_sizeERKS7_
FN:1916,1925,_ZNSt6vectorIcSaIcEE11_S_max_sizeERKS0_
FN:1916,1925,_ZNSt6vectorIhSaIhEE11_S_max_sizeERKS0_
FN:1933,1942,_ZNSt6vectorINSt7__cxx1112basic_stringIcSt11char_traitsIcESaIcEEESaIS5_EE15_M_erase_at_endEPS5_
FN:1933,1942,_ZNSt6vectorIhSaIhEE15_M_erase_at_endEPh
FN:1990,1991,_ZNKSt6vectorIcSaIcEE11_M_data_ptrIcEEPT_S4_
FN:1990,1991,_ZNKSt6vectorIhSaIhEE11_M_data_ptrIhEEPT_S4_
FN:2040,2042,_ZSteqIcSaIcEEbRKSt6vectorIT_T0_ES6_
FN:2040,2042,_ZSteqIhSaIhEEbRKSt6vectorIT_T0_ES6_
FN:2086,2087,_ZStneIcSaIcEEbRKSt6vectorIT_T0_ES6_
FN:2086,2087,_ZStneIhSaIhEEbRKSt6vectorIT_T0_ES6_
FN:301,302,_ZNSt12_Vector_baseIN5sqlcc10sql_parser15TableConstraintESaIS2_EE19_M_get_Tp_allocatorEv
FN:301,302,_ZNSt12_Vector_baseIN5sqlcc10sql_parser16ColumnDefinitionESaIS2_EE19_M_get_Tp_allocatorEv
FN:301,302,_ZNSt12_Vector_baseINSt7__cxx1112basic_stringIcSt11char_traitsIcESaIcEEESaIS5_EE19_M_get_Tp_allocatorEv
FN:301,302,_ZNSt12_Vector_baseISt10unique_ptrIN5sqlcc10sql_parser9StatementESt14default_deleteIS3_EESaIS6_EE19_M_get_Tp_allocatorEv
FN:301,302,_ZNSt12_Vector_baseISt6vectorINSt7__cxx1112basic_stringIcSt11char_traitsIcESaIcEEESaIS6_EESaIS8_EE19_M_get_Tp_allocatorEv
FN:301,302,_ZNSt12_Vector_baseIcSaIcEE19_M_get_Tp_allocatorEv
FN:301,302,_ZNSt12_Vector_baseIhSaIhEE19_M_get_Tp_allocatorEv
FN:306,307,_ZNKSt12_Vector_baseIN5sqlcc10sql_parser15TableConstraintESaIS2_EE19_M_get_Tp_allocatorEv
FN:306,307,_ZNKSt12_Vector_baseIN5sqlcc10sql_parser16ColumnDefinitionESaIS2_EE19_M_get_Tp_allocatorEv
FN:306,307,_ZNKSt12_Vector_baseINSt7__cxx1112basic_stringIcSt11char_traitsIcESaIcEEESaIS5_EE19_M_get_Tp_allocatorEv
FN:306,307,_ZNKSt12_Vector_baseISt10unique_ptrIN5sqlcc10sql_parser9StatementESt14default_deleteIS3_EESaIS6_EE19_M_get_Tp_allocatorEv
FN:306,307,_ZNKSt12_Vector_baseISt6vectorINSt7__cxx1112basic_stringIcSt11char_traitsIcESaIcEEESaIS6_EESaIS8_EE19_M_get_Tp_allocatorEv
FN:306,307,_ZNKSt12_Vector_baseIcSaIcEE19_M_get_Tp_allocatorEv
FN:306,307,_ZNKSt12_Vector_baseIhSaIhEE19_M_get_Tp_allocatorEv
FN:315,315,_ZNSt12_Vector_baseIN5sqlcc10sql_parser15TableConstraintESaIS2_EEC2Ev
FN:315,315,_ZNSt12_Vector_baseIN5sqlcc10sql_parser16ColumnDefinitionESaIS2_EEC2Ev
FN:315,315,_ZNSt12_Vector_baseINSt7__cxx1112basic_stringIcSt11char_traitsIcESaIcEEESaIS5_EEC2Ev
FN:315,315,_ZNSt12_Vector_baseISt10unique_ptrIN5sqlcc10sql_parser9StatementESt14default_deleteIS3_EESaIS6_EEC2Ev
FN:315,315,_ZNSt12_Vector_baseISt6vectorINSt7__cxx1112basic_stringIcSt11char_traitsIcESaIcEEESaIS6_EESaIS8_EEC2Ev
FN:321,322,_ZNSt12_Vector_baseINSt7__cxx1112basic_stringIcSt11char_traitsIcESaIcEEESaIS5_EEC2ERKS6_
FN:321,322,_ZNSt12_Vector_baseIcSaIcEEC2ERKS0_
FN:321,322,_ZNSt12_Vector_baseIhSaIhEEC2ERKS0_
FN:333,335,_ZNSt12_Vector_baseINSt7__cxx1112basic_stringIcSt11char_traitsIcESaIcEEESaIS5_EEC2EmRKS6_
FN:333,335,_ZNSt12_Vector_baseIcSaIcEEC2EmRKS0_
FN:333,335,_ZNSt12_Vector_baseIhSaIhEEC2EmRKS0_
FN:338,338,_ZNSt12_Vector_baseINSt7__cxx1112basic_stringIcSt11char_traitsIcESaIcEEESaIS5_EEC2EOS7_
FN:367,371,_ZNSt12_Vector_baseIN5sqlcc10sql_parser15TableConstraintESaIS2_EED2Ev
FN:367,371,_ZNSt12_Vector_baseIN5sqlcc10sql_parser16ColumnDefinitionESaIS2_EED2Ev
FN:367,371,_ZNSt12_Vector_baseINSt7__cxx1112basic_stringIcSt11char_traitsIcESaIcEEESaIS5_EED2Ev
FN:367,371,_ZNSt12_Vector_baseISt10unique_ptrIN5sqlcc10sql_parser9StatementESt14default_deleteIS3_EESaIS6_EED2Ev
FN:367,371,_ZNSt12_Vector_baseISt6vectorINSt7__cxx1112basic_stringIcSt11char_traitsIcESaIcEEESaIS6_EESaIS8_EED2Ev
FN:367,371,_ZNSt12_Vector_baseIcSaIcEED2Ev
FN:367,371,_ZNSt12_Vector_baseIhSaIhEED2Ev
FN:378,382,_ZNSt12_Vector_baseIN5sqlcc10sql_parser15TableConstraintESaIS2_EE11_M_allocateEm
FN:378,382,_ZNSt12_Vector_baseIN5sqlcc10sql_parser16ColumnDefinitionESaIS2_EE11_M_allocateEm
FN:378,382,_ZNSt12_Vector_baseINSt7__cxx1112basic_stringIcSt11char_traitsIcESaIcEEESaIS5_EE11_M_allocateEm
FN:378,382,_ZNSt12_Vector_baseISt10unique_ptrIN5sqlcc10sql_parser9StatementESt14default_deleteIS3_EESaIS6_EE11_M_allocateEm
FN:378,382,_ZNSt12_Vector_baseISt6vectorINSt7__cxx1112basic_stringIcSt11char_traitsIcESaIcEEESaIS6_EESaIS8_EE11_M_allocateEm
FN:378,382,_ZNSt12_Vector_baseIcSaIcEE11_M_allocateEm
FN:378,382,_ZNSt12_Vector_baseIhSaIhEE11_M_allocateEm
FN:386,391,_ZNSt12_Vector_baseIN5sqlcc10sql_parser15TableConstraintESaIS2_EE13_M_deallocateEPS2_m
FN:386,391,_ZNSt12_Vector_baseIN5sqlcc10sql_parser16ColumnDefinitionESaIS2_EE13_M_deallocateEPS2_m
FN:386,391,_ZNSt12_Vector_baseINSt7__cxx1112basic_stringIcSt11char_traitsIcESaIcEEESaIS5_EE13_M_deallocateEPS5_m
FN:386,391,_ZNSt12_Vector_baseISt10unique_ptrIN5sqlcc10sql_parser9StatementESt14default_deleteIS3_EESaIS6_EE13_M_deallocateEPS6_m
FN:386,391,_ZNSt12_Vector_baseISt6vectorINSt7__cxx1112basic_stringIcSt11char_traitsIcESaIcEEESaIS6_EESaIS8_EE13_M_deallocateEPS8_m
FN:386,391,_ZNSt12_Vector_baseIcSaIcEE13_M_deallocateEPcm
FN:386,391,_ZNSt12_Vector_baseIhSaIhEE13_M_deallocateEPhm
FN:396,401,_ZNSt12_Vector_baseINSt7__cxx1112basic_stringIcSt11char_traitsIcESaIcEEESaIS5_EE17_M_create_storageEm
FN:396,401,_ZNSt12_Vector_baseIcSaIcEE17_M_create_storageEm
FN:396,401,_ZNSt12_Vector_baseIhSaIhEE17_M_create_storageEm
FN:504,514,_ZNSt6vectorINSt7__cxx1112basic_stringIcSt11char_traitsIcESaIcEEESaIS5_EE11_S_relocateEPS5_S8_S8_RS6_
FN:504,514,_ZNSt6vectorIS_INSt7__cxx1112basic_stringIcSt11char_traitsIcESaIcEEESaIS5_EESaIS7_EE11_S_relocateEPS7_SA_SA_RS8_
FN:504,514,_ZNSt6vectorISt10unique_ptrIN5sqlcc10sql_parser9StatementESt14default_deleteIS3_EESaIS6_EE11_S_relocateEPS6_S9_S9_RS7_
FN:504,514,_ZNSt6vectorIhSaIhEE11_S_relocateEPhS2_S2_RS0_
FN:531,531,_ZNSt6vectorIN5sqlcc10sql_parser15TableConstraintESaIS2_EEC2Ev
FN:531,531,_ZNSt6vectorIN5sqlcc10sql_parser16ColumnDefinitionESaIS2_EEC2Ev
FN:531,531,_ZNSt6vectorINSt7__cxx1112basic_stringIcSt11char_traitsIcESaIcEEESaIS5_EEC2Ev
FN:531,531,_ZNSt6vectorIS_INSt7__cxx1112basic_stringIcSt11char_traitsIcESaIcEEESaIS5_EESaIS7_EEC2Ev
FN:531,531,_ZNSt6vectorISt10unique_ptrIN5sqlcc10sql_parser9StatementESt14default_deleteIS3_EESaIS6_EEC2Ev
FN:556,558,_ZNSt6vectorIcSaIcEEC2EmRKS0_
FN:556,558,_ZNSt6vectorIhSaIhEEC2EmRKS0_
FN:569,572,_ZNSt6vectorIhSaIhEEC2EmRKhRKS0_
FN:601,609,_ZNSt6vectorINSt7__cxx1112basic_stringIcSt11char_traitsIcESaIcEEESaIS5_EEC2ERKS7_
FN:601,609,_ZNSt6vectorIcSaIcEEC2ERKS1_
FN:601,609,_ZNSt6vectorIhSaIhEEC2ERKS1_
FN:620,620,_ZNSt6vectorINSt7__cxx1112basic_stringIcSt11char_traitsIcESaIcEEESaIS5_EEC2EOS7_
FN:678,684,_ZNSt6vectorIhSaIhEEC2ESt16initializer_listIhERKS0_
FN:707,713,_ZNSt6vectorINSt7__cxx1112basic_stringIcSt11char_traitsIcESaIcEEESaIS5_EEC2IPKPKcvEET_SD_RKS6_
FN:707,713,_ZNSt6vectorIcSaIcEEC2IN9__gnu_cxx17__normal_iteratorIPcNSt7__cxx1112basic_stringIcSt11char_traitsIcES0_EEEEvEET_SC_RKS0_
FN:707,713,_ZNSt6vectorIhSaIhEEC2IN9__gnu_cxx17__normal_iteratorIPKcNSt7__cxx1112basic_stringIcSt11char_traitsIcESaIcEEEEEvEET_SE_RKS0_
FN:707,713,_ZNSt6vectorIhSaIhEEC2IN9__gnu_cxx17__normal_iteratorIPcNSt7__cxx1112basic_stringIcSt11char_traitsIcESaIcEEEEEvEET_SD_RKS0_
FN:707,713,_ZNSt6vectorIhSaIhEEC2IN9__gnu_cxx17__normal_iteratorIPhS1_EEvEET_S7_RKS0_
FN:733,738,_ZNSt6vectorIN5sqlcc10sql_parser15TableConstraintESaIS2_EED2Ev
FN:733,738,_ZNSt6vectorIN5sqlcc10sql_parser16ColumnDefinitionESaIS2_EED2Ev
FN:733,738,_ZNSt6vectorINSt7__cxx1112basic_stringIcSt11char_traitsIcESaIcEEESaIS5_EED2Ev
FN:733,738,_ZNSt6vectorIS_INSt7__cxx1112basic_stringIcSt11char_traitsIcESaIcEEESaIS5_EESaIS7_EED2Ev
FN:733,738,_ZNSt6vectorISt10unique_ptrIN5sqlcc10sql_parser9StatementESt14default_deleteIS3_EESaIS6_EED2Ev
FN:733,738,_ZNSt6vectorIcSaIcEED2Ev
FN:733,738,_ZNSt6vectorIhSaIhEED2Ev
FN:873,874,_ZNSt6vectorIN5sqlcc10sql_parser15TableConstraintESaIS2_EE5beginEv
FN:873,874,_ZNSt6vectorIN5sqlcc10sql_parser16ColumnDefinitionESaIS2_EE5beginEv
FN:873,874,_ZNSt6vectorINSt7__cxx1112basic_stringIcSt11char_traitsIcESaIcEEESaIS5_EE5beginEv
FN:873,874,_ZNSt6vectorIS_INSt7__cxx1112basic_stringIcSt11char_traitsIcESaIcEEESaIS5_EESaIS7_EE5beginEv
FN:873,874,_ZNSt6vectorISt10unique_ptrIN5sqlcc10sql_parser9StatementESt14default_deleteIS3_EESaIS6_EE5beginEv
FN:873,874,_ZNSt6vectorIhSaIhEE5beginEv
FN:883,884,_ZNKSt6vectorINSt7__cxx1112basic_stringIcSt11char_traitsIcESaIcEEESaIS5_EE5beginEv
FN:883,884,_ZNKSt6vectorISt10unique_ptrIN5sqlcc10sql_parser10ExpressionESt14default_deleteIS3_EESaIS6_EE5beginEv
FN:883,884,_ZNKSt6vectorISt10unique_ptrIN5sqlcc10sql_parser9StatementESt14default_deleteIS3_EESaIS6_EE5beginEv
FN:883,884,_ZNKSt6vectorIcSaIcEE5beginEv
FN:883,884,_ZNKSt6vectorIhSaIhEE5beginEv
FN:893,894,_ZNSt6vectorIN5sqlcc10sql_parser15TableConstraintESaIS2_EE3endEv
FN:893,894,_ZNSt6vectorIN5sqlcc10sql_parser16ColumnDefinitionESaIS2_EE3endEv
FN:893,894,_ZNSt6vectorINSt7__cxx1112basic_stringIcSt11char_traitsIcESaIcEEESaIS5_EE3endEv
FN:893,894,_ZNSt6vectorIS_INSt7__cxx1112basic_stringIcSt11char_traitsIcESaIcEEESaIS5_EESaIS7_EE3endEv
FN:893,894,_ZNSt6vectorISt10unique_ptrIN5sqlcc10sql_parser9StatementESt14default_deleteIS3_EESaIS6_EE3endEv
FN:893,894,_ZNSt6vectorIhSaIhEE3endEv
FN:903,904,_ZNKSt6vectorINSt7__cxx1112basic_stringIcSt11char_traitsIcESaIcEEESaIS5_EE3endEv
FN:903,904,_ZNKSt6vectorISt10unique_ptrIN5sqlcc10sql_parser10ExpressionESt14default_deleteIS3_EESaIS6_EE3endEv
FN:903,904,_ZNKSt6vectorISt10unique_ptrIN5sqlcc10sql_parser9StatementESt14default_deleteIS3_EESaIS6_EE3endEv
FN:903,904,_ZNKSt6vectorIcSaIcEE3endEv
FN:903,904,_ZNKSt6vectorIhSaIhEE3endEv
FN:954,955,_ZNKSt6vectorIhSaIhEE6cbeginEv
FN:99,101,_ZNSt12_Vector_baseIN5sqlcc10sql_parser15TableConstraintESaIS2_EE17_Vector_impl_dataC2Ev
FN:99,101,_ZNSt12_Vector_baseIN5sqlcc10sql_parser16ColumnDefinitionESaIS2_EE17_Vector_impl_dataC2Ev
FN:99,101,_ZNSt12_Vector_baseINSt7__cxx1112basic_stringIcSt11char_traitsIcESaIcEEESaIS5_EE17_Vector_impl_dataC2Ev
FN:99,101,_ZNSt12_Vector_baseISt10unique_ptrIN5sqlcc10sql_parser9StatementESt14default_deleteIS3_EESaIS6_EE17_Vector_impl_dataC2Ev
FN:99,101,_ZNSt12_Vector_baseISt6vectorINSt7__cxx1112basic_stringIcSt11char_traitsIcESaIcEEESaIS6_EESaIS8_EE17_Vector_impl_dataC2Ev
FN:99,101,_ZNSt12_Vector_baseIcSaIcEE17_Vector_impl_dataC2Ev
FN:99,101,_ZNSt12_Vector_baseIhSaIhEE17_Vector_impl_dataC2Ev
FN:992,993,_ZNKSt6vectorIN5sqlcc10sql_parser15TableConstraintESaIS2_EE4sizeEv
FN:992,993,_ZNKSt6vectorIN5sqlcc10sql_parser16ColumnDefinitionESaIS2_EE4sizeEv
FN:992,993,_ZNKSt6vectorINSt7__cxx1112basic_stringIcSt11char_traitsIcESaIcEEESaIS5_EE4sizeEv
FN:992,993,_ZNKSt6vectorIS_INSt7__cxx1112basic_stringIcSt11char_traitsIcESaIcEEESaIS5_EESaIS7_EE4sizeEv
FN:992,993,_ZNKSt6vectorISt10unique_ptrIN5sqlcc10sql_parser9StatementESt14default_deleteIS3_EESaIS6_EE4sizeEv
FN:992,993,_ZNKSt6vectorIcSaIcEE4sizeEv
FN:992,993,_ZNKSt6vectorIhSaIhEE4sizeEv
FN:998,999,_ZNKSt6vectorIN5sqlcc10sql_parser15TableConstraintESaIS2_EE8max_sizeEv
FN:998,999,_ZNKSt6vectorIN5sqlcc10sql_parser16ColumnDefinitionESaIS2_EE8max_sizeEv
FN:998,999,_ZNKSt6vectorINSt7__cxx1112basic_stringIcSt11char_traitsIcESaIcEEESaIS5_EE8max_sizeEv
FN:998,999,_ZNKSt6vectorIS_INSt7__cxx1112basic_stringIcSt11char_traitsIcESaIcEEESaIS5_EESaIS7_EE8max_sizeEv
FN:998,999,_ZNKSt6vectorISt10unique_ptrIN5sqlcc10sql_parser9StatementESt14default_deleteIS3_EESaIS6_EE8max_sizeEv
FN:998,999,_ZNKSt6vectorIhSaIhEE8max_sizeEv
FNDA:33,_ZNSt6vectorIhSaIhEE6resizeEm
FNDA:0,_ZNSt12_Vector_baseINSt7__cxx1112basic_stringIcSt11char_traitsIcESaIcEEESaIS5_EE17_Vector_impl_dataC2EOS8_
FNDA:0,_ZNKSt6vectorINSt7__cxx1112basic_stringIcSt11char_traitsIcESaIcEEESaIS5_EE5emptyEv
FNDA:3,_ZNKSt6vectorISt10unique_ptrIN5sqlcc10sql_parser9StatementESt14default_deleteIS3_EESaIS6_EE5emptyEv
FNDA:1,_ZNKSt6vectorIcSaIcEE5emptyEv
FNDA:7,_ZNKSt6vectorIhSaIhEE5emptyEv
FNDA:13,_ZNSt6vectorISt10unique_ptrIN5sqlcc10sql_parser9StatementESt14default_deleteIS3_EESaIS6_EEixEm
FNDA:26,_ZNSt6vectorIcSaIcEEixEm
FNDA:102530,_ZNSt6vectorIhSaIhEEixEm
FNDA:10,_ZNKSt6vectorINSt7__cxx1112basic_stringIcSt11char_traitsIcESaIcEEESaIS5_EEixEm
FNDA:26,_ZNKSt6vectorIcSaIcEEixEm
FNDA:128,_ZNKSt6vectorIhSaIhEEixEm
FNDA:0,_ZNSt6vectorIN5sqlcc10sql_parser15TableConstraintESaIS2_EE4backEv
FNDA:2,_ZNSt6vectorIN5sqlcc10sql_parser16ColumnDefinitionESaIS2_EE4backEv
FNDA:13,_ZNSt6vectorISt10unique_ptrIN5sqlcc10sql_parser9StatementESt14default_deleteIS3_EESaIS6_EE4backEv
FNDA:12,_ZNSt6vectorIcSaIcEE4dataEv
FNDA:161,_ZNSt6vectorIhSaIhEE4dataEv
FNDA:53,_ZNKSt6vectorIhSaIhEE4dataEv
FNDA:10,_ZNSt6vectorINSt7__cxx1112basic_stringIcSt11char_traitsIcESaIcEEESaIS5_EE9push_backERKS5_
FNDA:0,_ZNSt6vectorIS_INSt7__cxx1112basic_stringIcSt11char_traitsIcESaIcEEESaIS5_EESaIS7_EE9push_backERKS7_
FNDA:0,_ZNSt6vectorIN5sqlcc10sql_parser15TableConstraintESaIS2_EE9push_backEOS2_
FNDA:2,_ZNSt6vectorIN5sqlcc10sql_parser16ColumnDefinitionESaIS2_EE9push_backEOS2_
FNDA:13,_ZNSt6vectorISt10unique_ptrIN5sqlcc10sql_parser9StatementESt14default_deleteIS3_EESaIS6_EE9push_backEOS6_
FNDA:2,_ZNSt12_Vector_baseIN5sqlcc10sql_parser15TableConstraintESaIS2_EE12_Vector_implC2Ev
FNDA:2,_ZNSt12_Vector_baseIN5sqlcc10sql_parser16ColumnDefinitionESaIS2_EE12_Vector_implC2Ev
FNDA:6,_ZNSt12_Vector_baseINSt7__cxx1112basic_stringIcSt11char_traitsIcESaIcEEESaIS5_EE12_Vector_implC2Ev
FNDA:13,_ZNSt12_Vector_baseISt10unique_ptrIN5sqlcc10sql_parser9StatementESt14default_deleteIS3_EESaIS6_EE12_Vector_implC2Ev
FNDA:0,_ZNSt12_Vector_baseISt6vectorINSt7__cxx1112basic_stringIcSt11char_traitsIcESaIcEEESaIS6_EESaIS8_EE12_Vector_implC2Ev
FNDA:1,_ZNSt12_Vector_baseINSt7__cxx1112basic_stringIcSt11char_traitsIcESaIcEEESaIS5_EE12_Vector_implC2ERKS6_
FNDA:7,_ZNSt12_Vector_baseIcSaIcEE12_Vector_implC2ERKS0_
FNDA:169,_ZNSt12_Vector_baseIhSaIhEE12_Vector_implC2ERKS0_
FNDA:1,_ZNSt6vectorIhSaIhEE6insertIN9__gnu_cxx17__normal_iteratorIPhS1_EEvEES6_NS4_IPKhS1_EET_SA_
FNDA:0,_ZNSt12_Vector_baseINSt7__cxx1112basic_stringIcSt11char_traitsIcESaIcEEESaIS5_EE12_Vector_implC2EOS8_
FNDA:0,_ZNSt6vectorINSt7__cxx1112basic_stringIcSt11char_traitsIcESaIcEEESaIS5_EE5clearEv
FNDA:1,_ZNSt6vectorINSt7__cxx1112basic_stringIcSt11char_traitsIcESaIcEEESaIS5_EE19_M_range_initializeIPKPKcEEvT_SD_St20forward_iterator_tag
FNDA:1,_ZNSt6vectorIcSaIcEE19_M_range_initializeIN9__gnu_cxx17__normal_iteratorIPcNSt7__cxx1112basic_stringIcSt11char_traitsIcES0_EEEEEEvT_SC_St20forward_iterator_tag
FNDA:4,_ZNSt6vectorIhSaIhEE19_M_range_initializeIN9__gnu_cxx17__normal_iteratorIPKcNSt7__cxx1112basic_stringIcSt11char_traitsIcESaIcEEEEEEEvT_SE_St20forward_iterator_tag
FNDA:11,_ZNSt6vectorIhSaIhEE19_M_range_initializeIN9__gnu_cxx17__normal_iteratorIPcNSt7__cxx1112basic_stringIcSt11char_traitsIcESaIcEEEEEEEvT_SD_St20forward_iterator_tag
FNDA:5,_ZNSt6vectorIhSaIhEE19_M_range_initializeIN9__gnu_cxx17__normal_iteratorIPhS1_EEEEvT_S7_St20forward_iterator_tag
FNDA:6,_ZNSt6vectorIhSaIhEE19_M_range_initializeIPKhEEvT_S5_St20forward_iterator_tag
FNDA:1,_ZNSt6vectorIhSaIhEE18_M_fill_initializeEmRKh
FNDA:4,_ZNSt6vectorIcSaIcEE21_M_default_initializeEm
FNDA:90,_ZNSt6vectorIhSaIhEE21_M_default_initializeEm
FNDA:0,_ZNKSt6vectorIN5sqlcc10sql_parser15TableConstraintESaIS2_EE12_M_check_lenEmPKc
FNDA:2,_ZNKSt6vectorIN5sqlcc10sql_parser16ColumnDefinitionESaIS2_EE12_M_check_lenEmPKc
FNDA:10,_ZNKSt6vectorINSt7__cxx1112basic_stringIcSt11char_traitsIcESaIcEEESaIS5_EE12_M_check_lenEmPKc
FNDA:0,_ZNKSt6vectorIS_INSt7__cxx1112basic_stringIcSt11char_traitsIcESaIcEEESaIS5_EESaIS7_EE12_M_check_lenEmPKc
FNDA:13,_ZNKSt6vectorISt10unique_ptrIN5sqlcc10sql_parser9StatementESt14default_deleteIS3_EESaIS6_EE12_M_check_lenEmPKc
FNDA:1,_ZNKSt6vectorIhSaIhEE12_M_check_lenEmPKc
FNDA:1,_ZNSt6vectorINSt7__cxx1112basic_stringIcSt11char_traitsIcESaIcEEESaIS5_EE17_S_check_init_lenEmRKS6_
FNDA:5,_ZNSt6vectorIcSaIcEE17_S_check_init_lenEmRKS0_
FNDA:117,_ZNSt6vectorIhSaIhEE17_S_check_init_lenEmRKS0_
FNDA:0,_ZNSt6vectorIN5sqlcc10sql_parser15TableConstraintESaIS2_EE11_S_max_sizeERKS3_
FNDA:4,_ZNSt6vectorIN5sqlcc10sql_parser16ColumnDefinitionESaIS2_EE11_S_max_sizeERKS3_
FNDA:21,_ZNSt6vectorINSt7__cxx1112basic_stringIcSt11char_traitsIcESaIcEEESaIS5_EE11_S_max_sizeERKS6_
FNDA:0,_ZNSt6vectorIS_INSt7__cxx1112basic_stringIcSt11char_traitsIcESaIcEEESaIS5_EESaIS7_EE11_S_max_sizeERKS8_
FNDA:26,_ZNSt6vectorISt10unique_ptrIN5sqlcc10sql_parser9StatementESt14default_deleteIS3_EESaIS6_EE11_S_max_sizeERKS7_
FNDA:5,_ZNSt6vectorIcSaIcEE11_S_max_sizeERKS0_
FNDA:119,_ZNSt6vectorIhSaIhEE11_S_max_sizeERKS0_
FNDA:0,_ZNSt6vectorINSt7__cxx1112basic_stringIcSt11char_traitsIcESaIcEEESaIS5_EE15_M_erase_at_endEPS5_
FNDA:33,_ZNSt6vectorIhSaIhEE15_M_erase_at_endEPh
FNDA:12,_ZNKSt6vectorIcSaIcEE11_M_data_ptrIcEEPT_S4_
FNDA:214,_ZNKSt6vectorIhSaIhEE11_M_data_ptrIhEEPT_S4_
FNDA:2,_ZSteqIcSaIcEEbRKSt6vectorIT_T0_ES6_
FNDA:15,_ZSteqIhSaIhEEbRKSt6vectorIT_T0_ES6_
FNDA:1,_ZStneIcSaIcEEbRKSt6vectorIT_T0_ES6_
FNDA:6,_ZStneIhSaIhEEbRKSt6vectorIT_T0_ES6_
FNDA:2,_ZNSt12_Vector_baseIN5sqlcc10sql_parser15TableConstraintESaIS2_EE19_M_get_Tp_allocatorEv
FNDA:8,_ZNSt12_Vector_baseIN5sqlcc10sql_parser16ColumnDefinitionESaIS2_EE19_M_get_Tp_allocatorEv
FNDA:65,_ZNSt12_Vector_baseINSt7__cxx1112basic_stringIcSt11char_traitsIcESaIcEEESaIS5_EE19_M_get_Tp_allocatorEv
FNDA:39,_ZNSt12_Vector_baseISt10unique_ptrIN5sqlcc10sql_parser9StatementESt14default_deleteIS3_EESaIS6_EE19_M_get_Tp_allocatorEv
FNDA:0,_ZNSt12_Vector_baseISt6vectorINSt7__cxx1112basic_stringIcSt11char_traitsIcESaIcEEESaIS6_EESaIS8_EE19_M_get_Tp_allocatorEv
FNDA:15,_ZNSt12_Vector_baseIcSaIcEE19_M_get_Tp_allocatorEv
FNDA:401,_ZNSt12_Vector_baseIhSaIhEE19_M_get_Tp_allocatorEv
FNDA:0,_ZNKSt12_Vector_baseIN5sqlcc10sql_parser15TableConstraintESaIS2_EE19_M_get_Tp_allocatorEv
FNDA:4,_ZNKSt12_Vector_baseIN5sqlcc10sql_parser16ColumnDefinitionESaIS2_EE19_M_get_Tp_allocatorEv
FNDA:20,_ZNKSt12_Vector_baseINSt7__cxx1112basic_stringIcSt11char_traitsIcESaIcEEESaIS5_EE19_M_get_Tp_allocatorEv
FNDA:26,_ZNKSt12_Vector_baseISt10unique_ptrIN5sqlcc10sql_parser9StatementESt14default_deleteIS3_EESaIS6_EE19_M_get_Tp_allocatorEv
FNDA:0,_ZNKSt12_Vector_baseISt6vectorINSt7__cxx1112basic_stringIcSt11char_traitsIcESaIcEEESaIS6_EESaIS8_EE19_M_get_Tp_allocatorEv
FNDA:2,_ZNKSt12_Vector_baseIcSaIcEE19_M_get_Tp_allocatorEv
FNDA:54,_ZNKSt12_Vector_baseIhSaIhEE19_M_get_Tp_allocatorEv
FNDA:2,_ZNSt12_Vector_baseIN5sqlcc10sql_parser15TableConstraintESaIS2_EEC2Ev
FNDA:2,_ZNSt12_Vector_baseIN5sqlcc10sql_parser16ColumnDefinitionESaIS2_EEC2Ev
FNDA:6,_ZNSt12_Vector_baseINSt7__cxx1112basic_stringIcSt11char_traitsIcESaIcEEESaIS5_EEC2Ev
FNDA:13,_ZNSt12_Vector_baseISt10unique_ptrIN5sqlcc10sql_parser9StatementESt14default_deleteIS3_EESaIS6_EEC2Ev
FNDA:0,_ZNSt12_Vector_baseISt6vectorINSt7__cxx1112basic_stringIcSt11char_traitsIcESaIcEEESaIS6_EESaIS8_EEC2Ev
FNDA:1,_ZNSt12_Vector_baseINSt7__cxx1112basic_stringIcSt11char_traitsIcESaIcEEESaIS5_EEC2ERKS6_
FNDA:1,_ZNSt12_Vector_baseIcSaIcEEC2ERKS0_
FNDA:26,_ZNSt12_Vector_baseIhSaIhEEC2ERKS0_
FNDA:0,_ZNSt12_Vector_baseINSt7__cxx1112basic_stringIcSt11char_traitsIcESaIcEEESaIS5_EEC2EmRKS6_
FNDA:6,_ZNSt12_Vector_baseIcSaIcEEC2EmRKS0_
FNDA:143,_ZNSt12_Vector_baseIhSaIhEEC2EmRKS0_
FNDA:0,_ZNSt12_Vector_baseINSt7__cxx1112basic_stringIcSt11char_traitsIcESaIcEEESaIS5_EEC2EOS7_
FNDA:2,_ZNSt12_Vector_baseIN5sqlcc10sql_parser15TableConstraintESaIS2_EED2Ev
FNDA:2,_ZNSt12_Vector_baseIN5sqlcc10sql_parser16ColumnDefinitionESaIS2_EED2Ev
FNDA:43,_ZNSt12_Vector_baseINSt7__cxx1112basic_stringIcSt11char_traitsIcESaIcEEESaIS5_EED2Ev
FNDA:13,_ZNSt12_Vector_baseISt10unique_ptrIN5sqlcc10sql_parser9StatementESt14default_deleteIS3_EESaIS6_EED2Ev
FNDA:0,_ZNSt12_Vector_baseISt6vectorINSt7__cxx1112basic_stringIcSt11char_traitsIcESaIcEEESaIS6_EESaIS8_EED2Ev
FNDA:7,_ZNSt12_Vector_baseIcSaIcEED2Ev
FNDA:169,_ZNSt12_Vector_baseIhSaIhEED2Ev
FNDA:0,_ZNSt12_Vector_baseIN5sqlcc10sql_parser15TableConstraintESaIS2_EE11_M_allocateEm
FNDA:2,_ZNSt12_Vector_baseIN5sqlcc10sql_parser16ColumnDefinitionESaIS2_EE11_M_allocateEm
FNDA:11,_ZNSt12_Vector_baseINSt7__cxx1112basic_stringIcSt11char_traitsIcESaIcEEESaIS5_EE11_M_allocateEm
FNDA:13,_ZNSt12_Vector_baseISt10unique_ptrIN5sqlcc10sql_parser9StatementESt14default_deleteIS3_EESaIS6_EE11_M_allocateEm
FNDA:0,_ZNSt12_Vector_baseISt6vectorINSt7__cxx1112basic_stringIcSt11char_traitsIcESaIcEEESaIS6_EESaIS8_EE11_M_allocateEm
FNDA:7,_ZNSt12_Vector_baseIcSaIcEE11_M_allocateEm
FNDA:170,_ZNSt12_Vector_baseIhSaIhEE11_M_allocateEm
FNDA:2,_ZNSt12_Vector_baseIN5sqlcc10sql_parser15TableConstraintESaIS2_EE13_M_deallocateEPS2_m
FNDA:4,_ZNSt12_Vector_baseIN5sqlcc10sql_parser16ColumnDefinitionESaIS2_EE13_M_deallocateEPS2_m
FNDA:53,_ZNSt12_Vector_baseINSt7__cxx1112basic_stringIcSt11char_traitsIcESaIcEEESaIS5_EE13_M_deallocateEPS5_m
FNDA:26,_ZNSt12_Vector_baseISt10unique_ptrIN5sqlcc10sql_parser9StatementESt14default_deleteIS3_EESaIS6_EE13_M_deallocateEPS6_m
FNDA:0,_ZNSt12_Vector_baseISt6vectorINSt7__cxx1112basic_stringIcSt11char_traitsIcESaIcEEESaIS6_EESaIS8_EE13_M_deallocateEPS8_m
FNDA:7,_ZNSt12_Vector_baseIcSaIcEE13_M_deallocateEPcm
FNDA:170,_ZNSt12_Vector_baseIhSaIhEE13_M_deallocateEPhm
FNDA:0,_ZNSt12_Vector_baseINSt7__cxx1112basic_stringIcSt11char_traitsIcESaIcEEESaIS5_EE17_M_create_storageEm
FNDA:6,_ZNSt12_Vector_baseIcSaIcEE17_M_create_storageEm
FNDA:143,_ZNSt12_Vector_baseIhSaIhEE17_M_create_storageEm
FNDA:20,_ZNSt6vectorINSt7__cxx1112basic_stringIcSt11char_traitsIcESaIcEEESaIS5_EE11_S_relocateEPS5_S8_S8_RS6_
FNDA:0,_ZNSt6vectorIS_INSt7__cxx1112basic_stringIcSt11char_traitsIcESaIcEEESaIS5_EESaIS7_EE11_S_relocateEPS7_SA_SA_RS8_
FNDA:26,_ZNSt6vectorISt10unique_ptrIN5sqlcc10sql_parser9StatementESt14default_deleteIS3_EESaIS6_EE11_S_relocateEPS6_S9_S9_RS7_
FNDA:0,_ZNSt6vectorIhSaIhEE11_S_relocateEPhS2_S2_RS0_
FNDA:2,_ZNSt6vectorIN5sqlcc10sql_parser15TableConstraintESaIS2_EEC2Ev
FNDA:2,_ZNSt6vectorIN5sqlcc10sql_parser16ColumnDefinitionESaIS2_EEC2Ev
FNDA:6,_ZNSt6vectorINSt7__cxx1112basic_stringIcSt11char_traitsIcESaIcEEESaIS5_EEC2Ev
FNDA:0,_ZNSt6vectorIS_INSt7__cxx1112basic_stringIcSt11char_traitsIcESaIcEEESaIS5_EESaIS7_EEC2Ev
FNDA:13,_ZNSt6vectorISt10unique_ptrIN5sqlcc10sql_parser9StatementESt14default_deleteIS3_EESaIS6_EEC2Ev
FNDA:4,_ZNSt6vectorIcSaIcEEC2EmRKS0_
FNDA:90,_ZNSt6vectorIhSaIhEEC2EmRKS0_
FNDA:1,_ZNSt6vectorIhSaIhEEC2EmRKhRKS0_
FNDA:0,_ZNSt6vectorINSt7__cxx1112basic_stringIcSt11char_traitsIcESaIcEEESaIS5_EEC2ERKS7_
FNDA:2,_ZNSt6vectorIcSaIcEEC2ERKS1_
FNDA:52,_ZNSt6vectorIhSaIhEEC2ERKS1_
FNDA:0,_ZNSt6vectorINSt7__cxx1112basic_stringIcSt11char_traitsIcESaIcEEESaIS5_EEC2EOS7_
FNDA:6,_ZNSt6vectorIhSaIhEEC2ESt16initializer_listIhERKS0_
FNDA:1,_ZNSt6vectorINSt7__cxx1112basic_stringIcSt11char_traitsIcESaIcEEESaIS5_EEC2IPKPKcvEET_SD_RKS6_
FNDA:1,_ZNSt6vectorIcSaIcEEC2IN9__gnu_cxx17__normal_iteratorIPcNSt7__cxx1112basic_stringIcSt11char_traitsIcES0_EEEEvEET_SC_RKS0_
FNDA:4,_ZNSt6vectorIhSaIhEEC2IN9__gnu_cxx17__normal_iteratorIPKcNSt7__cxx1112basic_stringIcSt11char_traitsIcESaIcEEEEEvEET_SE_RKS0_
FNDA:11,_ZNSt6vectorIhSaIhEEC2IN9__gnu_cxx17__normal_iteratorIPcNSt7__cxx1112basic_stringIcSt11char_traitsIcESaIcEEEEEvEET_SD_RKS0_
FNDA:5,_ZNSt6vectorIhSaIhEEC2IN9__gnu_cxx17__normal_iteratorIPhS1_EEvEET_S7_RKS0_
FNDA:2,_ZNSt6vectorIN5sqlcc10sql_parser15TableConstraintESaIS2_EED2Ev
FNDA:2,_ZNSt6vectorIN5sqlcc10sql_parser16ColumnDefinitionESaIS2_EED2Ev
FNDA:43,_ZNSt6vectorINSt7__cxx1112basic_stringIcSt11char_traitsIcESaIcEEESaIS5_EED2Ev
FNDA:0,_ZNSt6vectorIS_INSt7__cxx1112basic_stringIcSt11char_traitsIcESaIcEEESaIS5_EESaIS7_EED2Ev
FNDA:13,_ZNSt6vectorISt10unique_ptrIN5sqlcc10sql_parser9StatementESt14default_deleteIS3_EESaIS6_EED2Ev
FNDA:7,_ZNSt6vectorIcSaIcEED2Ev
FNDA:169,_ZNSt6vectorIhSaIhEED2Ev
FNDA:0,_ZNSt6vectorIN5sqlcc10sql_parser15TableConstraintESaIS2_EE5beginEv
FNDA:2,_ZNSt6vectorIN5sqlcc10sql_parser16ColumnDefinitionESaIS2_EE5beginEv
FNDA:11,_ZNSt6vectorINSt7__cxx1112basic_stringIcSt11char_traitsIcESaIcEEESaIS5_EE5beginEv
FNDA:0,_ZNSt6vectorIS_INSt7__cxx1112basic_stringIcSt11char_traitsIcESaIcEEESaIS5_EESaIS7_EE5beginEv
FNDA:13,_ZNSt6vectorISt10unique_ptrIN5sqlcc10sql_parser9StatementESt14default_deleteIS3_EESaIS6_EE5beginEv
FNDA:14,_ZNSt6vectorIhSaIhEE5beginEv
FNDA:0,_ZNKSt6vectorINSt7__cxx1112basic_stringIcSt11char_traitsIcESaIcEEESaIS5_EE5beginEv
FNDA:0,_ZNKSt6vectorISt10unique_ptrIN5sqlcc10sql_parser10ExpressionESt14default_deleteIS3_EESaIS6_EE5beginEv
FNDA:3,_ZNKSt6vectorISt10unique_ptrIN5sqlcc10sql_parser9StatementESt14default_deleteIS3_EESaIS6_EE5beginEv
FNDA:7,_ZNKSt6vectorIcSaIcEE5beginEv
FNDA:87,_ZNKSt6vectorIhSaIhEE5beginEv
FNDA:0,_ZNSt6vectorIN5sqlcc10sql_parser15TableConstraintESaIS2_EE3endEv
FNDA:4,_ZNSt6vectorIN5sqlcc10sql_parser16ColumnDefinitionESaIS2_EE3endEv
FNDA:11,_ZNSt6vectorINSt7__cxx1112basic_stringIcSt11char_traitsIcESaIcEEESaIS5_EE3endEv
FNDA:0,_ZNSt6vectorIS_INSt7__cxx1112basic_stringIcSt11char_traitsIcESaIcEEESaIS5_EESaIS7_EE3endEv
FNDA:26,_ZNSt6vectorISt10unique_ptrIN5sqlcc10sql_parser9StatementESt14default_deleteIS3_EESaIS6_EE3endEv
FNDA:11,_ZNSt6vectorIhSaIhEE3endEv
FNDA:0,_ZNKSt6vectorINSt7__cxx1112basic_stringIcSt11char_traitsIcESaIcEEESaIS5_EE3endEv
FNDA:0,_ZNKSt6vectorISt10unique_ptrIN5sqlcc10sql_parser10ExpressionESt14default_deleteIS3_EESaIS6_EE3endEv
FNDA:3,_ZNKSt6vectorISt10unique_ptrIN5sqlcc10sql_parser9StatementESt14default_deleteIS3_EESaIS6_EE3endEv
FNDA:5,_ZNKSt6vectorIcSaIcEE3endEv
FNDA:73,_ZNKSt6vectorIhSaIhEE3endEv
FNDA:1,_ZNKSt6vectorIhSaIhEE6cbeginEv
FNDA:2,_ZNSt12_Vector_baseIN5sqlcc10sql_parser15TableConstraintESaIS2_EE17_Vector_impl_dataC2Ev
FNDA:2,_ZNSt12_Vector_baseIN5sqlcc10sql_parser16ColumnDefinitionESaIS2_EE17_Vector_impl_dataC2Ev
FNDA:7,_ZNSt12_Vector_baseINSt7__cxx1112basic_stringIcSt11char_traitsIcESaIcEEESaIS5_EE17_Vector_impl_dataC2Ev
FNDA:13,_ZNSt12_Vector_baseISt10unique_ptrIN5sqlcc10sql_parser9StatementESt14default_deleteIS3_EESaIS6_EE17_Vector_impl_dataC2Ev
FNDA:0,_ZNSt12_Vector_baseISt6vectorINSt7__cxx1112basic_stringIcSt11char_traitsIcESaIcEEESaIS6_EESaIS8_EE17_Vector_impl_dataC2Ev
FNDA:7,_ZNSt12_Vector_baseIcSaIcEE17_Vector_impl_dataC2Ev
FNDA:169,_ZNSt12_Vector_baseIhSaIhEE17_Vector_impl_dataC2Ev
FNDA:0,_ZNKSt6vectorIN5sqlcc10sql_parser15TableConstraintESaIS2_EE4sizeEv
FNDA:9,_ZNKSt6vectorIN5sqlcc10sql_parser16ColumnDefinitionESaIS2_EE4sizeEv
FNDA:46,_ZNKSt6vectorINSt7__cxx1112basic_stringIcSt11char_traitsIcESaIcEEESaIS5_EE4sizeEv
FNDA:0,_ZNKSt6vectorIS_INSt7__cxx1112basic_stringIcSt11char_traitsIcESaIcEEESaIS5_EESaIS7_EE4sizeEv
FNDA:62,_ZNKSt6vectorISt10unique_ptrIN5sqlcc10sql_parser9StatementESt14default_deleteIS3_EESaIS6_EE4sizeEv
FNDA:38,_ZNKSt6vectorIcSaIcEE4sizeEv
FNDA:102832,_ZNKSt6vectorIhSaIhEE4sizeEv
FNDA:0,_ZNKSt6vectorIN5sqlcc10sql_parser15TableConstraintESaIS2_EE8max_sizeEv
FNDA:4,_ZNKSt6vectorIN5sqlcc10sql_parser16ColumnDefinitionESaIS2_EE8max_sizeEv
FNDA:20,_ZNKSt6vectorINSt7__cxx1112basic_stringIcSt11char_traitsIcESaIcEEESaIS5_EE8max_sizeEv
FNDA:0,_ZNKSt6vectorIS_INSt7__cxx1112basic_stringIcSt11char_traitsIcESaIcEEESaIS5_EESaIS7_EE8max_sizeEv
FNDA:26,_ZNKSt6vectorISt10unique_ptrIN5sqlcc10sql_parser9StatementESt14default_deleteIS3_EESaIS6_EE8max_sizeEv
FNDA:2,_ZNKSt6vectorIhSaIhEE8max_sizeEv
FNF:189
FNH:146
DA:99,200
DA:100,200
DA:101,200
DA:105,0
DA:106,0
DA:107,0
DA:108,0
DA:137,23
DA:142,23
DA:143,23
DA:146,177
DA:147,177
DA:148,177
DA:154,0
DA:155,0
DA:156,0
DA:301,530
DA:302,530
DA:306,106
DA:307,106
DA:315,23
DA:321,28
DA:322,28
DA:333,149
DA:334,149
DA:335,149
DA:338,0
DA:367,236
DA:369,236
DA:370,236
DA:371,236
DA:378,203
DA:381,406
DA:386,262
DA:389,262
DA:390,233
DA:391,262
DA:396,149
DA:398,149
DA:399,149
DA:400,149
DA:401,149
DA:504,46
DA:509,46
DA:531,23
DA:556,94
DA:557,94
DA:558,94
DA:569,1
DA:571,1
DA:572,1
DA:601,54
DA:603,108
DA:605,54
DA:606,54
DA:608,54
DA:609,54
DA:620,0
DA:678,6
DA:680,6
DA:682,6
DA:683,6
DA:684,6
DA:707,22
DA:709,22
DA:711,22
DA:712,22
DA:713,22
DA:733,236
DA:735,236
DA:736,236
DA:738,236
DA:873,40
DA:874,40
DA:883,97
DA:884,97
DA:893,52
DA:894,52
DA:903,81
DA:904,81
DA:954,1
DA:955,1
DA:992,102987
DA:993,102987
DA:998,52
DA:999,52
DA:1013,33
DA:1015,33
DA:1016,0
DA:1017,33
DA:1018,33
DA:1019,33
DA:1088,11
DA:1089,11
DA:1126,102569
DA:1129,102569
DA:1145,164
DA:1148,164
DA:1233,15
DA:1236,15
DA:1260,173
DA:1261,173
DA:1265,53
DA:1266,53
DA:1281,10
DA:1283,10
DA:1286,0
DA:1288,0
DA:1292,10
DA:1293,10
DA:1298,15
DA:1299,15
DA:1482,1
DA:1485,1
DA:1486,1
DA:1487,1
DA:1488,1
DA:1605,0
DA:1606,0
DA:1687,28
DA:1690,28
DA:1692,28
DA:1693,28
DA:1694,28
DA:1695,28
DA:1697,28
DA:1698,28
DA:1704,1
DA:1706,1
DA:1707,1
DA:1708,1
DA:1709,1
DA:1715,94
DA:1717,94
DA:1718,94
DA:1719,94
DA:1720,94
DA:1896,26
DA:1898,26
DA:1899,0
DA:1901,26
DA:1902,26
DA:1907,123
DA:1909,123
DA:1910,0
DA:1912,123
DA:1916,175
DA:1921,175
DA:1923,175
DA:1924,175
DA:1933,33
DA:1935,33
DA:1937,33
DA:1938,33
DA:1939,33
DA:1942,33
DA:1990,226
DA:1991,226
DA:2040,17
DA:2041,17
DA:2042,17
DA:2086,7
DA:2087,7
LF:163
LH:147
end_of_record
TN:
SF:/usr/include/c++/13/bits/this_thread_sleep.h
FN:68,85,_ZNSt11this_thread9sleep_forIlSt5ratioILl1ELl1EEEEvRKNSt6chrono8durationIT_T0_EE
FNDA:0,_ZNSt11this_thread9sleep_forIlSt5ratioILl1ELl1EEEEvRKNSt6chrono8durationIT_T0_EE
FNF:1
FNH:0
DA:68,0
DA:70,0
DA:71,0
DA:72,0
DA:73,0
DA:75,0
DA:77,0
DA:78,0
DA:80,0
LF:9
LH:0
end_of_record
TN:
SF:/usr/include/c++/13/bits/unique_ptr.h
FN:1069,1070,_ZSt11make_uniqueIN5sqlcc10sql_parser12UseStatementEJRNSt7__cxx1112basic_stringIcSt11char_traitsIcESaIcEEEEENSt8__detail9_MakeUniqIT_E15__single_objectEDpOT0_
FN:1069,1070,_ZSt11make_uniqueIN5sqlcc10sql_parser13DropStatementEJNS2_10ObjectTypeERNSt7__cxx1112basic_stringIcSt11char_traitsIcESaIcEEEEENSt8__detail9_MakeUniqIT_E15__single_objectEDpOT0_
FN:1069,1070,_ZSt11make_uniqueIN5sqlcc10sql_parser13ShowStatementEJNS2_8ShowTypeEEENSt8__detail9_MakeUniqIT_E15__single_objectEDpOT0_
FN:1069,1070,_ZSt11make_uniqueIN5sqlcc10sql_parser14AlterStatementEJNS2_10ObjectTypeERNSt7__cxx1112basic_stringIcSt11char_traitsIcESaIcEEEEENSt8__detail9_MakeUniqIT_E15__single_objectEDpOT0_
FN:1069,1070,_ZSt11make_uniqueIN5sqlcc10sql_parser14GrantStatementEJEENSt8__detail9_MakeUniqIT_E15__single_objectEDpOT0_
FN:1069,1070,_ZSt11make_uniqueIN5sqlcc10sql_parser15CreateStatementEJNS2_10ObjectTypeERNSt7__cxx1112basic_stringIcSt11char_traitsIcESaIcEEEEENSt8__detail9_MakeUniqIT_E15__single_objectEDpOT0_
FN:1069,1070,_ZSt11make_uniqueIN5sqlcc10sql_parser15DeleteStatementEJRNSt7__cxx1112basic_stringIcSt11char_traitsIcESaIcEEEEENSt8__detail9_MakeUniqIT_E15__single_objectEDpOT0_
FN:1069,1070,_ZSt11make_uniqueIN5sqlcc10sql_parser15InsertStatementEJRNSt7__cxx1112basic_stringIcSt11char_traitsIcESaIcEEEEENSt8__detail9_MakeUniqIT_E15__single_objectEDpOT0_
FN:1069,1070,_ZSt11make_uniqueIN5sqlcc10sql_parser15RevokeStatementEJEENSt8__detail9_MakeUniqIT_E15__single_objectEDpOT0_
FN:1069,1070,_ZSt11make_uniqueIN5sqlcc10sql_parser15SelectStatementEJEENSt8__detail9_MakeUniqIT_E15__single_objectEDpOT0_
FN:1069,1070,_ZSt11make_uniqueIN5sqlcc10sql_parser15UpdateStatementEJRNSt7__cxx1112basic_stringIcSt11char_traitsIcESaIcEEEEENSt8__detail9_MakeUniqIT_E15__single_objectEDpOT0_
FN:1069,1070,_ZSt11make_uniqueIN5sqlcc10sql_parser17DropUserStatementEJRNSt7__cxx1112basic_stringIcSt11char_traitsIcESaIcEEEEENSt8__detail9_MakeUniqIT_E15__single_objectEDpOT0_
FN:1069,1070,_ZSt11make_uniqueIN5sqlcc10sql_parser18DropIndexStatementEJRNSt7__cxx1112basic_stringIcSt11char_traitsIcESaIcEEEEENSt8__detail9_MakeUniqIT_E15__single_objectEDpOT0_
FN:1069,1070,_ZSt11make_uniqueIN5sqlcc10sql_parser19CreateUserStatementEJRNSt7__cxx1112basic_stringIcSt11char_traitsIcESaIcEEES9_EENSt8__detail9_MakeUniqIT_E15__single_objectEDpOT0_
FN:1069,1070,_ZSt11make_uniqueIN5sqlcc10sql_parser20CreateIndexStatementEJRNSt7__cxx1112basic_stringIcSt11char_traitsIcESaIcEEES9_S9_EENSt8__detail9_MakeUniqIT_E15__single_objectEDpOT0_
FN:1069,1070,_ZSt11make_uniqueINSt7__cxx1112basic_stringIcSt11char_traitsIcESaIcEEEJEENSt8__detail9_MakeUniqIT_E15__single_objectEDpOT0_
FN:174,174,_ZNSt15__uniq_ptr_implIN5sqlcc10sql_parser12UseStatementESt14default_deleteIS2_EEC2Ev
FN:174,174,_ZNSt15__uniq_ptr_implIN5sqlcc10sql_parser13DropStatementESt14default_deleteIS2_EEC2Ev
FN:174,174,_ZNSt15__uniq_ptr_implIN5sqlcc10sql_parser14AlterStatementESt14default_deleteIS2_EEC2Ev
FN:174,174,_ZNSt15__uniq_ptr_implIN5sqlcc10sql_parser15CreateStatementESt14default_deleteIS2_EEC2Ev
FN:174,174,_ZNSt15__uniq_ptr_implIN5sqlcc10sql_parser15DeleteStatementESt14default_deleteIS2_EEC2Ev
FN:174,174,_ZNSt15__uniq_ptr_implIN5sqlcc10sql_parser15InsertStatementESt14default_deleteIS2_EEC2Ev
FN:174,174,_ZNSt15__uniq_ptr_implIN5sqlcc10sql_parser15UpdateStatementESt14default_deleteIS2_EEC2Ev
FN:174,174,_ZNSt15__uniq_ptr_implIN5sqlcc10sql_parser18DropIndexStatementESt14default_deleteIS2_EEC2Ev
FN:174,174,_ZNSt15__uniq_ptr_implIN5sqlcc10sql_parser20CreateIndexStatementESt14default_deleteIS2_EEC2Ev
FN:174,174,_ZNSt15__uniq_ptr_implIN5sqlcc10sql_parser9StatementESt14default_deleteIS2_EEC2Ev
FN:174,174,_ZNSt15__uniq_ptr_implINSt7__cxx1112basic_stringIcSt11char_traitsIcESaIcEEESt14default_deleteIS5_EEC2Ev
FN:176,176,_ZNSt15__uniq_ptr_implIN5sqlcc10sql_parser12UseStatementESt14default_deleteIS2_EEC2EPS2_
FN:176,176,_ZNSt15__uniq_ptr_implIN5sqlcc10sql_parser13DropStatementESt14default_deleteIS2_EEC2EPS2_
FN:176,176,_ZNSt15__uniq_ptr_implIN5sqlcc10sql_parser13ShowStatementESt14default_deleteIS2_EEC2EPS2_
FN:176,176,_ZNSt15__uniq_ptr_implIN5sqlcc10sql_parser14AlterStatementESt14default_deleteIS2_EEC2EPS2_
FN:176,176,_ZNSt15__uniq_ptr_implIN5sqlcc10sql_parser14GrantStatementESt14default_deleteIS2_EEC2EPS2_
FN:176,176,_ZNSt15__uniq_ptr_implIN5sqlcc10sql_parser15CreateStatementESt14default_deleteIS2_EEC2EPS2_
FN:176,176,_ZNSt15__uniq_ptr_implIN5sqlcc10sql_parser15DeleteStatementESt14default_deleteIS2_EEC2EPS2_
FN:176,176,_ZNSt15__uniq_ptr_implIN5sqlcc10sql_parser15InsertStatementESt14default_deleteIS2_EEC2EPS2_
FN:176,176,_ZNSt15__uniq_ptr_implIN5sqlcc10sql_parser15RevokeStatementESt14default_deleteIS2_EEC2EPS2_
FN:176,176,_ZNSt15__uniq_ptr_implIN5sqlcc10sql_parser15SelectStatementESt14default_deleteIS2_EEC2EPS2_
FN:176,176,_ZNSt15__uniq_ptr_implIN5sqlcc10sql_parser15UpdateStatementESt14default_deleteIS2_EEC2EPS2_
FN:176,176,_ZNSt15__uniq_ptr_implIN5sqlcc10sql_parser17DropUserStatementESt14default_deleteIS2_EEC2EPS2_
FN:176,176,_ZNSt15__uniq_ptr_implIN5sqlcc10sql_parser18DropIndexStatementESt14default_deleteIS2_EEC2EPS2_
FN:176,176,_ZNSt15__uniq_ptr_implIN5sqlcc10sql_parser19CreateUserStatementESt14default_deleteIS2_EEC2EPS2_
FN:176,176,_ZNSt15__uniq_ptr_implIN5sqlcc10sql_parser20CreateIndexStatementESt14default_deleteIS2_EEC2EPS2_
FN:176,176,_ZNSt15__uniq_ptr_implIN5sqlcc10sql_parser9StatementESt14default_deleteIS2_EEC2EPS2_
FN:176,176,_ZNSt15__uniq_ptr_implINSt7__cxx1112basic_stringIcSt11char_traitsIcESaIcEEESt14default_deleteIS5_EEC2EPS5_
FN:180,181,_ZNSt15__uniq_ptr_implIN5sqlcc10sql_parser9StatementESt14default_deleteIS2_EEC2IS3_INS1_12UseStatementEEEEPS2_OT_
FN:180,181,_ZNSt15__uniq_ptr_implIN5sqlcc10sql_parser9StatementESt14default_deleteIS2_EEC2IS3_INS1_13ShowStatementEEEEPS2_OT_
FN:180,181,_ZNSt15__uniq_ptr_implIN5sqlcc10sql_parser9StatementESt14default_deleteIS2_EEC2IS3_INS1_14AlterStatementEEEEPS2_OT_
FN:180,181,_ZNSt15__uniq_ptr_implIN5sqlcc10sql_parser9StatementESt14default_deleteIS2_EEC2IS3_INS1_14GrantStatementEEEEPS2_OT_
FN:180,181,_ZNSt15__uniq_ptr_implIN5sqlcc10sql_parser9StatementESt14default_deleteIS2_EEC2IS3_INS1_15DeleteStatementEEEEPS2_OT_
FN:180,181,_ZNSt15__uniq_ptr_implIN5sqlcc10sql_parser9StatementESt14default_deleteIS2_EEC2IS3_INS1_15InsertStatementEEEEPS2_OT_
FN:180,181,_ZNSt15__uniq_ptr_implIN5sqlcc10sql_parser9StatementESt14default_deleteIS2_EEC2IS3_INS1_15RevokeStatementEEEEPS2_OT_
FN:180,181,_ZNSt15__uniq_ptr_implIN5sqlcc10sql_parser9StatementESt14default_deleteIS2_EEC2IS3_INS1_15SelectStatementEEEEPS2_OT_
FN:180,181,_ZNSt15__uniq_ptr_implIN5sqlcc10sql_parser9StatementESt14default_deleteIS2_EEC2IS3_INS1_15UpdateStatementEEEEPS2_OT_
FN:180,181,_ZNSt15__uniq_ptr_implIN5sqlcc10sql_parser9StatementESt14default_deleteIS2_EEC2IS3_INS1_17DropUserStatementEEEEPS2_OT_
FN:180,181,_ZNSt15__uniq_ptr_implIN5sqlcc10sql_parser9StatementESt14default_deleteIS2_EEC2IS3_INS1_19CreateUserStatementEEEEPS2_OT_
FN:184,186,_ZNSt15__uniq_ptr_implIN5sqlcc10sql_parser12UseStatementESt14default_deleteIS2_EEC2EOS5_
FN:184,186,_ZNSt15__uniq_ptr_implIN5sqlcc10sql_parser13DropStatementESt14default_deleteIS2_EEC2EOS5_
FN:184,186,_ZNSt15__uniq_ptr_implIN5sqlcc10sql_parser14AlterStatementESt14default_deleteIS2_EEC2EOS5_
FN:184,186,_ZNSt15__uniq_ptr_implIN5sqlcc10sql_parser15CreateStatementESt14default_deleteIS2_EEC2EOS5_
FN:184,186,_ZNSt15__uniq_ptr_implIN5sqlcc10sql_parser15DeleteStatementESt14default_deleteIS2_EEC2EOS5_
FN:184,186,_ZNSt15__uniq_ptr_implIN5sqlcc10sql_parser15InsertStatementESt14default_deleteIS2_EEC2EOS5_
FN:184,186,_ZNSt15__uniq_ptr_implIN5sqlcc10sql_parser15UpdateStatementESt14default_deleteIS2_EEC2EOS5_
FN:184,186,_ZNSt15__uniq_ptr_implIN5sqlcc10sql_parser18DropIndexStatementESt14default_deleteIS2_EEC2EOS5_
FN:184,186,_ZNSt15__uniq_ptr_implIN5sqlcc10sql_parser20CreateIndexStatementESt14default_deleteIS2_EEC2EOS5_
FN:184,186,_ZNSt15__uniq_ptr_implIN5sqlcc10sql_parser9StatementESt14default_deleteIS2_EEC2EOS5_
FN:189,194,_ZNSt15__uniq_ptr_implINSt7__cxx1112basic_stringIcSt11char_traitsIcESaIcEEESt14default_deleteIS5_EEaSEOS8_
FN:197,197,_ZNSt15__uniq_ptr_implIN5sqlcc10sql_parser12UseStatementESt14default_deleteIS2_EE6_M_ptrEv
FN:197,197,_ZNSt15__uniq_ptr_implIN5sqlcc10sql_parser13DropStatementESt14default_deleteIS2_EE6_M_ptrEv
FN:197,197,_ZNSt15__uniq_ptr_implIN5sqlcc10sql_parser13ShowStatementESt14default_deleteIS2_EE6_M_ptrEv
FN:197,197,_ZNSt15__uniq_ptr_implIN5sqlcc10sql_parser14AlterStatementESt14default_deleteIS2_EE6_M_ptrEv
FN:197,197,_ZNSt15__uniq_ptr_implIN5sqlcc10sql_parser14GrantStatementESt14default_deleteIS2_EE6_M_ptrEv
FN:197,197,_ZNSt15__uniq_ptr_implIN5sqlcc10sql_parser15CreateStatementESt14default_deleteIS2_EE6_M_ptrEv
FN:197,197,_ZNSt15__uniq_ptr_implIN5sqlcc10sql_parser15DeleteStatementESt14default_deleteIS2_EE6_M_ptrEv
FN:197,197,_ZNSt15__uniq_ptr_implIN5sqlcc10sql_parser15InsertStatementESt14default_deleteIS2_EE6_M_ptrEv
FN:197,197,_ZNSt15__uniq_ptr_implIN5sqlcc10sql_parser15RevokeStatementESt14default_deleteIS2_EE6_M_ptrEv
FN:197,197,_ZNSt15__uniq_ptr_implIN5sqlcc10sql_parser15SelectStatementESt14default_deleteIS2_EE6_M_ptrEv
FN:197,197,_ZNSt15__uniq_ptr_implIN5sqlcc10sql_parser15UpdateStatementESt14default_deleteIS2_EE6_M_ptrEv
FN:197,197,_ZNSt15__uniq_ptr_implIN5sqlcc10sql_parser17DropUserStatementESt14default_deleteIS2_EE6_M_ptrEv
FN:197,197,_ZNSt15__uniq_ptr_implIN5sqlcc10sql_parser18DropIndexStatementESt14default_deleteIS2_EE6_M_ptrEv
FN:197,197,_ZNSt15__uniq_ptr_implIN5sqlcc10sql_parser19CreateUserStatementESt14default_deleteIS2_EE6_M_ptrEv
FN:197,197,_ZNSt15__uniq_ptr_implIN5sqlcc10sql_parser20CreateIndexStatementESt14default_deleteIS2_EE6_M_ptrEv
FN:197,197,_ZNSt15__uniq_ptr_implIN5sqlcc10sql_parser9StatementESt14default_deleteIS2_EE6_M_ptrEv
FN:197,197,_ZNSt15__uniq_ptr_implINSt7__cxx1112basic_stringIcSt11char_traitsIcESaIcEEESt14default_deleteIS5_EE6_M_ptrEv
FN:197,197,_ZNSt15__uniq_ptr_implINSt7__cxx1118basic_stringstreamIcSt11char_traitsIcESaIcEEESt14default_deleteIS5_EE6_M_ptrEv
FN:199,199,_ZNKSt15__uniq_ptr_implIN5sqlcc10sql_parser13ShowStatementESt14default_deleteIS2_EE6_M_ptrEv
FN:199,199,_ZNKSt15__uniq_ptr_implIN5sqlcc10sql_parser14GrantStatementESt14default_deleteIS2_EE6_M_ptrEv
FN:199,199,_ZNKSt15__uniq_ptr_implIN5sqlcc10sql_parser15CreateStatementESt14default_deleteIS2_EE6_M_ptrEv
FN:199,199,_ZNKSt15__uniq_ptr_implIN5sqlcc10sql_parser15DeleteStatementESt14default_deleteIS2_EE6_M_ptrEv
FN:199,199,_ZNKSt15__uniq_ptr_implIN5sqlcc10sql_parser15InsertStatementESt14default_deleteIS2_EE6_M_ptrEv
FN:199,199,_ZNKSt15__uniq_ptr_implIN5sqlcc10sql_parser15RevokeStatementESt14default_deleteIS2_EE6_M_ptrEv
FN:199,199,_ZNKSt15__uniq_ptr_implIN5sqlcc10sql_parser15SelectStatementESt14default_deleteIS2_EE6_M_ptrEv
FN:199,199,_ZNKSt15__uniq_ptr_implIN5sqlcc10sql_parser15UpdateStatementESt14default_deleteIS2_EE6_M_ptrEv
FN:199,199,_ZNKSt15__uniq_ptr_implIN5sqlcc10sql_parser17DropUserStatementESt14default_deleteIS2_EE6_M_ptrEv
FN:199,199,_ZNKSt15__uniq_ptr_implIN5sqlcc10sql_parser18DropIndexStatementESt14default_deleteIS2_EE6_M_ptrEv
FN:199,199,_ZNKSt15__uniq_ptr_implIN5sqlcc10sql_parser19CreateUserStatementESt14default_deleteIS2_EE6_M_ptrEv
FN:199,199,_ZNKSt15__uniq_ptr_implIN5sqlcc10sql_parser20CreateIndexStatementESt14default_deleteIS2_EE6_M_ptrEv
FN:199,199,_ZNKSt15__uniq_ptr_implIN5sqlcc10sql_parser9StatementESt14default_deleteIS2_EE6_M_ptrEv
FN:199,199,_ZNKSt15__uniq_ptr_implINSt7__cxx1112basic_stringIcSt11char_traitsIcESaIcEEESt14default_deleteIS5_EE6_M_ptrEv
FN:199,199,_ZNKSt15__uniq_ptr_implINSt7__cxx1118basic_stringstreamIcSt11char_traitsIcESaIcEEESt14default_deleteIS5_EE6_M_ptrEv
FN:201,201,_ZNSt15__uniq_ptr_implIN5sqlcc10sql_parser12UseStatementESt14default_deleteIS2_EE10_M_deleterEv
FN:201,201,_ZNSt15__uniq_ptr_implIN5sqlcc10sql_parser13DropStatementESt14default_deleteIS2_EE10_M_deleterEv
FN:201,201,_ZNSt15__uniq_ptr_implIN5sqlcc10sql_parser13ShowStatementESt14default_deleteIS2_EE10_M_deleterEv
FN:201,201,_ZNSt15__uniq_ptr_implIN5sqlcc10sql_parser14AlterStatementESt14default_deleteIS2_EE10_M_deleterEv
FN:201,201,_ZNSt15__uniq_ptr_implIN5sqlcc10sql_parser14GrantStatementESt14default_deleteIS2_EE10_M_deleterEv
FN:201,201,_ZNSt15__uniq_ptr_implIN5sqlcc10sql_parser15CreateStatementESt14default_deleteIS2_EE10_M_deleterEv
FN:201,201,_ZNSt15__uniq_ptr_implIN5sqlcc10sql_parser15DeleteStatementESt14default_deleteIS2_EE10_M_deleterEv
FN:201,201,_ZNSt15__uniq_ptr_implIN5sqlcc10sql_parser15InsertStatementESt14default_deleteIS2_EE10_M_deleterEv
FN:201,201,_ZNSt15__uniq_ptr_implIN5sqlcc10sql_parser15RevokeStatementESt14default_deleteIS2_EE10_M_deleterEv
FN:201,201,_ZNSt15__uniq_ptr_implIN5sqlcc10sql_parser15SelectStatementESt14default_deleteIS2_EE10_M_deleterEv
FN:201,201,_ZNSt15__uniq_ptr_implIN5sqlcc10sql_parser15UpdateStatementESt14default_deleteIS2_EE10_M_deleterEv
FN:201,201,_ZNSt15__uniq_ptr_implIN5sqlcc10sql_parser17DropUserStatementESt14default_deleteIS2_EE10_M_deleterEv
FN:201,201,_ZNSt15__uniq_ptr_implIN5sqlcc10sql_parser18DropIndexStatementESt14default_deleteIS2_EE10_M_deleterEv
FN:201,201,_ZNSt15__uniq_ptr_implIN5sqlcc10sql_parser19CreateUserStatementESt14default_deleteIS2_EE10_M_deleterEv
FN:201,201,_ZNSt15__uniq_ptr_implIN5sqlcc10sql_parser20CreateIndexStatementESt14default_deleteIS2_EE10_M_deleterEv
FN:201,201,_ZNSt15__uniq_ptr_implIN5sqlcc10sql_parser9StatementESt14default_deleteIS2_EE10_M_deleterEv
FN:201,201,_ZNSt15__uniq_ptr_implINSt7__cxx1112basic_stringIcSt11char_traitsIcESaIcEEESt14default_deleteIS5_EE10_M_deleterEv
FN:201,201,_ZNSt15__uniq_ptr_implINSt7__cxx1118basic_stringstreamIcSt11char_traitsIcESaIcEEESt14default_deleteIS5_EE10_M_deleterEv
FN:206,212,_ZNSt15__uniq_ptr_implINSt7__cxx1112basic_stringIcSt11char_traitsIcESaIcEEESt14default_deleteIS5_EE5resetEPS5_
FN:215,220,_ZNSt15__uniq_ptr_implIN5sqlcc10sql_parser12UseStatementESt14default_deleteIS2_EE7releaseEv
FN:215,220,_ZNSt15__uniq_ptr_implIN5sqlcc10sql_parser13DropStatementESt14default_deleteIS2_EE7releaseEv
FN:215,220,_ZNSt15__uniq_ptr_implIN5sqlcc10sql_parser13ShowStatementESt14default_deleteIS2_EE7releaseEv
FN:215,220,_ZNSt15__uniq_ptr_implIN5sqlcc10sql_parser14AlterStatementESt14default_deleteIS2_EE7releaseEv
FN:215,220,_ZNSt15__uniq_ptr_implIN5sqlcc10sql_parser14GrantStatementESt14default_deleteIS2_EE7releaseEv
FN:215,220,_ZNSt15__uniq_ptr_implIN5sqlcc10sql_parser15CreateStatementESt14default_deleteIS2_EE7releaseEv
FN:215,220,_ZNSt15__uniq_ptr_implIN5sqlcc10sql_parser15DeleteStatementESt14default_deleteIS2_EE7releaseEv
FN:215,220,_ZNSt15__uniq_ptr_implIN5sqlcc10sql_parser15InsertStatementESt14default_deleteIS2_EE7releaseEv
FN:215,220,_ZNSt15__uniq_ptr_implIN5sqlcc10sql_parser15RevokeStatementESt14default_deleteIS2_EE7releaseEv
FN:215,220,_ZNSt15__uniq_ptr_implIN5sqlcc10sql_parser15SelectStatementESt14default_deleteIS2_EE7releaseEv
FN:215,220,_ZNSt15__uniq_ptr_implIN5sqlcc10sql_parser15UpdateStatementESt14default_deleteIS2_EE7releaseEv
FN:215,220,_ZNSt15__uniq_ptr_implIN5sqlcc10sql_parser17DropUserStatementESt14default_deleteIS2_EE7releaseEv
FN:215,220,_ZNSt15__uniq_ptr_implIN5sqlcc10sql_parser18DropIndexStatementESt14default_deleteIS2_EE7releaseEv
FN:215,220,_ZNSt15__uniq_ptr_implIN5sqlcc10sql_parser19CreateUserStatementESt14default_deleteIS2_EE7releaseEv
FN:215,220,_ZNSt15__uniq_ptr_implIN5sqlcc10sql_parser20CreateIndexStatementESt14default_deleteIS2_EE7releaseEv
FN:215,220,_ZNSt15__uniq_ptr_implINSt7__cxx1112basic_stringIcSt11char_traitsIcESaIcEEESt14default_deleteIS5_EE7releaseEv
FN:242,242,_ZNSt15__uniq_ptr_dataIN5sqlcc10sql_parser12UseStatementESt14default_deleteIS2_ELb1ELb1EEC2EOS5_
FN:242,242,_ZNSt15__uniq_ptr_dataIN5sqlcc10sql_parser13DropStatementESt14default_deleteIS2_ELb1ELb1EEC2EOS5_
FN:242,242,_ZNSt15__uniq_ptr_dataIN5sqlcc10sql_parser14AlterStatementESt14default_deleteIS2_ELb1ELb1EEC2EOS5_
FN:242,242,_ZNSt15__uniq_ptr_dataIN5sqlcc10sql_parser15CreateStatementESt14default_deleteIS2_ELb1ELb1EEC2EOS5_
FN:242,242,_ZNSt15__uniq_ptr_dataIN5sqlcc10sql_parser15DeleteStatementESt14default_deleteIS2_ELb1ELb1EEC2EOS5_
FN:242,242,_ZNSt15__uniq_ptr_dataIN5sqlcc10sql_parser15InsertStatementESt14default_deleteIS2_ELb1ELb1EEC2EOS5_
FN:242,242,_ZNSt15__uniq_ptr_dataIN5sqlcc10sql_parser15UpdateStatementESt14default_deleteIS2_ELb1ELb1EEC2EOS5_
FN:242,242,_ZNSt15__uniq_ptr_dataIN5sqlcc10sql_parser18DropIndexStatementESt14default_deleteIS2_ELb1ELb1EEC2EOS5_
FN:242,242,_ZNSt15__uniq_ptr_dataIN5sqlcc10sql_parser20CreateIndexStatementESt14default_deleteIS2_ELb1ELb1EEC2EOS5_
FN:242,242,_ZNSt15__uniq_ptr_dataIN5sqlcc10sql_parser9StatementESt14default_deleteIS2_ELb1ELb1EEC2EOS5_
FN:243,243,_ZNSt15__uniq_ptr_dataINSt7__cxx1112basic_stringIcSt11char_traitsIcESaIcEEESt14default_deleteIS5_ELb1ELb1EEaSEOS8_
FN:304,306,_ZNSt10unique_ptrINSt7__cxx1112basic_stringIcSt11char_traitsIcESaIcEEESt14default_deleteIS5_EEC2IS7_vEEv
FN:317,319,_ZNSt10unique_ptrIN5sqlcc10sql_parser12UseStatementESt14default_deleteIS2_EEC2IS4_vEEPS2_
FN:317,319,_ZNSt10unique_ptrIN5sqlcc10sql_parser13DropStatementESt14default_deleteIS2_EEC2IS4_vEEPS2_
FN:317,319,_ZNSt10unique_ptrIN5sqlcc10sql_parser13ShowStatementESt14default_deleteIS2_EEC2IS4_vEEPS2_
FN:317,319,_ZNSt10unique_ptrIN5sqlcc10sql_parser14AlterStatementESt14default_deleteIS2_EEC2IS4_vEEPS2_
FN:317,319,_ZNSt10unique_ptrIN5sqlcc10sql_parser14GrantStatementESt14default_deleteIS2_EEC2IS4_vEEPS2_
FN:317,319,_ZNSt10unique_ptrIN5sqlcc10sql_parser15CreateStatementESt14default_deleteIS2_EEC2IS4_vEEPS2_
FN:317,319,_ZNSt10unique_ptrIN5sqlcc10sql_parser15DeleteStatementESt14default_deleteIS2_EEC2IS4_vEEPS2_
FN:317,319,_ZNSt10unique_ptrIN5sqlcc10sql_parser15InsertStatementESt14default_deleteIS2_EEC2IS4_vEEPS2_
FN:317,319,_ZNSt10unique_ptrIN5sqlcc10sql_parser15RevokeStatementESt14default_deleteIS2_EEC2IS4_vEEPS2_
FN:317,319,_ZNSt10unique_ptrIN5sqlcc10sql_parser15SelectStatementESt14default_deleteIS2_EEC2IS4_vEEPS2_
FN:317,319,_ZNSt10unique_ptrIN5sqlcc10sql_parser15UpdateStatementESt14default_deleteIS2_EEC2IS4_vEEPS2_
FN:317,319,_ZNSt10unique_ptrIN5sqlcc10sql_parser17DropUserStatementESt14default_deleteIS2_EEC2IS4_vEEPS2_
FN:317,319,_ZNSt10unique_ptrIN5sqlcc10sql_parser18DropIndexStatementESt14default_deleteIS2_EEC2IS4_vEEPS2_
FN:317,319,_ZNSt10unique_ptrIN5sqlcc10sql_parser19CreateUserStatementESt14default_deleteIS2_EEC2IS4_vEEPS2_
FN:317,319,_ZNSt10unique_ptrIN5sqlcc10sql_parser20CreateIndexStatementESt14default_deleteIS2_EEC2IS4_vEEPS2_
FN:317,319,_ZNSt10unique_ptrIN5sqlcc10sql_parser9StatementESt14default_deleteIS2_EEC2IS4_vEEPS2_
FN:317,319,_ZNSt10unique_ptrINSt7__cxx1112basic_stringIcSt11char_traitsIcESaIcEEESt14default_deleteIS5_EEC2IS7_vEEPS5_
FN:359,361,_ZNSt10unique_ptrIN5sqlcc10sql_parser12UseStatementESt14default_deleteIS2_EEC2IS4_vEEDn
FN:359,361,_ZNSt10unique_ptrIN5sqlcc10sql_parser13DropStatementESt14default_deleteIS2_EEC2IS4_vEEDn
FN:359,361,_ZNSt10unique_ptrIN5sqlcc10sql_parser14AlterStatementESt14default_deleteIS2_EEC2IS4_vEEDn
FN:359,361,_ZNSt10unique_ptrIN5sqlcc10sql_parser15CreateStatementESt14default_deleteIS2_EEC2IS4_vEEDn
FN:359,361,_ZNSt10unique_ptrIN5sqlcc10sql_parser15DeleteStatementESt14default_deleteIS2_EEC2IS4_vEEDn
FN:359,361,_ZNSt10unique_ptrIN5sqlcc10sql_parser15InsertStatementESt14default_deleteIS2_EEC2IS4_vEEDn
FN:359,361,_ZNSt10unique_ptrIN5sqlcc10sql_parser15UpdateStatementESt14default_deleteIS2_EEC2IS4_vEEDn
FN:359,361,_ZNSt10unique_ptrIN5sqlcc10sql_parser18DropIndexStatementESt14default_deleteIS2_EEC2IS4_vEEDn
FN:359,361,_ZNSt10unique_ptrIN5sqlcc10sql_parser20CreateIndexStatementESt14default_deleteIS2_EEC2IS4_vEEDn
FN:359,361,_ZNSt10unique_ptrIN5sqlcc10sql_parser9StatementESt14default_deleteIS2_EEC2IS4_vEEDn
FN:366,366,_ZNSt10unique_ptrIN5sqlcc10sql_parser12UseStatementESt14default_deleteIS2_EEC2EOS5_
FN:366,366,_ZNSt10unique_ptrIN5sqlcc10sql_parser13DropStatementESt14default_deleteIS2_EEC2EOS5_
FN:366,366,_ZNSt10unique_ptrIN5sqlcc10sql_parser14AlterStatementESt14default_deleteIS2_EEC2EOS5_
FN:366,366,_ZNSt10unique_ptrIN5sqlcc10sql_parser15CreateStatementESt14default_deleteIS2_EEC2EOS5_
FN:366,366,_ZNSt10unique_ptrIN5sqlcc10sql_parser15DeleteStatementESt14default_deleteIS2_EEC2EOS5_
FN:366,366,_ZNSt10unique_ptrIN5sqlcc10sql_parser15InsertStatementESt14default_deleteIS2_EEC2EOS5_
FN:366,366,_ZNSt10unique_ptrIN5sqlcc10sql_parser15UpdateStatementESt14default_deleteIS2_EEC2EOS5_
FN:366,366,_ZNSt10unique_ptrIN5sqlcc10sql_parser18DropIndexStatementESt14default_deleteIS2_EEC2EOS5_
FN:366,366,_ZNSt10unique_ptrIN5sqlcc10sql_parser20CreateIndexStatementESt14default_deleteIS2_EEC2EOS5_
FN:366,366,_ZNSt10unique_ptrIN5sqlcc10sql_parser9StatementESt14default_deleteIS2_EEC2EOS5_
FN:380,382,_ZNSt10unique_ptrIN5sqlcc10sql_parser9StatementESt14default_deleteIS2_EEC2INS1_12UseStatementES3_IS7_EvEEOS_IT_T0_E
FN:380,382,_ZNSt10unique_ptrIN5sqlcc10sql_parser9StatementESt14default_deleteIS2_EEC2INS1_13ShowStatementES3_IS7_EvEEOS_IT_T0_E
FN:380,382,_ZNSt10unique_ptrIN5sqlcc10sql_parser9StatementESt14default_deleteIS2_EEC2INS1_14AlterStatementES3_IS7_EvEEOS_IT_T0_E
FN:380,382,_ZNSt10unique_ptrIN5sqlcc10sql_parser9StatementESt14default_deleteIS2_EEC2INS1_14GrantStatementES3_IS7_EvEEOS_IT_T0_E
FN:380,382,_ZNSt10unique_ptrIN5sqlcc10sql_parser9StatementESt14default_deleteIS2_EEC2INS1_15DeleteStatementES3_IS7_EvEEOS_IT_T0_E
FN:380,382,_ZNSt10unique_ptrIN5sqlcc10sql_parser9StatementESt14default_deleteIS2_EEC2INS1_15InsertStatementES3_IS7_EvEEOS_IT_T0_E
FN:380,382,_ZNSt10unique_ptrIN5sqlcc10sql_parser9StatementESt14default_deleteIS2_EEC2INS1_15RevokeStatementES3_IS7_EvEEOS_IT_T0_E
FN:380,382,_ZNSt10unique_ptrIN5sqlcc10sql_parser9StatementESt14default_deleteIS2_EEC2INS1_15SelectStatementES3_IS7_EvEEOS_IT_T0_E
FN:380,382,_ZNSt10unique_ptrIN5sqlcc10sql_parser9StatementESt14default_deleteIS2_EEC2INS1_15UpdateStatementES3_IS7_EvEEOS_IT_T0_E
FN:380,382,_ZNSt10unique_ptrIN5sqlcc10sql_parser9StatementESt14default_deleteIS2_EEC2INS1_17DropUserStatementES3_IS7_EvEEOS_IT_T0_E
FN:380,382,_ZNSt10unique_ptrIN5sqlcc10sql_parser9StatementESt14default_deleteIS2_EEC2INS1_19CreateUserStatementES3_IS7_EvEEOS_IT_T0_E
FN:398,406,_ZNSt10unique_ptrIN5sqlcc10sql_parser12UseStatementESt14default_deleteIS2_EED2Ev
FN:398,406,_ZNSt10unique_ptrIN5sqlcc10sql_parser13DropStatementESt14default_deleteIS2_EED2Ev
FN:398,406,_ZNSt10unique_ptrIN5sqlcc10sql_parser13ShowStatementESt14default_deleteIS2_EED2Ev
FN:398,406,_ZNSt10unique_ptrIN5sqlcc10sql_parser14AlterStatementESt14default_deleteIS2_EED2Ev
FN:398,406,_ZNSt10unique_ptrIN5sqlcc10sql_parser14GrantStatementESt14default_deleteIS2_EED2Ev
FN:398,406,_ZNSt10unique_ptrIN5sqlcc10sql_parser15CreateStatementESt14default_deleteIS2_EED2Ev
FN:398,406,_ZNSt10unique_ptrIN5sqlcc10sql_parser15DeleteStatementESt14default_deleteIS2_EED2Ev
FN:398,406,_ZNSt10unique_ptrIN5sqlcc10sql_parser15InsertStatementESt14default_deleteIS2_EED2Ev
FN:398,406,_ZNSt10unique_ptrIN5sqlcc10sql_parser15RevokeStatementESt14default_deleteIS2_EED2Ev
FN:398,406,_ZNSt10unique_ptrIN5sqlcc10sql_parser15SelectStatementESt14default_deleteIS2_EED2Ev
FN:398,406,_ZNSt10unique_ptrIN5sqlcc10sql_parser15UpdateStatementESt14default_deleteIS2_EED2Ev
FN:398,406,_ZNSt10unique_ptrIN5sqlcc10sql_parser17DropUserStatementESt14default_deleteIS2_EED2Ev
FN:398,406,_ZNSt10unique_ptrIN5sqlcc10sql_parser18DropIndexStatementESt14default_deleteIS2_EED2Ev
FN:398,406,_ZNSt10unique_ptrIN5sqlcc10sql_parser19CreateUserStatementESt14default_deleteIS2_EED2Ev
FN:398,406,_ZNSt10unique_ptrIN5sqlcc10sql_parser20CreateIndexStatementESt14default_deleteIS2_EED2Ev
FN:398,406,_ZNSt10unique_ptrIN5sqlcc10sql_parser9StatementESt14default_deleteIS2_EED2Ev
FN:398,406,_ZNSt10unique_ptrINSt7__cxx1112basic_stringIcSt11char_traitsIcESaIcEEESt14default_deleteIS5_EED2Ev
FN:398,406,_ZNSt10unique_ptrINSt7__cxx1118basic_stringstreamIcSt11char_traitsIcESaIcEEESt14default_deleteIS5_EED2Ev
FN:414,414,_ZNSt10unique_ptrINSt7__cxx1112basic_stringIcSt11char_traitsIcESaIcEEESt14default_deleteIS5_EEaSEOS8_
FN:451,455,_ZNKSt10unique_ptrIN5sqlcc10sql_parser15CreateStatementESt14default_deleteIS2_EEdeEv
FN:451,455,_ZNKSt10unique_ptrIN5sqlcc10sql_parser15DeleteStatementESt14default_deleteIS2_EEdeEv
FN:451,455,_ZNKSt10unique_ptrIN5sqlcc10sql_parser15InsertStatementESt14default_deleteIS2_EEdeEv
FN:451,455,_ZNKSt10unique_ptrIN5sqlcc10sql_parser15SelectStatementESt14default_deleteIS2_EEdeEv
FN:451,455,_ZNKSt10unique_ptrIN5sqlcc10sql_parser15UpdateStatementESt14default_deleteIS2_EEdeEv
FN:451,455,_ZNKSt10unique_ptrINSt7__cxx1118basic_stringstreamIcSt11char_traitsIcESaIcEEESt14default_deleteIS5_EEdeEv
FN:460,464,_ZNKSt10unique_ptrIN5sqlcc10sql_parser13ShowStatementESt14default_deleteIS2_EEptEv
FN:460,464,_ZNKSt10unique_ptrIN5sqlcc10sql_parser14GrantStatementESt14default_deleteIS2_EEptEv
FN:460,464,_ZNKSt10unique_ptrIN5sqlcc10sql_parser15RevokeStatementESt14default_deleteIS2_EEptEv
FN:460,464,_ZNKSt10unique_ptrIN5sqlcc10sql_parser17DropUserStatementESt14default_deleteIS2_EEptEv
FN:460,464,_ZNKSt10unique_ptrIN5sqlcc10sql_parser18DropIndexStatementESt14default_deleteIS2_EEptEv
FN:460,464,_ZNKSt10unique_ptrIN5sqlcc10sql_parser19CreateUserStatementESt14default_deleteIS2_EEptEv
FN:460,464,_ZNKSt10unique_ptrIN5sqlcc10sql_parser20CreateIndexStatementESt14default_deleteIS2_EEptEv
FN:460,464,_ZNKSt10unique_ptrINSt7__cxx1112basic_stringIcSt11char_traitsIcESaIcEEESt14default_deleteIS5_EEptEv
FN:469,470,_ZNKSt10unique_ptrIN5sqlcc10sql_parser13ShowStatementESt14default_deleteIS2_EE3getEv
FN:469,470,_ZNKSt10unique_ptrIN5sqlcc10sql_parser14GrantStatementESt14default_deleteIS2_EE3getEv
FN:469,470,_ZNKSt10unique_ptrIN5sqlcc10sql_parser15CreateStatementESt14default_deleteIS2_EE3getEv
FN:469,470,_ZNKSt10unique_ptrIN5sqlcc10sql_parser15DeleteStatementESt14default_deleteIS2_EE3getEv
FN:469,470,_ZNKSt10unique_ptrIN5sqlcc10sql_parser15InsertStatementESt14default_deleteIS2_EE3getEv
FN:469,470,_ZNKSt10unique_ptrIN5sqlcc10sql_parser15RevokeStatementESt14default_deleteIS2_EE3getEv
FN:469,470,_ZNKSt10unique_ptrIN5sqlcc10sql_parser15SelectStatementESt14default_deleteIS2_EE3getEv
FN:469,470,_ZNKSt10unique_ptrIN5sqlcc10sql_parser15UpdateStatementESt14default_deleteIS2_EE3getEv
FN:469,470,_ZNKSt10unique_ptrIN5sqlcc10sql_parser17DropUserStatementESt14default_deleteIS2_EE3getEv
FN:469,470,_ZNKSt10unique_ptrIN5sqlcc10sql_parser18DropIndexStatementESt14default_deleteIS2_EE3getEv
FN:469,470,_ZNKSt10unique_ptrIN5sqlcc10sql_parser19CreateUserStatementESt14default_deleteIS2_EE3getEv
FN:469,470,_ZNKSt10unique_ptrIN5sqlcc10sql_parser20CreateIndexStatementESt14default_deleteIS2_EE3getEv
FN:469,470,_ZNKSt10unique_ptrIN5sqlcc10sql_parser9StatementESt14default_deleteIS2_EE3getEv
FN:469,470,_ZNKSt10unique_ptrINSt7__cxx1112basic_stringIcSt11char_traitsIcESaIcEEESt14default_deleteIS5_EE3getEv
FN:469,470,_ZNKSt10unique_ptrINSt7__cxx1118basic_stringstreamIcSt11char_traitsIcESaIcEEESt14default_deleteIS5_EE3getEv
FN:475,476,_ZNSt10unique_ptrIN5sqlcc10sql_parser12UseStatementESt14default_deleteIS2_EE11get_deleterEv
FN:475,476,_ZNSt10unique_ptrIN5sqlcc10sql_parser13DropStatementESt14default_deleteIS2_EE11get_deleterEv
FN:475,476,_ZNSt10unique_ptrIN5sqlcc10sql_parser13ShowStatementESt14default_deleteIS2_EE11get_deleterEv
FN:475,476,_ZNSt10unique_ptrIN5sqlcc10sql_parser14AlterStatementESt14default_deleteIS2_EE11get_deleterEv
FN:475,476,_ZNSt10unique_ptrIN5sqlcc10sql_parser14GrantStatementESt14default_deleteIS2_EE11get_deleterEv
FN:475,476,_ZNSt10unique_ptrIN5sqlcc10sql_parser15CreateStatementESt14default_deleteIS2_EE11get_deleterEv
FN:475,476,_ZNSt10unique_ptrIN5sqlcc10sql_parser15DeleteStatementESt14default_deleteIS2_EE11get_deleterEv
FN:475,476,_ZNSt10unique_ptrIN5sqlcc10sql_parser15InsertStatementESt14default_deleteIS2_EE11get_deleterEv
FN:475,476,_ZNSt10unique_ptrIN5sqlcc10sql_parser15RevokeStatementESt14default_deleteIS2_EE11get_deleterEv
FN:475,476,_ZNSt10unique_ptrIN5sqlcc10sql_parser15SelectStatementESt14default_deleteIS2_EE11get_deleterEv
FN:475,476,_ZNSt10unique_ptrIN5sqlcc10sql_parser15UpdateStatementESt14default_deleteIS2_EE11get_deleterEv
FN:475,476,_ZNSt10unique_ptrIN5sqlcc10sql_parser17DropUserStatementESt14default_deleteIS2_EE11get_deleterEv
FN:475,476,_ZNSt10unique_ptrIN5sqlcc10sql_parser18DropIndexStatementESt14default_deleteIS2_EE11get_deleterEv
FN:475,476,_ZNSt10unique_ptrIN5sqlcc10sql_parser19CreateUserStatementESt14default_deleteIS2_EE11get_deleterEv
FN:475,476,_ZNSt10unique_ptrIN5sqlcc10sql_parser20CreateIndexStatementESt14default_deleteIS2_EE11get_deleterEv
FN:475,476,_ZNSt10unique_ptrIN5sqlcc10sql_parser9StatementESt14default_deleteIS2_EE11get_deleterEv
FN:475,476,_ZNSt10unique_ptrINSt7__cxx1112basic_stringIcSt11char_traitsIcESaIcEEESt14default_deleteIS5_EE11get_deleterEv
FN:475,476,_ZNSt10unique_ptrINSt7__cxx1118basic_stringstreamIcSt11char_traitsIcESaIcEEESt14default_deleteIS5_EE11get_deleterEv
FN:486,487,_ZNKSt10unique_ptrIN5sqlcc10sql_parser20CreateIndexStatementESt14default_deleteIS2_EEcvbEv
FN:486,487,_ZNKSt10unique_ptrIN5sqlcc10sql_parser9StatementESt14default_deleteIS2_EEcvbEv
FN:486,487,_ZNKSt10unique_ptrINSt7__cxx1112basic_stringIcSt11char_traitsIcESaIcEEESt14default_deleteIS5_EEcvbEv
FN:494,495,_ZNSt10unique_ptrIN5sqlcc10sql_parser12UseStatementESt14default_deleteIS2_EE7releaseEv
FN:494,495,_ZNSt10unique_ptrIN5sqlcc10sql_parser13DropStatementESt14default_deleteIS2_EE7releaseEv
FN:494,495,_ZNSt10unique_ptrIN5sqlcc10sql_parser13ShowStatementESt14default_deleteIS2_EE7releaseEv
FN:494,495,_ZNSt10unique_ptrIN5sqlcc10sql_parser14AlterStatementESt14default_deleteIS2_EE7releaseEv
FN:494,495,_ZNSt10unique_ptrIN5sqlcc10sql_parser14GrantStatementESt14default_deleteIS2_EE7releaseEv
FN:494,495,_ZNSt10unique_ptrIN5sqlcc10sql_parser15CreateStatementESt14default_deleteIS2_EE7releaseEv
FN:494,495,_ZNSt10unique_ptrIN5sqlcc10sql_parser15DeleteStatementESt14default_deleteIS2_EE7releaseEv
FN:494,495,_ZNSt10unique_ptrIN5sqlcc10sql_parser15InsertStatementESt14default_deleteIS2_EE7releaseEv
FN:494,495,_ZNSt10unique_ptrIN5sqlcc10sql_parser15RevokeStatementESt14default_deleteIS2_EE7releaseEv
FN:494,495,_ZNSt10unique_ptrIN5sqlcc10sql_parser15SelectStatementESt14default_deleteIS2_EE7releaseEv
FN:494,495,_ZNSt10unique_ptrIN5sqlcc10sql_parser15UpdateStatementESt14default_deleteIS2_EE7releaseEv
FN:494,495,_ZNSt10unique_ptrIN5sqlcc10sql_parser17DropUserStatementESt14default_deleteIS2_EE7releaseEv
FN:494,495,_ZNSt10unique_ptrIN5sqlcc10sql_parser18DropIndexStatementESt14default_deleteIS2_EE7releaseEv
FN:494,495,_ZNSt10unique_ptrIN5sqlcc10sql_parser19CreateUserStatementESt14default_deleteIS2_EE7releaseEv
FN:494,495,_ZNSt10unique_ptrIN5sqlcc10sql_parser20CreateIndexStatementESt14default_deleteIS2_EE7releaseEv
FN:837,838,_ZSteqINSt7__cxx1112basic_stringIcSt11char_traitsIcESaIcEEESt14default_deleteIS5_EEbRKSt10unique_ptrIT_T0_EDn
FN:861,862,_ZStneINSt7__cxx1112basic_stringIcSt11char_traitsIcESaIcEEESt14default_deleteIS5_EEbRKSt10unique_ptrIT_T0_EDn
FN:88,88,_ZNSt14default_deleteIN5sqlcc10sql_parser9StatementEEC2INS1_12UseStatementEvEERKS_IT_E
FN:88,88,_ZNSt14default_deleteIN5sqlcc10sql_parser9StatementEEC2INS1_13ShowStatementEvEERKS_IT_E
FN:88,88,_ZNSt14default_deleteIN5sqlcc10sql_parser9StatementEEC2INS1_14AlterStatementEvEERKS_IT_E
FN:88,88,_ZNSt14default_deleteIN5sqlcc10sql_parser9StatementEEC2INS1_14GrantStatementEvEERKS_IT_E
FN:88,88,_ZNSt14default_deleteIN5sqlcc10sql_parser9StatementEEC2INS1_15DeleteStatementEvEERKS_IT_E
FN:88,88,_ZNSt14default_deleteIN5sqlcc10sql_parser9StatementEEC2INS1_15InsertStatementEvEERKS_IT_E
FN:88,88,_ZNSt14default_deleteIN5sqlcc10sql_parser9StatementEEC2INS1_15RevokeStatementEvEERKS_IT_E
FN:88,88,_ZNSt14default_deleteIN5sqlcc10sql_parser9StatementEEC2INS1_15SelectStatementEvEERKS_IT_E
FN:88,88,_ZNSt14default_deleteIN5sqlcc10sql_parser9StatementEEC2INS1_15UpdateStatementEvEERKS_IT_E
FN:88,88,_ZNSt14default_deleteIN5sqlcc10sql_parser9StatementEEC2INS1_17DropUserStatementEvEERKS_IT_E
FN:88,88,_ZNSt14default_deleteIN5sqlcc10sql_parser9StatementEEC2INS1_19CreateUserStatementEvEERKS_IT_E
FN:93,100,_ZNKSt14default_deleteIN5sqlcc10sql_parser12UseStatementEEclEPS2_
FN:93,100,_ZNKSt14default_deleteIN5sqlcc10sql_parser13DropStatementEEclEPS2_
FN:93,100,_ZNKSt14default_deleteIN5sqlcc10sql_parser13ShowStatementEEclEPS2_
FN:93,100,_ZNKSt14default_deleteIN5sqlcc10sql_parser14AlterStatementEEclEPS2_
FN:93,100,_ZNKSt14default_deleteIN5sqlcc10sql_parser14GrantStatementEEclEPS2_
FN:93,100,_ZNKSt14default_deleteIN5sqlcc10sql_parser15CreateStatementEEclEPS2_
FN:93,100,_ZNKSt14default_deleteIN5sqlcc10sql_parser15DeleteStatementEEclEPS2_
FN:93,100,_ZNKSt14default_deleteIN5sqlcc10sql_parser15InsertStatementEEclEPS2_
FN:93,100,_ZNKSt14default_deleteIN5sqlcc10sql_parser15RevokeStatementEEclEPS2_
FN:93,100,_ZNKSt14default_deleteIN5sqlcc10sql_parser15SelectStatementEEclEPS2_
FN:93,100,_ZNKSt14default_deleteIN5sqlcc10sql_parser15UpdateStatementEEclEPS2_
FN:93,100,_ZNKSt14default_deleteIN5sqlcc10sql_parser17DropUserStatementEEclEPS2_
FN:93,100,_ZNKSt14default_deleteIN5sqlcc10sql_parser18DropIndexStatementEEclEPS2_
FN:93,100,_ZNKSt14default_deleteIN5sqlcc10sql_parser19CreateUserStatementEEclEPS2_
FN:93,100,_ZNKSt14default_deleteIN5sqlcc10sql_parser20CreateIndexStatementEEclEPS2_
FN:93,100,_ZNKSt14default_deleteIN5sqlcc10sql_parser9StatementEEclEPS2_
FN:93,100,_ZNKSt14default_deleteINSt7__cxx1112basic_stringIcSt11char_traitsIcESaIcEEEEclEPS5_
FN:93,100,_ZNKSt14default_deleteINSt7__cxx1118basic_stringstreamIcSt11char_traitsIcESaIcEEEEclEPS5_
FNDA:0,_ZSt11make_uniqueIN5sqlcc10sql_parser12UseStatementEJRNSt7__cxx1112basic_stringIcSt11char_traitsIcESaIcEEEEENSt8__detail9_MakeUniqIT_E15__single_objectEDpOT0_
FNDA:0,_ZSt11make_uniqueIN5sqlcc10sql_parser13DropStatementEJNS2_10ObjectTypeERNSt7__cxx1112basic_stringIcSt11char_traitsIcESaIcEEEEENSt8__detail9_MakeUniqIT_E15__single_objectEDpOT0_
FNDA:0,_ZSt11make_uniqueIN5sqlcc10sql_parser13ShowStatementEJNS2_8ShowTypeEEENSt8__detail9_MakeUniqIT_E15__single_objectEDpOT0_
FNDA:1,_ZSt11make_uniqueIN5sqlcc10sql_parser14AlterStatementEJNS2_10ObjectTypeERNSt7__cxx1112basic_stringIcSt11char_traitsIcESaIcEEEEENSt8__detail9_MakeUniqIT_E15__single_objectEDpOT0_
FNDA:3,_ZSt11make_uniqueIN5sqlcc10sql_parser14GrantStatementEJEENSt8__detail9_MakeUniqIT_E15__single_objectEDpOT0_
FNDA:2,_ZSt11make_uniqueIN5sqlcc10sql_parser15CreateStatementEJNS2_10ObjectTypeERNSt7__cxx1112basic_stringIcSt11char_traitsIcESaIcEEEEENSt8__detail9_MakeUniqIT_E15__single_objectEDpOT0_
FNDA:0,_ZSt11make_uniqueIN5sqlcc10sql_parser15DeleteStatementEJRNSt7__cxx1112basic_stringIcSt11char_traitsIcESaIcEEEEENSt8__detail9_MakeUniqIT_E15__single_objectEDpOT0_
FNDA:0,_ZSt11make_uniqueIN5sqlcc10sql_parser15InsertStatementEJRNSt7__cxx1112basic_stringIcSt11char_traitsIcESaIcEEEEENSt8__detail9_MakeUniqIT_E15__single_objectEDpOT0_
FNDA:3,_ZSt11make_uniqueIN5sqlcc10sql_parser15RevokeStatementEJEENSt8__detail9_MakeUniqIT_E15__single_objectEDpOT0_
FNDA:0,_ZSt11make_uniqueIN5sqlcc10sql_parser15SelectStatementEJEENSt8__detail9_MakeUniqIT_E15__single_objectEDpOT0_
FNDA:0,_ZSt11make_uniqueIN5sqlcc10sql_parser15UpdateStatementEJRNSt7__cxx1112basic_stringIcSt11char_traitsIcESaIcEEEEENSt8__detail9_MakeUniqIT_E15__single_objectEDpOT0_
FNDA:2,_ZSt11make_uniqueIN5sqlcc10sql_parser17DropUserStatementEJRNSt7__cxx1112basic_stringIcSt11char_traitsIcESaIcEEEEENSt8__detail9_MakeUniqIT_E15__single_objectEDpOT0_
FNDA:0,_ZSt11make_uniqueIN5sqlcc10sql_parser18DropIndexStatementEJRNSt7__cxx1112basic_stringIcSt11char_traitsIcESaIcEEEEENSt8__detail9_MakeUniqIT_E15__single_objectEDpOT0_
FNDA:2,_ZSt11make_uniqueIN5sqlcc10sql_parser19CreateUserStatementEJRNSt7__cxx1112basic_stringIcSt11char_traitsIcESaIcEEES9_EENSt8__detail9_MakeUniqIT_E15__single_objectEDpOT0_
FNDA:0,_ZSt11make_uniqueIN5sqlcc10sql_parser20CreateIndexStatementEJRNSt7__cxx1112basic_stringIcSt11char_traitsIcESaIcEEES9_S9_EENSt8__detail9_MakeUniqIT_E15__single_objectEDpOT0_
FNDA:0,_ZSt11make_uniqueINSt7__cxx1112basic_stringIcSt11char_traitsIcESaIcEEEJEENSt8__detail9_MakeUniqIT_E15__single_objectEDpOT0_
FNDA:0,_ZNSt15__uniq_ptr_implIN5sqlcc10sql_parser12UseStatementESt14default_deleteIS2_EEC2Ev
FNDA:0,_ZNSt15__uniq_ptr_implIN5sqlcc10sql_parser13DropStatementESt14default_deleteIS2_EEC2Ev
FNDA:0,_ZNSt15__uniq_ptr_implIN5sqlcc10sql_parser14AlterStatementESt14default_deleteIS2_EEC2Ev
FNDA:0,_ZNSt15__uniq_ptr_implIN5sqlcc10sql_parser15CreateStatementESt14default_deleteIS2_EEC2Ev
FNDA:0,_ZNSt15__uniq_ptr_implIN5sqlcc10sql_parser15DeleteStatementESt14default_deleteIS2_EEC2Ev
FNDA:0,_ZNSt15__uniq_ptr_implIN5sqlcc10sql_parser15InsertStatementESt14default_deleteIS2_EEC2Ev
FNDA:0,_ZNSt15__uniq_ptr_implIN5sqlcc10sql_parser15UpdateStatementESt14default_deleteIS2_EEC2Ev
FNDA:0,_ZNSt15__uniq_ptr_implIN5sqlcc10sql_parser18DropIndexStatementESt14default_deleteIS2_EEC2Ev
FNDA:0,_ZNSt15__uniq_ptr_implIN5sqlcc10sql_parser20CreateIndexStatementESt14default_deleteIS2_EEC2Ev
FNDA:0,_ZNSt15__uniq_ptr_implIN5sqlcc10sql_parser9StatementESt14default_deleteIS2_EEC2Ev
FNDA:59,_ZNSt15__uniq_ptr_implINSt7__cxx1112basic_stringIcSt11char_traitsIcESaIcEEESt14default_deleteIS5_EEC2Ev
FNDA:0,_ZNSt15__uniq_ptr_implIN5sqlcc10sql_parser12UseStatementESt14default_deleteIS2_EEC2EPS2_
FNDA:0,_ZNSt15__uniq_ptr_implIN5sqlcc10sql_parser13DropStatementESt14default_deleteIS2_EEC2EPS2_
FNDA:0,_ZNSt15__uniq_ptr_implIN5sqlcc10sql_parser13ShowStatementESt14default_deleteIS2_EEC2EPS2_
FNDA:1,_ZNSt15__uniq_ptr_implIN5sqlcc10sql_parser14AlterStatementESt14default_deleteIS2_EEC2EPS2_
FNDA:3,_ZNSt15__uniq_ptr_implIN5sqlcc10sql_parser14GrantStatementESt14default_deleteIS2_EEC2EPS2_
FNDA:2,_ZNSt15__uniq_ptr_implIN5sqlcc10sql_parser15CreateStatementESt14default_deleteIS2_EEC2EPS2_
FNDA:0,_ZNSt15__uniq_ptr_implIN5sqlcc10sql_parser15DeleteStatementESt14default_deleteIS2_EEC2EPS2_
FNDA:0,_ZNSt15__uniq_ptr_implIN5sqlcc10sql_parser15InsertStatementESt14default_deleteIS2_EEC2EPS2_
FNDA:3,_ZNSt15__uniq_ptr_implIN5sqlcc10sql_parser15RevokeStatementESt14default_deleteIS2_EEC2EPS2_
FNDA:0,_ZNSt15__uniq_ptr_implIN5sqlcc10sql_parser15SelectStatementESt14default_deleteIS2_EEC2EPS2_
FNDA:0,_ZNSt15__uniq_ptr_implIN5sqlcc10sql_parser15UpdateStatementESt14default_deleteIS2_EEC2EPS2_
FNDA:2,_ZNSt15__uniq_ptr_implIN5sqlcc10sql_parser17DropUserStatementESt14default_deleteIS2_EEC2EPS2_
FNDA:0,_ZNSt15__uniq_ptr_implIN5sqlcc10sql_parser18DropIndexStatementESt14default_deleteIS2_EEC2EPS2_
FNDA:2,_ZNSt15__uniq_ptr_implIN5sqlcc10sql_parser19CreateUserStatementESt14default_deleteIS2_EEC2EPS2_
FNDA:0,_ZNSt15__uniq_ptr_implIN5sqlcc10sql_parser20CreateIndexStatementESt14default_deleteIS2_EEC2EPS2_
FNDA:2,_ZNSt15__uniq_ptr_implIN5sqlcc10sql_parser9StatementESt14default_deleteIS2_EEC2EPS2_
FNDA:0,_ZNSt15__uniq_ptr_implINSt7__cxx1112basic_stringIcSt11char_traitsIcESaIcEEESt14default_deleteIS5_EEC2EPS5_
FNDA:0,_ZNSt15__uniq_ptr_implIN5sqlcc10sql_parser9StatementESt14default_deleteIS2_EEC2IS3_INS1_12UseStatementEEEEPS2_OT_
FNDA:0,_ZNSt15__uniq_ptr_implIN5sqlcc10sql_parser9StatementESt14default_deleteIS2_EEC2IS3_INS1_13ShowStatementEEEEPS2_OT_
FNDA:1,_ZNSt15__uniq_ptr_implIN5sqlcc10sql_parser9StatementESt14default_deleteIS2_EEC2IS3_INS1_14AlterStatementEEEEPS2_OT_
FNDA:3,_ZNSt15__uniq_ptr_implIN5sqlcc10sql_parser9StatementESt14default_deleteIS2_EEC2IS3_INS1_14GrantStatementEEEEPS2_OT_
FNDA:0,_ZNSt15__uniq_ptr_implIN5sqlcc10sql_parser9StatementESt14default_deleteIS2_EEC2IS3_INS1_15DeleteStatementEEEEPS2_OT_
FNDA:0,_ZNSt15__uniq_ptr_implIN5sqlcc10sql_parser9StatementESt14default_deleteIS2_EEC2IS3_INS1_15InsertStatementEEEEPS2_OT_
FNDA:3,_ZNSt15__uniq_ptr_implIN5sqlcc10sql_parser9StatementESt14default_deleteIS2_EEC2IS3_INS1_15RevokeStatementEEEEPS2_OT_
FNDA:0,_ZNSt15__uniq_ptr_implIN5sqlcc10sql_parser9StatementESt14default_deleteIS2_EEC2IS3_INS1_15SelectStatementEEEEPS2_OT_
FNDA:0,_ZNSt15__uniq_ptr_implIN5sqlcc10sql_parser9StatementESt14default_deleteIS2_EEC2IS3_INS1_15UpdateStatementEEEEPS2_OT_
FNDA:2,_ZNSt15__uniq_ptr_implIN5sqlcc10sql_parser9StatementESt14default_deleteIS2_EEC2IS3_INS1_17DropUserStatementEEEEPS2_OT_
FNDA:2,_ZNSt15__uniq_ptr_implIN5sqlcc10sql_parser9StatementESt14default_deleteIS2_EEC2IS3_INS1_19CreateUserStatementEEEEPS2_OT_
FNDA:0,_ZNSt15__uniq_ptr_implIN5sqlcc10sql_parser12UseStatementESt14default_deleteIS2_EEC2EOS5_
FNDA:0,_ZNSt15__uniq_ptr_implIN5sqlcc10sql_parser13DropStatementESt14default_deleteIS2_EEC2EOS5_
FNDA:1,_ZNSt15__uniq_ptr_implIN5sqlcc10sql_parser14AlterStatementESt14default_deleteIS2_EEC2EOS5_
FNDA:2,_ZNSt15__uniq_ptr_implIN5sqlcc10sql_parser15CreateStatementESt14default_deleteIS2_EEC2EOS5_
FNDA:0,_ZNSt15__uniq_ptr_implIN5sqlcc10sql_parser15DeleteStatementESt14default_deleteIS2_EEC2EOS5_
FNDA:0,_ZNSt15__uniq_ptr_implIN5sqlcc10sql_parser15InsertStatementESt14default_deleteIS2_EEC2EOS5_
FNDA:0,_ZNSt15__uniq_ptr_implIN5sqlcc10sql_parser15UpdateStatementESt14default_deleteIS2_EEC2EOS5_
FNDA:0,_ZNSt15__uniq_ptr_implIN5sqlcc10sql_parser18DropIndexStatementESt14default_deleteIS2_EEC2EOS5_
FNDA:0,_ZNSt15__uniq_ptr_implIN5sqlcc10sql_parser20CreateIndexStatementESt14default_deleteIS2_EEC2EOS5_
FNDA:13,_ZNSt15__uniq_ptr_implIN5sqlcc10sql_parser9StatementESt14default_deleteIS2_EEC2EOS5_
FNDA:0,_ZNSt15__uniq_ptr_implINSt7__cxx1112basic_stringIcSt11char_traitsIcESaIcEEESt14default_deleteIS5_EEaSEOS8_
FNDA:0,_ZNSt15__uniq_ptr_implIN5sqlcc10sql_parser12UseStatementESt14default_deleteIS2_EE6_M_ptrEv
FNDA:0,_ZNSt15__uniq_ptr_implIN5sqlcc10sql_parser13DropStatementESt14default_deleteIS2_EE6_M_ptrEv
FNDA:0,_ZNSt15__uniq_ptr_implIN5sqlcc10sql_parser13ShowStatementESt14default_deleteIS2_EE6_M_ptrEv
FNDA:6,_ZNSt15__uniq_ptr_implIN5sqlcc10sql_parser14AlterStatementESt14default_deleteIS2_EE6_M_ptrEv
FNDA:12,_ZNSt15__uniq_ptr_implIN5sqlcc10sql_parser14GrantStatementESt14default_deleteIS2_EE6_M_ptrEv
FNDA:12,_ZNSt15__uniq_ptr_implIN5sqlcc10sql_parser15CreateStatementESt14default_deleteIS2_EE6_M_ptrEv
FNDA:0,_ZNSt15__uniq_ptr_implIN5sqlcc10sql_parser15DeleteStatementESt14default_deleteIS2_EE6_M_ptrEv
FNDA:0,_ZNSt15__uniq_ptr_implIN5sqlcc10sql_parser15InsertStatementESt14default_deleteIS2_EE6_M_ptrEv
FNDA:12,_ZNSt15__uniq_ptr_implIN5sqlcc10sql_parser15RevokeStatementESt14default_deleteIS2_EE6_M_ptrEv
FNDA:0,_ZNSt15__uniq_ptr_implIN5sqlcc10sql_parser15SelectStatementESt14default_deleteIS2_EE6_M_ptrEv
FNDA:0,_ZNSt15__uniq_ptr_implIN5sqlcc10sql_parser15UpdateStatementESt14default_deleteIS2_EE6_M_ptrEv
FNDA:8,_ZNSt15__uniq_ptr_implIN5sqlcc10sql_parser17DropUserStatementESt14default_deleteIS2_EE6_M_ptrEv
FNDA:0,_ZNSt15__uniq_ptr_implIN5sqlcc10sql_parser18DropIndexStatementESt14default_deleteIS2_EE6_M_ptrEv
FNDA:8,_ZNSt15__uniq_ptr_implIN5sqlcc10sql_parser19CreateUserStatementESt14default_deleteIS2_EE6_M_ptrEv
FNDA:0,_ZNSt15__uniq_ptr_implIN5sqlcc10sql_parser20CreateIndexStatementESt14default_deleteIS2_EE6_M_ptrEv
FNDA:41,_ZNSt15__uniq_ptr_implIN5sqlcc10sql_parser9StatementESt14default_deleteIS2_EE6_M_ptrEv
FNDA:184,_ZNSt15__uniq_ptr_implINSt7__cxx1112basic_stringIcSt11char_traitsIcESaIcEEESt14default_deleteIS5_EE6_M_ptrEv
FNDA:0,_ZNSt15__uniq_ptr_implINSt7__cxx1118basic_stringstreamIcSt11char_traitsIcESaIcEEESt14default_deleteIS5_EE6_M_ptrEv
FNDA:0,_ZNKSt15__uniq_ptr_implIN5sqlcc10sql_parser13ShowStatementESt14default_deleteIS2_EE6_M_ptrEv
FNDA:14,_ZNKSt15__uniq_ptr_implIN5sqlcc10sql_parser14GrantStatementESt14default_deleteIS2_EE6_M_ptrEv
FNDA:1,_ZNKSt15__uniq_ptr_implIN5sqlcc10sql_parser15CreateStatementESt14default_deleteIS2_EE6_M_ptrEv
FNDA:0,_ZNKSt15__uniq_ptr_implIN5sqlcc10sql_parser15DeleteStatementESt14default_deleteIS2_EE6_M_ptrEv
FNDA:0,_ZNKSt15__uniq_ptr_implIN5sqlcc10sql_parser15InsertStatementESt14default_deleteIS2_EE6_M_ptrEv
FNDA:14,_ZNKSt15__uniq_ptr_implIN5sqlcc10sql_parser15RevokeStatementESt14default_deleteIS2_EE6_M_ptrEv
FNDA:0,_ZNKSt15__uniq_ptr_implIN5sqlcc10sql_parser15SelectStatementESt14default_deleteIS2_EE6_M_ptrEv
FNDA:0,_ZNKSt15__uniq_ptr_implIN5sqlcc10sql_parser15UpdateStatementESt14default_deleteIS2_EE6_M_ptrEv
FNDA:2,_ZNKSt15__uniq_ptr_implIN5sqlcc10sql_parser17DropUserStatementESt14default_deleteIS2_EE6_M_ptrEv
FNDA:0,_ZNKSt15__uniq_ptr_implIN5sqlcc10sql_parser18DropIndexStatementESt14default_deleteIS2_EE6_M_ptrEv
FNDA:2,_ZNKSt15__uniq_ptr_implIN5sqlcc10sql_parser19CreateUserStatementESt14default_deleteIS2_EE6_M_ptrEv
FNDA:0,_ZNKSt15__uniq_ptr_implIN5sqlcc10sql_parser20CreateIndexStatementESt14default_deleteIS2_EE6_M_ptrEv
FNDA:26,_ZNKSt15__uniq_ptr_implIN5sqlcc10sql_parser9StatementESt14default_deleteIS2_EE6_M_ptrEv
FNDA:0,_ZNKSt15__uniq_ptr_implINSt7__cxx1112basic_stringIcSt11char_traitsIcESaIcEEESt14default_deleteIS5_EE6_M_ptrEv
FNDA:0,_ZNKSt15__uniq_ptr_implINSt7__cxx1118basic_stringstreamIcSt11char_traitsIcESaIcEEESt14default_deleteIS5_EE6_M_ptrEv
FNDA:0,_ZNSt15__uniq_ptr_implIN5sqlcc10sql_parser12UseStatementESt14default_deleteIS2_EE10_M_deleterEv
FNDA:0,_ZNSt15__uniq_ptr_implIN5sqlcc10sql_parser13DropStatementESt14default_deleteIS2_EE10_M_deleterEv
FNDA:0,_ZNSt15__uniq_ptr_implIN5sqlcc10sql_parser13ShowStatementESt14default_deleteIS2_EE10_M_deleterEv
FNDA:1,_ZNSt15__uniq_ptr_implIN5sqlcc10sql_parser14AlterStatementESt14default_deleteIS2_EE10_M_deleterEv
FNDA:3,_ZNSt15__uniq_ptr_implIN5sqlcc10sql_parser14GrantStatementESt14default_deleteIS2_EE10_M_deleterEv
FNDA:0,_ZNSt15__uniq_ptr_implIN5sqlcc10sql_parser15CreateStatementESt14default_deleteIS2_EE10_M_deleterEv
FNDA:0,_ZNSt15__uniq_ptr_implIN5sqlcc10sql_parser15DeleteStatementESt14default_deleteIS2_EE10_M_deleterEv
FNDA:0,_ZNSt15__uniq_ptr_implIN5sqlcc10sql_parser15InsertStatementESt14default_deleteIS2_EE10_M_deleterEv
FNDA:3,_ZNSt15__uniq_ptr_implIN5sqlcc10sql_parser15RevokeStatementESt14default_deleteIS2_EE10_M_deleterEv
FNDA:0,_ZNSt15__uniq_ptr_implIN5sqlcc10sql_parser15SelectStatementESt14default_deleteIS2_EE10_M_deleterEv
FNDA:0,_ZNSt15__uniq_ptr_implIN5sqlcc10sql_parser15UpdateStatementESt14default_deleteIS2_EE10_M_deleterEv
FNDA:2,_ZNSt15__uniq_ptr_implIN5sqlcc10sql_parser17DropUserStatementESt14default_deleteIS2_EE10_M_deleterEv
FNDA:0,_ZNSt15__uniq_ptr_implIN5sqlcc10sql_parser18DropIndexStatementESt14default_deleteIS2_EE10_M_deleterEv
FNDA:2,_ZNSt15__uniq_ptr_implIN5sqlcc10sql_parser19CreateUserStatementESt14default_deleteIS2_EE10_M_deleterEv
FNDA:0,_ZNSt15__uniq_ptr_implIN5sqlcc10sql_parser20CreateIndexStatementESt14default_deleteIS2_EE10_M_deleterEv
FNDA:13,_ZNSt15__uniq_ptr_implIN5sqlcc10sql_parser9StatementESt14default_deleteIS2_EE10_M_deleterEv
FNDA:0,_ZNSt15__uniq_ptr_implINSt7__cxx1112basic_stringIcSt11char_traitsIcESaIcEEESt14default_deleteIS5_EE10_M_deleterEv
FNDA:0,_ZNSt15__uniq_ptr_implINSt7__cxx1118basic_stringstreamIcSt11char_traitsIcESaIcEEESt14default_deleteIS5_EE10_M_deleterEv
FNDA:0,_ZNSt15__uniq_ptr_implINSt7__cxx1112basic_stringIcSt11char_traitsIcESaIcEEESt14default_deleteIS5_EE5resetEPS5_
FNDA:0,_ZNSt15__uniq_ptr_implIN5sqlcc10sql_parser12UseStatementESt14default_deleteIS2_EE7releaseEv
FNDA:0,_ZNSt15__uniq_ptr_implIN5sqlcc10sql_parser13DropStatementESt14default_deleteIS2_EE7releaseEv
FNDA:0,_ZNSt15__uniq_ptr_implIN5sqlcc10sql_parser13ShowStatementESt14default_deleteIS2_EE7releaseEv
FNDA:1,_ZNSt15__uniq_ptr_implIN5sqlcc10sql_parser14AlterStatementESt14default_deleteIS2_EE7releaseEv
FNDA:3,_ZNSt15__uniq_ptr_implIN5sqlcc10sql_parser14GrantStatementESt14default_deleteIS2_EE7releaseEv
FNDA:2,_ZNSt15__uniq_ptr_implIN5sqlcc10sql_parser15CreateStatementESt14default_deleteIS2_EE7releaseEv
FNDA:0,_ZNSt15__uniq_ptr_implIN5sqlcc10sql_parser15DeleteStatementESt14default_deleteIS2_EE7releaseEv
FNDA:0,_ZNSt15__uniq_ptr_implIN5sqlcc10sql_parser15InsertStatementESt14default_deleteIS2_EE7releaseEv
FNDA:3,_ZNSt15__uniq_ptr_implIN5sqlcc10sql_parser15RevokeStatementESt14default_deleteIS2_EE7releaseEv
FNDA:0,_ZNSt15__uniq_ptr_implIN5sqlcc10sql_parser15SelectStatementESt14default_deleteIS2_EE7releaseEv
FNDA:0,_ZNSt15__uniq_ptr_implIN5sqlcc10sql_parser15UpdateStatementESt14default_deleteIS2_EE7releaseEv
FNDA:2,_ZNSt15__uniq_ptr_implIN5sqlcc10sql_parser17DropUserStatementESt14default_deleteIS2_EE7releaseEv
FNDA:0,_ZNSt15__uniq_ptr_implIN5sqlcc10sql_parser18DropIndexStatementESt14default_deleteIS2_EE7releaseEv
FNDA:2,_ZNSt15__uniq_ptr_implIN5sqlcc10sql_parser19CreateUserStatementESt14default_deleteIS2_EE7releaseEv
FNDA:0,_ZNSt15__uniq_ptr_implIN5sqlcc10sql_parser20CreateIndexStatementESt14default_deleteIS2_EE7releaseEv
FNDA:0,_ZNSt15__uniq_ptr_implINSt7__cxx1112basic_stringIcSt11char_traitsIcESaIcEEESt14default_deleteIS5_EE7releaseEv
FNDA:0,_ZNSt15__uniq_ptr_dataIN5sqlcc10sql_parser12UseStatementESt14default_deleteIS2_ELb1ELb1EEC2EOS5_
FNDA:0,_ZNSt15__uniq_ptr_dataIN5sqlcc10sql_parser13DropStatementESt14default_deleteIS2_ELb1ELb1EEC2EOS5_
FNDA:1,_ZNSt15__uniq_ptr_dataIN5sqlcc10sql_parser14AlterStatementESt14default_deleteIS2_ELb1ELb1EEC2EOS5_
FNDA:2,_ZNSt15__uniq_ptr_dataIN5sqlcc10sql_parser15CreateStatementESt14default_deleteIS2_ELb1ELb1EEC2EOS5_
FNDA:0,_ZNSt15__uniq_ptr_dataIN5sqlcc10sql_parser15DeleteStatementESt14default_deleteIS2_ELb1ELb1EEC2EOS5_
FNDA:0,_ZNSt15__uniq_ptr_dataIN5sqlcc10sql_parser15InsertStatementESt14default_deleteIS2_ELb1ELb1EEC2EOS5_
FNDA:0,_ZNSt15__uniq_ptr_dataIN5sqlcc10sql_parser15UpdateStatementESt14default_deleteIS2_ELb1ELb1EEC2EOS5_
FNDA:0,_ZNSt15__uniq_ptr_dataIN5sqlcc10sql_parser18DropIndexStatementESt14default_deleteIS2_ELb1ELb1EEC2EOS5_
FNDA:0,_ZNSt15__uniq_ptr_dataIN5sqlcc10sql_parser20CreateIndexStatementESt14default_deleteIS2_ELb1ELb1EEC2EOS5_
FNDA:13,_ZNSt15__uniq_ptr_dataIN5sqlcc10sql_parser9StatementESt14default_deleteIS2_ELb1ELb1EEC2EOS5_
FNDA:0,_ZNSt15__uniq_ptr_dataINSt7__cxx1112basic_stringIcSt11char_traitsIcESaIcEEESt14default_deleteIS5_ELb1ELb1EEaSEOS8_
FNDA:59,_ZNSt10unique_ptrINSt7__cxx1112basic_stringIcSt11char_traitsIcESaIcEEESt14default_deleteIS5_EEC2IS7_vEEv
FNDA:0,_ZNSt10unique_ptrIN5sqlcc10sql_parser12UseStatementESt14default_deleteIS2_EEC2IS4_vEEPS2_
FNDA:0,_ZNSt10unique_ptrIN5sqlcc10sql_parser13DropStatementESt14default_deleteIS2_EEC2IS4_vEEPS2_
FNDA:0,_ZNSt10unique_ptrIN5sqlcc10sql_parser13ShowStatementESt14default_deleteIS2_EEC2IS4_vEEPS2_
FNDA:1,_ZNSt10unique_ptrIN5sqlcc10sql_parser14AlterStatementESt14default_deleteIS2_EEC2IS4_vEEPS2_
FNDA:3,_ZNSt10unique_ptrIN5sqlcc10sql_parser14GrantStatementESt14default_deleteIS2_EEC2IS4_vEEPS2_
FNDA:2,_ZNSt10unique_ptrIN5sqlcc10sql_parser15CreateStatementESt14default_deleteIS2_EEC2IS4_vEEPS2_
FNDA:0,_ZNSt10unique_ptrIN5sqlcc10sql_parser15DeleteStatementESt14default_deleteIS2_EEC2IS4_vEEPS2_
FNDA:0,_ZNSt10unique_ptrIN5sqlcc10sql_parser15InsertStatementESt14default_deleteIS2_EEC2IS4_vEEPS2_
FNDA:3,_ZNSt10unique_ptrIN5sqlcc10sql_parser15RevokeStatementESt14default_deleteIS2_EEC2IS4_vEEPS2_
FNDA:0,_ZNSt10unique_ptrIN5sqlcc10sql_parser15SelectStatementESt14default_deleteIS2_EEC2IS4_vEEPS2_
FNDA:0,_ZNSt10unique_ptrIN5sqlcc10sql_parser15UpdateStatementESt14default_deleteIS2_EEC2IS4_vEEPS2_
FNDA:2,_ZNSt10unique_ptrIN5sqlcc10sql_parser17DropUserStatementESt14default_deleteIS2_EEC2IS4_vEEPS2_
FNDA:0,_ZNSt10unique_ptrIN5sqlcc10sql_parser18DropIndexStatementESt14default_deleteIS2_EEC2IS4_vEEPS2_
FNDA:2,_ZNSt10unique_ptrIN5sqlcc10sql_parser19CreateUserStatementESt14default_deleteIS2_EEC2IS4_vEEPS2_
FNDA:0,_ZNSt10unique_ptrIN5sqlcc10sql_parser20CreateIndexStatementESt14default_deleteIS2_EEC2IS4_vEEPS2_
FNDA:2,_ZNSt10unique_ptrIN5sqlcc10sql_parser9StatementESt14default_deleteIS2_EEC2IS4_vEEPS2_
FNDA:0,_ZNSt10unique_ptrINSt7__cxx1112basic_stringIcSt11char_traitsIcESaIcEEESt14default_deleteIS5_EEC2IS7_vEEPS5_
FNDA:0,_ZNSt10unique_ptrIN5sqlcc10sql_parser12UseStatementESt14default_deleteIS2_EEC2IS4_vEEDn
FNDA:0,_ZNSt10unique_ptrIN5sqlcc10sql_parser13DropStatementESt14default_deleteIS2_EEC2IS4_vEEDn
FNDA:0,_ZNSt10unique_ptrIN5sqlcc10sql_parser14AlterStatementESt14default_deleteIS2_EEC2IS4_vEEDn
FNDA:0,_ZNSt10unique_ptrIN5sqlcc10sql_parser15CreateStatementESt14default_deleteIS2_EEC2IS4_vEEDn
FNDA:0,_ZNSt10unique_ptrIN5sqlcc10sql_parser15DeleteStatementESt14default_deleteIS2_EEC2IS4_vEEDn
FNDA:0,_ZNSt10unique_ptrIN5sqlcc10sql_parser15InsertStatementESt14default_deleteIS2_EEC2IS4_vEEDn
FNDA:0,_ZNSt10unique_ptrIN5sqlcc10sql_parser15UpdateStatementESt14default_deleteIS2_EEC2IS4_vEEDn
FNDA:0,_ZNSt10unique_ptrIN5sqlcc10sql_parser18DropIndexStatementESt14default_deleteIS2_EEC2IS4_vEEDn
FNDA:0,_ZNSt10unique_ptrIN5sqlcc10sql_parser20CreateIndexStatementESt14default_deleteIS2_EEC2IS4_vEEDn
FNDA:0,_ZNSt10unique_ptrIN5sqlcc10sql_parser9StatementESt14default_deleteIS2_EEC2IS4_vEEDn
FNDA:0,_ZNSt10unique_ptrIN5sqlcc10sql_parser12UseStatementESt14default_deleteIS2_EEC2EOS5_
FNDA:0,_ZNSt10unique_ptrIN5sqlcc10sql_parser13DropStatementESt14default_deleteIS2_EEC2EOS5_
FNDA:1,_ZNSt10unique_ptrIN5sqlcc10sql_parser14AlterStatementESt14default_deleteIS2_EEC2EOS5_
FNDA:2,_ZNSt10unique_ptrIN5sqlcc10sql_parser15CreateStatementESt14default_deleteIS2_EEC2EOS5_
FNDA:0,_ZNSt10unique_ptrIN5sqlcc10sql_parser15DeleteStatementESt14default_deleteIS2_EEC2EOS5_
FNDA:0,_ZNSt10unique_ptrIN5sqlcc10sql_parser15InsertStatementESt14default_deleteIS2_EEC2EOS5_
FNDA:0,_ZNSt10unique_ptrIN5sqlcc10sql_parser15UpdateStatementESt14default_deleteIS2_EEC2EOS5_
FNDA:0,_ZNSt10unique_ptrIN5sqlcc10sql_parser18DropIndexStatementESt14default_deleteIS2_EEC2EOS5_
FNDA:0,_ZNSt10unique_ptrIN5sqlcc10sql_parser20CreateIndexStatementESt14default_deleteIS2_EEC2EOS5_
FNDA:13,_ZNSt10unique_ptrIN5sqlcc10sql_parser9StatementESt14default_deleteIS2_EEC2EOS5_
FNDA:0,_ZNSt10unique_ptrIN5sqlcc10sql_parser9StatementESt14default_deleteIS2_EEC2INS1_12UseStatementES3_IS7_EvEEOS_IT_T0_E
FNDA:0,_ZNSt10unique_ptrIN5sqlcc10sql_parser9StatementESt14default_deleteIS2_EEC2INS1_13ShowStatementES3_IS7_EvEEOS_IT_T0_E
FNDA:1,_ZNSt10unique_ptrIN5sqlcc10sql_parser9StatementESt14default_deleteIS2_EEC2INS1_14AlterStatementES3_IS7_EvEEOS_IT_T0_E
FNDA:3,_ZNSt10unique_ptrIN5sqlcc10sql_parser9StatementESt14default_deleteIS2_EEC2INS1_14GrantStatementES3_IS7_EvEEOS_IT_T0_E
FNDA:0,_ZNSt10unique_ptrIN5sqlcc10sql_parser9StatementESt14default_deleteIS2_EEC2INS1_15DeleteStatementES3_IS7_EvEEOS_IT_T0_E
FNDA:0,_ZNSt10unique_ptrIN5sqlcc10sql_parser9StatementESt14default_deleteIS2_EEC2INS1_15InsertStatementES3_IS7_EvEEOS_IT_T0_E
FNDA:3,_ZNSt10unique_ptrIN5sqlcc10sql_parser9StatementESt14default_deleteIS2_EEC2INS1_15RevokeStatementES3_IS7_EvEEOS_IT_T0_E
FNDA:0,_ZNSt10unique_ptrIN5sqlcc10sql_parser9StatementESt14default_deleteIS2_EEC2INS1_15SelectStatementES3_IS7_EvEEOS_IT_T0_E
FNDA:0,_ZNSt10unique_ptrIN5sqlcc10sql_parser9StatementESt14default_deleteIS2_EEC2INS1_15UpdateStatementES3_IS7_EvEEOS_IT_T0_E
FNDA:2,_ZNSt10unique_ptrIN5sqlcc10sql_parser9StatementESt14default_deleteIS2_EEC2INS1_17DropUserStatementES3_IS7_EvEEOS_IT_T0_E
FNDA:2,_ZNSt10unique_ptrIN5sqlcc10sql_parser9StatementESt14default_deleteIS2_EEC2INS1_19CreateUserStatementES3_IS7_EvEEOS_IT_T0_E
FNDA:0,_ZNSt10unique_ptrIN5sqlcc10sql_parser12UseStatementESt14default_deleteIS2_EED2Ev
FNDA:0,_ZNSt10unique_ptrIN5sqlcc10sql_parser13DropStatementESt14default_deleteIS2_EED2Ev
FNDA:0,_ZNSt10unique_ptrIN5sqlcc10sql_parser13ShowStatementESt14default_deleteIS2_EED2Ev
FNDA:2,_ZNSt10unique_ptrIN5sqlcc10sql_parser14AlterStatementESt14default_deleteIS2_EED2Ev
FNDA:3,_ZNSt10unique_ptrIN5sqlcc10sql_parser14GrantStatementESt14default_deleteIS2_EED2Ev
FNDA:4,_ZNSt10unique_ptrIN5sqlcc10sql_parser15CreateStatementESt14default_deleteIS2_EED2Ev
FNDA:0,_ZNSt10unique_ptrIN5sqlcc10sql_parser15DeleteStatementESt14default_deleteIS2_EED2Ev
FNDA:0,_ZNSt10unique_ptrIN5sqlcc10sql_parser15InsertStatementESt14default_deleteIS2_EED2Ev
FNDA:3,_ZNSt10unique_ptrIN5sqlcc10sql_parser15RevokeStatementESt14default_deleteIS2_EED2Ev
FNDA:0,_ZNSt10unique_ptrIN5sqlcc10sql_parser15SelectStatementESt14default_deleteIS2_EED2Ev
FNDA:0,_ZNSt10unique_ptrIN5sqlcc10sql_parser15UpdateStatementESt14default_deleteIS2_EED2Ev
FNDA:2,_ZNSt10unique_ptrIN5sqlcc10sql_parser17DropUserStatementESt14default_deleteIS2_EED2Ev
FNDA:0,_ZNSt10unique_ptrIN5sqlcc10sql_parser18DropIndexStatementESt14default_deleteIS2_EED2Ev
FNDA:2,_ZNSt10unique_ptrIN5sqlcc10sql_parser19CreateUserStatementESt14default_deleteIS2_EED2Ev
FNDA:0,_ZNSt10unique_ptrIN5sqlcc10sql_parser20CreateIndexStatementESt14default_deleteIS2_EED2Ev
FNDA:26,_ZNSt10unique_ptrIN5sqlcc10sql_parser9StatementESt14default_deleteIS2_EED2Ev
FNDA:184,_ZNSt10unique_ptrINSt7__cxx1112basic_stringIcSt11char_traitsIcESaIcEEESt14default_deleteIS5_EED2Ev
FNDA:0,_ZNSt10unique_ptrINSt7__cxx1118basic_stringstreamIcSt11char_traitsIcESaIcEEESt14default_deleteIS5_EED2Ev
FNDA:0,_ZNSt10unique_ptrINSt7__cxx1112basic_stringIcSt11char_traitsIcESaIcEEESt14default_deleteIS5_EEaSEOS8_
FNDA:1,_ZNKSt10unique_ptrIN5sqlcc10sql_parser15CreateStatementESt14default_deleteIS2_EEdeEv
FNDA:0,_ZNKSt10unique_ptrIN5sqlcc10sql_parser15DeleteStatementESt14default_deleteIS2_EEdeEv
FNDA:0,_ZNKSt10unique_ptrIN5sqlcc10sql_parser15InsertStatementESt14default_deleteIS2_EEdeEv
FNDA:0,_ZNKSt10unique_ptrIN5sqlcc10sql_parser15SelectStatementESt14default_deleteIS2_EEdeEv
FNDA:0,_ZNKSt10unique_ptrIN5sqlcc10sql_parser15UpdateStatementESt14default_deleteIS2_EEdeEv
FNDA:0,_ZNKSt10unique_ptrINSt7__cxx1118basic_stringstreamIcSt11char_traitsIcESaIcEEESt14default_deleteIS5_EEdeEv
FNDA:0,_ZNKSt10unique_ptrIN5sqlcc10sql_parser13ShowStatementESt14default_deleteIS2_EEptEv
FNDA:14,_ZNKSt10unique_ptrIN5sqlcc10sql_parser14GrantStatementESt14default_deleteIS2_EEptEv
FNDA:14,_ZNKSt10unique_ptrIN5sqlcc10sql_parser15RevokeStatementESt14default_deleteIS2_EEptEv
FNDA:2,_ZNKSt10unique_ptrIN5sqlcc10sql_parser17DropUserStatementESt14default_deleteIS2_EEptEv
FNDA:0,_ZNKSt10unique_ptrIN5sqlcc10sql_parser18DropIndexStatementESt14default_deleteIS2_EEptEv
FNDA:2,_ZNKSt10unique_ptrIN5sqlcc10sql_parser19CreateUserStatementESt14default_deleteIS2_EEptEv
FNDA:0,_ZNKSt10unique_ptrIN5sqlcc10sql_parser20CreateIndexStatementESt14default_deleteIS2_EEptEv
FNDA:0,_ZNKSt10unique_ptrINSt7__cxx1112basic_stringIcSt11char_traitsIcESaIcEEESt14default_deleteIS5_EEptEv
FNDA:0,_ZNKSt10unique_ptrIN5sqlcc10sql_parser13ShowStatementESt14default_deleteIS2_EE3getEv
FNDA:14,_ZNKSt10unique_ptrIN5sqlcc10sql_parser14GrantStatementESt14default_deleteIS2_EE3getEv
FNDA:1,_ZNKSt10unique_ptrIN5sqlcc10sql_parser15CreateStatementESt14default_deleteIS2_EE3getEv
FNDA:0,_ZNKSt10unique_ptrIN5sqlcc10sql_parser15DeleteStatementESt14default_deleteIS2_EE3getEv
FNDA:0,_ZNKSt10unique_ptrIN5sqlcc10sql_parser15InsertStatementESt14default_deleteIS2_EE3getEv
FNDA:14,_ZNKSt10unique_ptrIN5sqlcc10sql_parser15RevokeStatementESt14default_deleteIS2_EE3getEv
FNDA:0,_ZNKSt10unique_ptrIN5sqlcc10sql_parser15SelectStatementESt14default_deleteIS2_EE3getEv
FNDA:0,_ZNKSt10unique_ptrIN5sqlcc10sql_parser15UpdateStatementESt14default_deleteIS2_EE3getEv
FNDA:2,_ZNKSt10unique_ptrIN5sqlcc10sql_parser17DropUserStatementESt14default_deleteIS2_EE3getEv
FNDA:0,_ZNKSt10unique_ptrIN5sqlcc10sql_parser18DropIndexStatementESt14default_deleteIS2_EE3getEv
FNDA:2,_ZNKSt10unique_ptrIN5sqlcc10sql_parser19CreateUserStatementESt14default_deleteIS2_EE3getEv
FNDA:0,_ZNKSt10unique_ptrIN5sqlcc10sql_parser20CreateIndexStatementESt14default_deleteIS2_EE3getEv
FNDA:26,_ZNKSt10unique_ptrIN5sqlcc10sql_parser9StatementESt14default_deleteIS2_EE3getEv
FNDA:0,_ZNKSt10unique_ptrINSt7__cxx1112basic_stringIcSt11char_traitsIcESaIcEEESt14default_deleteIS5_EE3getEv
FNDA:0,_ZNKSt10unique_ptrINSt7__cxx1118basic_stringstreamIcSt11char_traitsIcESaIcEEESt14default_deleteIS5_EE3getEv
FNDA:0,_ZNSt10unique_ptrIN5sqlcc10sql_parser12UseStatementESt14default_deleteIS2_EE11get_deleterEv
FNDA:0,_ZNSt10unique_ptrIN5sqlcc10sql_parser13DropStatementESt14default_deleteIS2_EE11get_deleterEv
FNDA:0,_ZNSt10unique_ptrIN5sqlcc10sql_parser13ShowStatementESt14default_deleteIS2_EE11get_deleterEv
FNDA:1,_ZNSt10unique_ptrIN5sqlcc10sql_parser14AlterStatementESt14default_deleteIS2_EE11get_deleterEv
FNDA:3,_ZNSt10unique_ptrIN5sqlcc10sql_parser14GrantStatementESt14default_deleteIS2_EE11get_deleterEv
FNDA:0,_ZNSt10unique_ptrIN5sqlcc10sql_parser15CreateStatementESt14default_deleteIS2_EE11get_deleterEv
FNDA:0,_ZNSt10unique_ptrIN5sqlcc10sql_parser15DeleteStatementESt14default_deleteIS2_EE11get_deleterEv
FNDA:0,_ZNSt10unique_ptrIN5sqlcc10sql_parser15InsertStatementESt14default_deleteIS2_EE11get_deleterEv
FNDA:3,_ZNSt10unique_ptrIN5sqlcc10sql_parser15RevokeStatementESt14default_deleteIS2_EE11get_deleterEv
FNDA:0,_ZNSt10unique_ptrIN5sqlcc10sql_parser15SelectStatementESt14default_deleteIS2_EE11get_deleterEv
FNDA:0,_ZNSt10unique_ptrIN5sqlcc10sql_parser15UpdateStatementESt14default_deleteIS2_EE11get_deleterEv
FNDA:2,_ZNSt10unique_ptrIN5sqlcc10sql_parser17DropUserStatementESt14default_deleteIS2_EE11get_deleterEv
FNDA:0,_ZNSt10unique_ptrIN5sqlcc10sql_parser18DropIndexStatementESt14default_deleteIS2_EE11get_deleterEv
FNDA:2,_ZNSt10unique_ptrIN5sqlcc10sql_parser19CreateUserStatementESt14default_deleteIS2_EE11get_deleterEv
FNDA:0,_ZNSt10unique_ptrIN5sqlcc10sql_parser20CreateIndexStatementESt14default_deleteIS2_EE11get_deleterEv
FNDA:13,_ZNSt10unique_ptrIN5sqlcc10sql_parser9StatementESt14default_deleteIS2_EE11get_deleterEv
FNDA:0,_ZNSt10unique_ptrINSt7__cxx1112basic_stringIcSt11char_traitsIcESaIcEEESt14default_deleteIS5_EE11get_deleterEv
FNDA:0,_ZNSt10unique_ptrINSt7__cxx1118basic_stringstreamIcSt11char_traitsIcESaIcEEESt14default_deleteIS5_EE11get_deleterEv
FNDA:0,_ZNKSt10unique_ptrIN5sqlcc10sql_parser20CreateIndexStatementESt14default_deleteIS2_EEcvbEv
FNDA:13,_ZNKSt10unique_ptrIN5sqlcc10sql_parser9StatementESt14default_deleteIS2_EEcvbEv
FNDA:0,_ZNKSt10unique_ptrINSt7__cxx1112basic_stringIcSt11char_traitsIcESaIcEEESt14default_deleteIS5_EEcvbEv
FNDA:0,_ZNSt10unique_ptrIN5sqlcc10sql_parser12UseStatementESt14default_deleteIS2_EE7releaseEv
FNDA:0,_ZNSt10unique_ptrIN5sqlcc10sql_parser13DropStatementESt14default_deleteIS2_EE7releaseEv
FNDA:0,_ZNSt10unique_ptrIN5sqlcc10sql_parser13ShowStatementESt14default_deleteIS2_EE7releaseEv
FNDA:1,_ZNSt10unique_ptrIN5sqlcc10sql_parser14AlterStatementESt14default_deleteIS2_EE7releaseEv
FNDA:3,_ZNSt10unique_ptrIN5sqlcc10sql_parser14GrantStatementESt14default_deleteIS2_EE7releaseEv
FNDA:2,_ZNSt10unique_ptrIN5sqlcc10sql_parser15CreateStatementESt14default_deleteIS2_EE7releaseEv
FNDA:0,_ZNSt10unique_ptrIN5sqlcc10sql_parser15DeleteStatementESt14default_deleteIS2_EE7releaseEv
FNDA:0,_ZNSt10unique_ptrIN5sqlcc10sql_parser15InsertStatementESt14default_deleteIS2_EE7releaseEv
FNDA:3,_ZNSt10unique_ptrIN5sqlcc10sql_parser15RevokeStatementESt14default_deleteIS2_EE7releaseEv
FNDA:0,_ZNSt10unique_ptrIN5sqlcc10sql_parser15SelectStatementESt14default_deleteIS2_EE7releaseEv
FNDA:0,_ZNSt10unique_ptrIN5sqlcc10sql_parser15UpdateStatementESt14default_deleteIS2_EE7releaseEv
FNDA:2,_ZNSt10unique_ptrIN5sqlcc10sql_parser17DropUserStatementESt14default_deleteIS2_EE7releaseEv
FNDA:0,_ZNSt10unique_ptrIN5sqlcc10sql_parser18DropIndexStatementESt14default_deleteIS2_EE7releaseEv
FNDA:2,_ZNSt10unique_ptrIN5sqlcc10sql_parser19CreateUserStatementESt14default_deleteIS2_EE7releaseEv
FNDA:0,_ZNSt10unique_ptrIN5sqlcc10sql_parser20CreateIndexStatementESt14default_deleteIS2_EE7releaseEv
FNDA:0,_ZSteqINSt7__cxx1112basic_stringIcSt11char_traitsIcESaIcEEESt14default_deleteIS5_EEbRKSt10unique_ptrIT_T0_EDn
FNDA:0,_ZStneINSt7__cxx1112basic_stringIcSt11char_traitsIcESaIcEEESt14default_deleteIS5_EEbRKSt10unique_ptrIT_T0_EDn
FNDA:0,_ZNSt14default_deleteIN5sqlcc10sql_parser9StatementEEC2INS1_12UseStatementEvEERKS_IT_E
FNDA:0,_ZNSt14default_deleteIN5sqlcc10sql_parser9StatementEEC2INS1_13ShowStatementEvEERKS_IT_E
FNDA:1,_ZNSt14default_deleteIN5sqlcc10sql_parser9StatementEEC2INS1_14AlterStatementEvEERKS_IT_E
FNDA:3,_ZNSt14default_deleteIN5sqlcc10sql_parser9StatementEEC2INS1_14GrantStatementEvEERKS_IT_E
FNDA:0,_ZNSt14default_deleteIN5sqlcc10sql_parser9StatementEEC2INS1_15DeleteStatementEvEERKS_IT_E
FNDA:0,_ZNSt14default_deleteIN5sqlcc10sql_parser9StatementEEC2INS1_15InsertStatementEvEERKS_IT_E
FNDA:3,_ZNSt14default_deleteIN5sqlcc10sql_parser9StatementEEC2INS1_15RevokeStatementEvEERKS_IT_E
FNDA:0,_ZNSt14default_deleteIN5sqlcc10sql_parser9StatementEEC2INS1_15SelectStatementEvEERKS_IT_E
FNDA:0,_ZNSt14default_deleteIN5sqlcc10sql_parser9StatementEEC2INS1_15UpdateStatementEvEERKS_IT_E
FNDA:2,_ZNSt14default_deleteIN5sqlcc10sql_parser9StatementEEC2INS1_17DropUserStatementEvEERKS_IT_E
FNDA:2,_ZNSt14default_deleteIN5sqlcc10sql_parser9StatementEEC2INS1_19CreateUserStatementEvEERKS_IT_E
FNDA:0,_ZNKSt14default_deleteIN5sqlcc10sql_parser12UseStatementEEclEPS2_
FNDA:0,_ZNKSt14default_deleteIN5sqlcc10sql_parser13DropStatementEEclEPS2_
FNDA:0,_ZNKSt14default_deleteIN5sqlcc10sql_parser13ShowStatementEEclEPS2_
FNDA:0,_ZNKSt14default_deleteIN5sqlcc10sql_parser14AlterStatementEEclEPS2_
FNDA:0,_ZNKSt14default_deleteIN5sqlcc10sql_parser14GrantStatementEEclEPS2_
FNDA:0,_ZNKSt14default_deleteIN5sqlcc10sql_parser15CreateStatementEEclEPS2_
FNDA:0,_ZNKSt14default_deleteIN5sqlcc10sql_parser15DeleteStatementEEclEPS2_
FNDA:0,_ZNKSt14default_deleteIN5sqlcc10sql_parser15InsertStatementEEclEPS2_
FNDA:0,_ZNKSt14default_deleteIN5sqlcc10sql_parser15RevokeStatementEEclEPS2_
FNDA:0,_ZNKSt14default_deleteIN5sqlcc10sql_parser15SelectStatementEEclEPS2_
FNDA:0,_ZNKSt14default_deleteIN5sqlcc10sql_parser15UpdateStatementEEclEPS2_
FNDA:0,_ZNKSt14default_deleteIN5sqlcc10sql_parser17DropUserStatementEEclEPS2_
FNDA:0,_ZNKSt14default_deleteIN5sqlcc10sql_parser18DropIndexStatementEEclEPS2_
FNDA:0,_ZNKSt14default_deleteIN5sqlcc10sql_parser19CreateUserStatementEEclEPS2_
FNDA:0,_ZNKSt14default_deleteIN5sqlcc10sql_parser20CreateIndexStatementEEclEPS2_
FNDA:13,_ZNKSt14default_deleteIN5sqlcc10sql_parser9StatementEEclEPS2_
FNDA:0,_ZNKSt14default_deleteINSt7__cxx1112basic_stringIcSt11char_traitsIcESaIcEEEEclEPS5_
FNDA:0,_ZNKSt14default_deleteINSt7__cxx1118basic_stringstreamIcSt11char_traitsIcESaIcEEEEclEPS5_
FNF:309
FNH:105
DA:88,11
DA:93,13
DA:99,13
DA:100,13
DA:174,59
DA:176,15
DA:180,11
DA:181,11
DA:184,16
DA:185,16
DA:186,16
DA:189,0
DA:191,0
DA:192,0
DA:193,0
DA:197,283
DA:199,59
DA:201,24
DA:206,0
DA:208,0
DA:209,0
DA:210,0
DA:211,0
DA:212,0
DA:215,13
DA:217,13
DA:218,13
DA:219,13
DA:242,16
DA:243,0
DA:304,59
DA:305,59
DA:306,59
DA:317,15
DA:318,15
DA:319,15
DA:359,0
DA:360,0
DA:361,0
DA:366,16
DA:380,11
DA:381,11
DA:382,11
DA:398,226
DA:402,226
DA:403,226
DA:404,13
DA:405,226
DA:406,226
DA:414,0
DA:451,1
DA:453,1
DA:454,1
DA:460,32
DA:463,32
DA:469,59
DA:470,59
DA:475,24
DA:476,24
DA:486,13
DA:487,13
DA:494,13
DA:495,13
DA:837,0
DA:838,0
DA:861,0
DA:862,0
DA:1069,13
DA:1070,13
LF:69
LH:50
end_of_record
TN:
SF:/usr/include/c++/13/bits/unordered_map.h
FN:148,148,_ZNSt13unordered_mapINSt7__cxx1112basic_stringIcSt11char_traitsIcESaIcEEES5_St4hashIS5_ESt8equal_toIS5_ESaISt4pairIKS5_S5_EEEC2Ev
FN:986,987,_ZNSt13unordered_mapINSt7__cxx1112basic_stringIcSt11char_traitsIcESaIcEEES5_St4hashIS5_ESt8equal_toIS5_ESaISt4pairIKS5_S5_EEEixERSB_
FNDA:0,_ZNSt13unordered_mapINSt7__cxx1112basic_stringIcSt11char_traitsIcESaIcEEES5_St4hashIS5_ESt8equal_toIS5_ESaISt4pairIKS5_S5_EEEC2Ev
FNDA:0,_ZNSt13unordered_mapINSt7__cxx1112basic_stringIcSt11char_traitsIcESaIcEEES5_St4hashIS5_ESt8equal_toIS5_ESaISt4pairIKS5_S5_EEEixERSB_
FNF:2
FNH:0
DA:148,0
DA:986,0
DA:987,0
LF:3
LH:0
end_of_record
TN:
SF:/usr/include/c++/13/bits/vector.tcc
FN:111,127,_ZNSt6vectorIN5sqlcc10sql_parser15TableConstraintESaIS2_EE12emplace_backIJS2_EEERS2_DpOT_
FN:111,127,_ZNSt6vectorIN5sqlcc10sql_parser16ColumnDefinitionESaIS2_EE12emplace_backIJS2_EEERS2_DpOT_
FN:111,127,_ZNSt6vectorISt10unique_ptrIN5sqlcc10sql_parser9StatementESt14default_deleteIS3_EESaIS6_EE12emplace_backIJS6_EEERS6_DpOT_
FN:445,524,_ZNSt6vectorIN5sqlcc10sql_parser15TableConstraintESaIS2_EE17_M_realloc_insertIJS2_EEEvN9__gnu_cxx17__normal_iteratorIPS2_S4_EEDpOT_
FN:445,524,_ZNSt6vectorIN5sqlcc10sql_parser16ColumnDefinitionESaIS2_EE17_M_realloc_insertIJS2_EEEvN9__gnu_cxx17__normal_iteratorIPS2_S4_EEDpOT_
FN:445,524,_ZNSt6vectorINSt7__cxx1112basic_stringIcSt11char_traitsIcESaIcEEESaIS5_EE17_M_realloc_insertIJRKS5_EEEvN9__gnu_cxx17__normal_iteratorIPS5_S7_EEDpOT_
FN:445,524,_ZNSt6vectorIS_INSt7__cxx1112basic_stringIcSt11char_traitsIcESaIcEEESaIS5_EESaIS7_EE17_M_realloc_insertIJRKS7_EEEvN9__gnu_cxx17__normal_iteratorIPS7_S9_EEDpOT_
FN:445,524,_ZNSt6vectorISt10unique_ptrIN5sqlcc10sql_parser9StatementESt14default_deleteIS3_EESaIS6_EE17_M_realloc_insertIJS6_EEEvN9__gnu_cxx17__normal_iteratorIPS6_S8_EEDpOT_
FN:634,710,_ZNSt6vectorIhSaIhEE17_M_default_appendEm
FN:751,839,_ZNSt6vectorIhSaIhEE15_M_range_insertIN9__gnu_cxx17__normal_iteratorIPhS1_EEEEvS6_T_S7_St20forward_iterator_tag
FNDA:0,_ZNSt6vectorIN5sqlcc10sql_parser15TableConstraintESaIS2_EE12emplace_backIJS2_EEERS2_DpOT_
FNDA:2,_ZNSt6vectorIN5sqlcc10sql_parser16ColumnDefinitionESaIS2_EE12emplace_backIJS2_EEERS2_DpOT_
FNDA:13,_ZNSt6vectorISt10unique_ptrIN5sqlcc10sql_parser9StatementESt14default_deleteIS3_EESaIS6_EE12emplace_backIJS6_EEERS6_DpOT_
FNDA:0,_ZNSt6vectorIN5sqlcc10sql_parser15TableConstraintESaIS2_EE17_M_realloc_insertIJS2_EEEvN9__gnu_cxx17__normal_iteratorIPS2_S4_EEDpOT_
FNDA:2,_ZNSt6vectorIN5sqlcc10sql_parser16ColumnDefinitionESaIS2_EE17_M_realloc_insertIJS2_EEEvN9__gnu_cxx17__normal_iteratorIPS2_S4_EEDpOT_
FNDA:10,_ZNSt6vectorINSt7__cxx1112basic_stringIcSt11char_traitsIcESaIcEEESaIS5_EE17_M_realloc_insertIJRKS5_EEEvN9__gnu_cxx17__normal_iteratorIPS5_S7_EEDpOT_
FNDA:0,_ZNSt6vectorIS_INSt7__cxx1112basic_stringIcSt11char_traitsIcESaIcEEESaIS5_EESaIS7_EE17_M_realloc_insertIJRKS7_EEEvN9__gnu_cxx17__normal_iteratorIPS7_S9_EEDpOT_
FNDA:13,_ZNSt6vectorISt10unique_ptrIN5sqlcc10sql_parser9StatementESt14default_deleteIS3_EESaIS6_EE17_M_realloc_insertIJS6_EEEvN9__gnu_cxx17__normal_iteratorIPS6_S8_EEDpOT_
FNDA:0,_ZNSt6vectorIhSaIhEE17_M_default_appendEm
FNDA:1,_ZNSt6vectorIhSaIhEE15_M_range_insertIN9__gnu_cxx17__normal_iteratorIPhS1_EEEEvS6_T_S7_St20forward_iterator_tag
FNF:10
FNH:6
DA:111,15
DA:114,15
DA:117,0
DA:119,0
DA:123,15
DA:125,15
DA:445,25
DA:455,25
DA:456,25
DA:457,25
DA:458,25
DA:459,25
DA:460,25
DA:468,25
DA:469,25
DA:475,25
DA:480,23
DA:481,23
DA:483,23
DA:485,23
DA:486,23
DA:493,2
DA:494,2
DA:496,2
DA:500,2
DA:501,2
DA:504,0
DA:506,0
DA:507,0
DA:508,0
DA:510,0
DA:511,0
DA:512,0
DA:517,2
DA:519,25
DA:520,25
DA:521,25
DA:522,25
DA:523,25
DA:524,25
DA:634,0
DA:637,0
DA:639,0
DA:640,0
DA:641,0
DA:643,0
DA:644,0
DA:646,0
DA:649,0
DA:650,0
DA:651,0
DA:658,0
DA:659,0
DA:662,0
DA:663,0
DA:668,0
DA:669,0
DA:671,0
DA:673,0
DA:674,0
DA:676,0
DA:677,0
DA:703,0
DA:704,0
DA:705,0
DA:706,0
DA:707,0
DA:710,0
DA:751,1
DA:755,1
DA:757,1
DA:758,1
DA:759,1
DA:761,0
DA:762,0
DA:763,0
DA:766,0
DA:769,0
DA:770,0
DA:772,0
DA:774,0
DA:778,0
DA:781,0
DA:783,0
DA:784,0
DA:786,0
DA:789,0
DA:790,0
DA:792,0
DA:800,1
DA:801,1
DA:804,1
DA:805,1
DA:806,1
DA:811,1
DA:812,1
DA:814,1
DA:816,1
DA:819,1
DA:820,1
DA:822,0
DA:825,0
DA:826,0
DA:827,0
DA:830,1
DA:832,1
DA:833,1
DA:834,1
DA:835,1
DA:836,1
DA:839,1
LF:111
LH:54
end_of_record
TN:
SF:/usr/include/c++/13/ext/aligned_buffer.h
FN:104,107,_ZN9__gnu_cxx16__aligned_bufferIN5sqlcc7network12AESEncryptorEE7_M_addrEv
FN:104,107,_ZN9__gnu_cxx16__aligned_bufferIN5sqlcc7network13EncryptionKeyEE7_M_addrEv
FN:104,107,_ZN9__gnu_cxx16__aligned_bufferISt4pairIKNSt7__cxx1112basic_stringIcSt11char_traitsIcESaIcEEES7_EE7_M_addrEv
FN:110,113,_ZNK9__gnu_cxx16__aligned_bufferISt4pairIKNSt7__cxx1112basic_stringIcSt11char_traitsIcESaIcEEES7_EE7_M_addrEv
FN:116,117,_ZN9__gnu_cxx16__aligned_bufferIN5sqlcc7network12AESEncryptorEE6_M_ptrEv
FN:116,117,_ZN9__gnu_cxx16__aligned_bufferIN5sqlcc7network13EncryptionKeyEE6_M_ptrEv
FN:116,117,_ZN9__gnu_cxx16__aligned_bufferISt4pairIKNSt7__cxx1112basic_stringIcSt11char_traitsIcESaIcEEES7_EE6_M_ptrEv
FN:120,121,_ZNK9__gnu_cxx16__aligned_bufferISt4pairIKNSt7__cxx1112basic_stringIcSt11char_traitsIcESaIcEEES7_EE6_M_ptrEv
FNDA:18,_ZN9__gnu_cxx16__aligned_bufferIN5sqlcc7network12AESEncryptorEE7_M_addrEv
FNDA:75,_ZN9__gnu_cxx16__aligned_bufferIN5sqlcc7network13EncryptionKeyEE7_M_addrEv
FNDA:0,_ZN9__gnu_cxx16__aligned_bufferISt4pairIKNSt7__cxx1112basic_stringIcSt11char_traitsIcESaIcEEES7_EE7_M_addrEv
FNDA:0,_ZNK9__gnu_cxx16__aligned_bufferISt4pairIKNSt7__cxx1112basic_stringIcSt11char_traitsIcESaIcEEES7_EE7_M_addrEv
FNDA:18,_ZN9__gnu_cxx16__aligned_bufferIN5sqlcc7network12AESEncryptorEE6_M_ptrEv
FNDA:75,_ZN9__gnu_cxx16__aligned_bufferIN5sqlcc7network13EncryptionKeyEE6_M_ptrEv
FNDA:0,_ZN9__gnu_cxx16__aligned_bufferISt4pairIKNSt7__cxx1112basic_stringIcSt11char_traitsIcESaIcEEES7_EE6_M_ptrEv
FNDA:0,_ZNK9__gnu_cxx16__aligned_bufferISt4pairIKNSt7__cxx1112basic_stringIcSt11char_traitsIcESaIcEEES7_EE6_M_ptrEv
FNF:8
FNH:4
DA:104,93
DA:106,93
DA:110,0
DA:112,0
DA:116,93
DA:117,93
DA:120,0
DA:121,0
LF:8
LH:4
end_of_record
TN:
SF:/usr/include/c++/13/ext/alloc_traits.h
FNF:0
FNH:0
DA:98,55
LF:1
LH:1
end_of_record
TN:
SF:/usr/include/c++/13/ext/atomicity.h
FNF:0
FNH:0
DA:52,58
DA:66,0
DA:71,0
DA:84,29
DA:85,29
DA:86,29
DA:92,29
DA:98,29
DA:99,29
DA:101,0
DA:108,29
DA:112,29
LF:12
LH:9
end_of_record
TN:
SF:/usr/include/c++/13/ext/string_conversions.h
FN:56,96,_ZN9__gnu_cxx6__stoaIlicJiEEET0_PFT_PKT1_PPS3_DpT2_EPKcS5_PmS9_
FN:65,65,_ZZN9__gnu_cxx6__stoaIlicJiEEET0_PFT_PKT1_PPS3_DpT2_EPKcS5_PmS9_EN11_Save_errnoC2Ev
FN:66,66,_ZZN9__gnu_cxx6__stoaIlicJiEEET0_PFT_PKT1_PPS3_DpT2_EPKcS5_PmS9_EN11_Save_errnoD2Ev
FN:75,79,_ZZN9__gnu_cxx6__stoaIlicJiEEET0_PFT_PKT1_PPS3_DpT2_EPKcS5_PmS9_EN10_Range_chk6_S_chkElSt17integral_constantIbLb1EE
FNDA:32,_ZN9__gnu_cxx6__stoaIlicJiEEET0_PFT_PKT1_PPS3_DpT2_EPKcS5_PmS9_
FNDA:32,_ZZN9__gnu_cxx6__stoaIlicJiEEET0_PFT_PKT1_PPS3_DpT2_EPKcS5_PmS9_EN11_Save_errnoC2Ev
FNDA:32,_ZZN9__gnu_cxx6__stoaIlicJiEEET0_PFT_PKT1_PPS3_DpT2_EPKcS5_PmS9_EN11_Save_errnoD2Ev
FNDA:32,_ZZN9__gnu_cxx6__stoaIlicJiEEET0_PFT_PKT1_PPS3_DpT2_EPKcS5_PmS9_EN10_Range_chk6_S_chkElSt17integral_constantIbLb1EE
FNF:4
FNH:4
DA:56,32
DA:65,32
DA:66,32
DA:68,32
DA:75,32
DA:78,32
DA:82,32
DA:84,32
DA:85,0
DA:86,64
DA:87,32
DA:88,0
DA:90,32
DA:92,32
DA:93,0
DA:95,32
DA:96,32
LF:17
LH:14
end_of_record
TN:
SF:/usr/include/c++/13/initializer_list
FN:69,69,_ZNKSt16initializer_listIhE4sizeEv
FN:73,73,_ZNKSt16initializer_listIhE5beginEv
FN:77,77,_ZNKSt16initializer_listIhE3endEv
FNDA:6,_ZNKSt16initializer_listIhE4sizeEv
FNDA:12,_ZNKSt16initializer_listIhE5beginEv
FNDA:6,_ZNKSt16initializer_listIhE3endEv
FNF:3
FNH:3
DA:69,6
DA:73,12
DA:77,6
LF:3
LH:3
end_of_record
TN:
SF:/usr/include/c++/13/new
FN:174,175,_ZnwmPv
FN:180,180,_ZdlPvS_
FNDA:193,_ZnwmPv
FNDA:0,_ZdlPvS_
FNF:2
FNH:1
DA:174,193
DA:175,193
DA:180,0
LF:3
LH:2
end_of_record
TN:
SF:/usr/include/c++/13/tuple
FN:125,125,_ZNSt10_Head_baseILm1ESt14default_deleteIN5sqlcc10sql_parser12UseStatementEELb1EE7_M_headERS5_
FN:125,125,_ZNSt10_Head_baseILm1ESt14default_deleteIN5sqlcc10sql_parser13DropStatementEELb1EE7_M_headERS5_
FN:125,125,_ZNSt10_Head_baseILm1ESt14default_deleteIN5sqlcc10sql_parser13ShowStatementEELb1EE7_M_headERS5_
FN:125,125,_ZNSt10_Head_baseILm1ESt14default_deleteIN5sqlcc10sql_parser14AlterStatementEELb1EE7_M_headERS5_
FN:125,125,_ZNSt10_Head_baseILm1ESt14default_deleteIN5sqlcc10sql_parser14GrantStatementEELb1EE7_M_headERS5_
FN:125,125,_ZNSt10_Head_baseILm1ESt14default_deleteIN5sqlcc10sql_parser15CreateStatementEELb1EE7_M_headERS5_
FN:125,125,_ZNSt10_Head_baseILm1ESt14default_deleteIN5sqlcc10sql_parser15DeleteStatementEELb1EE7_M_headERS5_
FN:125,125,_ZNSt10_Head_baseILm1ESt14default_deleteIN5sqlcc10sql_parser15InsertStatementEELb1EE7_M_headERS5_
FN:125,125,_ZNSt10_Head_baseILm1ESt14default_deleteIN5sqlcc10sql_parser15RevokeStatementEELb1EE7_M_headERS5_
FN:125,125,_ZNSt10_Head_baseILm1ESt14default_deleteIN5sqlcc10sql_parser15SelectStatementEELb1EE7_M_headERS5_
FN:125,125,_ZNSt10_Head_baseILm1ESt14default_deleteIN5sqlcc10sql_parser15UpdateStatementEELb1EE7_M_headERS5_
FN:125,125,_ZNSt10_Head_baseILm1ESt14default_deleteIN5sqlcc10sql_parser17DropUserStatementEELb1EE7_M_headERS5_
FN:125,125,_ZNSt10_Head_baseILm1ESt14default_deleteIN5sqlcc10sql_parser18DropIndexStatementEELb1EE7_M_headERS5_
FN:125,125,_ZNSt10_Head_baseILm1ESt14default_deleteIN5sqlcc10sql_parser19CreateUserStatementEELb1EE7_M_headERS5_
FN:125,125,_ZNSt10_Head_baseILm1ESt14default_deleteIN5sqlcc10sql_parser20CreateIndexStatementEELb1EE7_M_headERS5_
FN:125,125,_ZNSt10_Head_baseILm1ESt14default_deleteIN5sqlcc10sql_parser9StatementEELb1EE7_M_headERS5_
FN:125,125,_ZNSt10_Head_baseILm1ESt14default_deleteINSt7__cxx1112basic_stringIcSt11char_traitsIcESaIcEEEELb1EE7_M_headERS8_
FN:125,125,_ZNSt10_Head_baseILm1ESt14default_deleteINSt7__cxx1118basic_stringstreamIcSt11char_traitsIcESaIcEEEELb1EE7_M_headERS8_
FN:1317,1319,_ZNSt5tupleIJPN5sqlcc10sql_parser12UseStatementESt14default_deleteIS2_EEEC2ILb1ELb1EEEv
FN:1317,1319,_ZNSt5tupleIJPN5sqlcc10sql_parser13DropStatementESt14default_deleteIS2_EEEC2ILb1ELb1EEEv
FN:1317,1319,_ZNSt5tupleIJPN5sqlcc10sql_parser13ShowStatementESt14default_deleteIS2_EEEC2ILb1ELb1EEEv
FN:1317,1319,_ZNSt5tupleIJPN5sqlcc10sql_parser14AlterStatementESt14default_deleteIS2_EEEC2ILb1ELb1EEEv
FN:1317,1319,_ZNSt5tupleIJPN5sqlcc10sql_parser14GrantStatementESt14default_deleteIS2_EEEC2ILb1ELb1EEEv
FN:1317,1319,_ZNSt5tupleIJPN5sqlcc10sql_parser15CreateStatementESt14default_deleteIS2_EEEC2ILb1ELb1EEEv
FN:1317,1319,_ZNSt5tupleIJPN5sqlcc10sql_parser15DeleteStatementESt14default_deleteIS2_EEEC2ILb1ELb1EEEv
FN:1317,1319,_ZNSt5tupleIJPN5sqlcc10sql_parser15InsertStatementESt14default_deleteIS2_EEEC2ILb1ELb1EEEv
FN:1317,1319,_ZNSt5tupleIJPN5sqlcc10sql_parser15RevokeStatementESt14default_deleteIS2_EEEC2ILb1ELb1EEEv
FN:1317,1319,_ZNSt5tupleIJPN5sqlcc10sql_parser15SelectStatementESt14default_deleteIS2_EEEC2ILb1ELb1EEEv
FN:1317,1319,_ZNSt5tupleIJPN5sqlcc10sql_parser15UpdateStatementESt14default_deleteIS2_EEEC2ILb1ELb1EEEv
FN:1317,1319,_ZNSt5tupleIJPN5sqlcc10sql_parser17DropUserStatementESt14default_deleteIS2_EEEC2ILb1ELb1EEEv
FN:1317,1319,_ZNSt5tupleIJPN5sqlcc10sql_parser18DropIndexStatementESt14default_deleteIS2_EEEC2ILb1ELb1EEEv
FN:1317,1319,_ZNSt5tupleIJPN5sqlcc10sql_parser19CreateUserStatementESt14default_deleteIS2_EEEC2ILb1ELb1EEEv
FN:1317,1319,_ZNSt5tupleIJPN5sqlcc10sql_parser20CreateIndexStatementESt14default_deleteIS2_EEEC2ILb1ELb1EEEv
FN:1317,1319,_ZNSt5tupleIJPN5sqlcc10sql_parser9StatementESt14default_deleteIS2_EEEC2ILb1ELb1EEEv
FN:1317,1319,_ZNSt5tupleIJPNSt7__cxx1112basic_stringIcSt11char_traitsIcESaIcEEESt14default_deleteIS5_EEEC2ILb1ELb1EEEv
FN:1345,1347,_ZNSt5tupleIJPN5sqlcc10sql_parser9StatementESt14default_deleteIS2_EEEC2IRS3_S4_INS1_12UseStatementEELb1EEEOT_OT0_
FN:1345,1347,_ZNSt5tupleIJPN5sqlcc10sql_parser9StatementESt14default_deleteIS2_EEEC2IRS3_S4_INS1_13ShowStatementEELb1EEEOT_OT0_
FN:1345,1347,_ZNSt5tupleIJPN5sqlcc10sql_parser9StatementESt14default_deleteIS2_EEEC2IRS3_S4_INS1_14AlterStatementEELb1EEEOT_OT0_
FN:1345,1347,_ZNSt5tupleIJPN5sqlcc10sql_parser9StatementESt14default_deleteIS2_EEEC2IRS3_S4_INS1_14GrantStatementEELb1EEEOT_OT0_
FN:1345,1347,_ZNSt5tupleIJPN5sqlcc10sql_parser9StatementESt14default_deleteIS2_EEEC2IRS3_S4_INS1_15DeleteStatementEELb1EEEOT_OT0_
FN:1345,1347,_ZNSt5tupleIJPN5sqlcc10sql_parser9StatementESt14default_deleteIS2_EEEC2IRS3_S4_INS1_15InsertStatementEELb1EEEOT_OT0_
FN:1345,1347,_ZNSt5tupleIJPN5sqlcc10sql_parser9StatementESt14default_deleteIS2_EEEC2IRS3_S4_INS1_15RevokeStatementEELb1EEEOT_OT0_
FN:1345,1347,_ZNSt5tupleIJPN5sqlcc10sql_parser9StatementESt14default_deleteIS2_EEEC2IRS3_S4_INS1_15SelectStatementEELb1EEEOT_OT0_
FN:1345,1347,_ZNSt5tupleIJPN5sqlcc10sql_parser9StatementESt14default_deleteIS2_EEEC2IRS3_S4_INS1_15UpdateStatementEELb1EEEOT_OT0_
FN:1345,1347,_ZNSt5tupleIJPN5sqlcc10sql_parser9StatementESt14default_deleteIS2_EEEC2IRS3_S4_INS1_17DropUserStatementEELb1EEEOT_OT0_
FN:1345,1347,_ZNSt5tupleIJPN5sqlcc10sql_parser9StatementESt14default_deleteIS2_EEEC2IRS3_S4_INS1_19CreateUserStatementEELb1EEEOT_OT0_
FN:1358,1358,_ZNSt5tupleIJPN5sqlcc10sql_parser12UseStatementESt14default_deleteIS2_EEEC2EOS6_
FN:1358,1358,_ZNSt5tupleIJPN5sqlcc10sql_parser13DropStatementESt14default_deleteIS2_EEEC2EOS6_
FN:1358,1358,_ZNSt5tupleIJPN5sqlcc10sql_parser14AlterStatementESt14default_deleteIS2_EEEC2EOS6_
FN:1358,1358,_ZNSt5tupleIJPN5sqlcc10sql_parser15CreateStatementESt14default_deleteIS2_EEEC2EOS6_
FN:1358,1358,_ZNSt5tupleIJPN5sqlcc10sql_parser15DeleteStatementESt14default_deleteIS2_EEEC2EOS6_
FN:1358,1358,_ZNSt5tupleIJPN5sqlcc10sql_parser15InsertStatementESt14default_deleteIS2_EEEC2EOS6_
FN:1358,1358,_ZNSt5tupleIJPN5sqlcc10sql_parser15UpdateStatementESt14default_deleteIS2_EEEC2EOS6_
FN:1358,1358,_ZNSt5tupleIJPN5sqlcc10sql_parser18DropIndexStatementESt14default_deleteIS2_EEEC2EOS6_
FN:1358,1358,_ZNSt5tupleIJPN5sqlcc10sql_parser20CreateIndexStatementESt14default_deleteIS2_EEEC2EOS6_
FN:1358,1358,_ZNSt5tupleIJPN5sqlcc10sql_parser9StatementESt14default_deleteIS2_EEEC2EOS6_
FN:1787,1788,_ZSt12__get_helperILm0EPN5sqlcc10sql_parser12UseStatementEJSt14default_deleteIS2_EEERT0_RSt11_Tuple_implIXT_EJS6_DpT1_EE
FN:1787,1788,_ZSt12__get_helperILm0EPN5sqlcc10sql_parser13DropStatementEJSt14default_deleteIS2_EEERT0_RSt11_Tuple_implIXT_EJS6_DpT1_EE
FN:1787,1788,_ZSt12__get_helperILm0EPN5sqlcc10sql_parser13ShowStatementEJSt14default_deleteIS2_EEERT0_RSt11_Tuple_implIXT_EJS6_DpT1_EE
FN:1787,1788,_ZSt12__get_helperILm0EPN5sqlcc10sql_parser14AlterStatementEJSt14default_deleteIS2_EEERT0_RSt11_Tuple_implIXT_EJS6_DpT1_EE
FN:1787,1788,_ZSt12__get_helperILm0EPN5sqlcc10sql_parser14GrantStatementEJSt14default_deleteIS2_EEERT0_RSt11_Tuple_implIXT_EJS6_DpT1_EE
FN:1787,1788,_ZSt12__get_helperILm0EPN5sqlcc10sql_parser15CreateStatementEJSt14default_deleteIS2_EEERT0_RSt11_Tuple_implIXT_EJS6_DpT1_EE
FN:1787,1788,_ZSt12__get_helperILm0EPN5sqlcc10sql_parser15DeleteStatementEJSt14default_deleteIS2_EEERT0_RSt11_Tuple_implIXT_EJS6_DpT1_EE
FN:1787,1788,_ZSt12__get_helperILm0EPN5sqlcc10sql_parser15InsertStatementEJSt14default_deleteIS2_EEERT0_RSt11_Tuple_implIXT_EJS6_DpT1_EE
FN:1787,1788,_ZSt12__get_helperILm0EPN5sqlcc10sql_parser15RevokeStatementEJSt14default_deleteIS2_EEERT0_RSt11_Tuple_implIXT_EJS6_DpT1_EE
FN:1787,1788,_ZSt12__get_helperILm0EPN5sqlcc10sql_parser15SelectStatementEJSt14default_deleteIS2_EEERT0_RSt11_Tuple_implIXT_EJS6_DpT1_EE
FN:1787,1788,_ZSt12__get_helperILm0EPN5sqlcc10sql_parser15UpdateStatementEJSt14default_deleteIS2_EEERT0_RSt11_Tuple_implIXT_EJS6_DpT1_EE
FN:1787,1788,_ZSt12__get_helperILm0EPN5sqlcc10sql_parser17DropUserStatementEJSt14default_deleteIS2_EEERT0_RSt11_Tuple_implIXT_EJS6_DpT1_EE
FN:1787,1788,_ZSt12__get_helperILm0EPN5sqlcc10sql_parser18DropIndexStatementEJSt14default_deleteIS2_EEERT0_RSt11_Tuple_implIXT_EJS6_DpT1_EE
FN:1787,1788,_ZSt12__get_helperILm0EPN5sqlcc10sql_parser19CreateUserStatementEJSt14default_deleteIS2_EEERT0_RSt11_Tuple_implIXT_EJS6_DpT1_EE
FN:1787,1788,_ZSt12__get_helperILm0EPN5sqlcc10sql_parser20CreateIndexStatementEJSt14default_deleteIS2_EEERT0_RSt11_Tuple_implIXT_EJS6_DpT1_EE
FN:1787,1788,_ZSt12__get_helperILm0EPN5sqlcc10sql_parser9StatementEJSt14default_deleteIS2_EEERT0_RSt11_Tuple_implIXT_EJS6_DpT1_EE
FN:1787,1788,_ZSt12__get_helperILm0EPNSt7__cxx1112basic_stringIcSt11char_traitsIcESaIcEEEJSt14default_deleteIS5_EEERT0_RSt11_Tuple_implIXT_EJS9_DpT1_EE
FN:1787,1788,_ZSt12__get_helperILm0EPNSt7__cxx1118basic_stringstreamIcSt11char_traitsIcESaIcEEEJSt14default_deleteIS5_EEERT0_RSt11_Tuple_implIXT_EJS9_DpT1_EE
FN:1787,1788,_ZSt12__get_helperILm0ERKNSt7__cxx1112basic_stringIcSt11char_traitsIcESaIcEEEJEERT0_RSt11_Tuple_implIXT_EJS8_DpT1_EE
FN:1787,1788,_ZSt12__get_helperILm1ESt14default_deleteIN5sqlcc10sql_parser12UseStatementEEJEERT0_RSt11_Tuple_implIXT_EJS5_DpT1_EE
FN:1787,1788,_ZSt12__get_helperILm1ESt14default_deleteIN5sqlcc10sql_parser13DropStatementEEJEERT0_RSt11_Tuple_implIXT_EJS5_DpT1_EE
FN:1787,1788,_ZSt12__get_helperILm1ESt14default_deleteIN5sqlcc10sql_parser13ShowStatementEEJEERT0_RSt11_Tuple_implIXT_EJS5_DpT1_EE
FN:1787,1788,_ZSt12__get_helperILm1ESt14default_deleteIN5sqlcc10sql_parser14AlterStatementEEJEERT0_RSt11_Tuple_implIXT_EJS5_DpT1_EE
FN:1787,1788,_ZSt12__get_helperILm1ESt14default_deleteIN5sqlcc10sql_parser14GrantStatementEEJEERT0_RSt11_Tuple_implIXT_EJS5_DpT1_EE
FN:1787,1788,_ZSt12__get_helperILm1ESt14default_deleteIN5sqlcc10sql_parser15CreateStatementEEJEERT0_RSt11_Tuple_implIXT_EJS5_DpT1_EE
FN:1787,1788,_ZSt12__get_helperILm1ESt14default_deleteIN5sqlcc10sql_parser15DeleteStatementEEJEERT0_RSt11_Tuple_implIXT_EJS5_DpT1_EE
FN:1787,1788,_ZSt12__get_helperILm1ESt14default_deleteIN5sqlcc10sql_parser15InsertStatementEEJEERT0_RSt11_Tuple_implIXT_EJS5_DpT1_EE
FN:1787,1788,_ZSt12__get_helperILm1ESt14default_deleteIN5sqlcc10sql_parser15RevokeStatementEEJEERT0_RSt11_Tuple_implIXT_EJS5_DpT1_EE
FN:1787,1788,_ZSt12__get_helperILm1ESt14default_deleteIN5sqlcc10sql_parser15SelectStatementEEJEERT0_RSt11_Tuple_implIXT_EJS5_DpT1_EE
FN:1787,1788,_ZSt12__get_helperILm1ESt14default_deleteIN5sqlcc10sql_parser15UpdateStatementEEJEERT0_RSt11_Tuple_implIXT_EJS5_DpT1_EE
FN:1787,1788,_ZSt12__get_helperILm1ESt14default_deleteIN5sqlcc10sql_parser17DropUserStatementEEJEERT0_RSt11_Tuple_implIXT_EJS5_DpT1_EE
FN:1787,1788,_ZSt12__get_helperILm1ESt14default_deleteIN5sqlcc10sql_parser18DropIndexStatementEEJEERT0_RSt11_Tuple_implIXT_EJS5_DpT1_EE
FN:1787,1788,_ZSt12__get_helperILm1ESt14default_deleteIN5sqlcc10sql_parser19CreateUserStatementEEJEERT0_RSt11_Tuple_implIXT_EJS5_DpT1_EE
FN:1787,1788,_ZSt12__get_helperILm1ESt14default_deleteIN5sqlcc10sql_parser20CreateIndexStatementEEJEERT0_RSt11_Tuple_implIXT_EJS5_DpT1_EE
FN:1787,1788,_ZSt12__get_helperILm1ESt14default_deleteIN5sqlcc10sql_parser9StatementEEJEERT0_RSt11_Tuple_implIXT_EJS5_DpT1_EE
FN:1787,1788,_ZSt12__get_helperILm1ESt14default_deleteINSt7__cxx1112basic_stringIcSt11char_traitsIcESaIcEEEEJEERT0_RSt11_Tuple_implIXT_EJS8_DpT1_EE
FN:1787,1788,_ZSt12__get_helperILm1ESt14default_deleteINSt7__cxx1118basic_stringstreamIcSt11char_traitsIcESaIcEEEEJEERT0_RSt11_Tuple_implIXT_EJS8_DpT1_EE
FN:1792,1793,_ZSt12__get_helperILm0EPN5sqlcc10sql_parser13ShowStatementEJSt14default_deleteIS2_EEERKT0_RKSt11_Tuple_implIXT_EJS6_DpT1_EE
FN:1792,1793,_ZSt12__get_helperILm0EPN5sqlcc10sql_parser14GrantStatementEJSt14default_deleteIS2_EEERKT0_RKSt11_Tuple_implIXT_EJS6_DpT1_EE
FN:1792,1793,_ZSt12__get_helperILm0EPN5sqlcc10sql_parser15CreateStatementEJSt14default_deleteIS2_EEERKT0_RKSt11_Tuple_implIXT_EJS6_DpT1_EE
FN:1792,1793,_ZSt12__get_helperILm0EPN5sqlcc10sql_parser15DeleteStatementEJSt14default_deleteIS2_EEERKT0_RKSt11_Tuple_implIXT_EJS6_DpT1_EE
FN:1792,1793,_ZSt12__get_helperILm0EPN5sqlcc10sql_parser15InsertStatementEJSt14default_deleteIS2_EEERKT0_RKSt11_Tuple_implIXT_EJS6_DpT1_EE
FN:1792,1793,_ZSt12__get_helperILm0EPN5sqlcc10sql_parser15RevokeStatementEJSt14default_deleteIS2_EEERKT0_RKSt11_Tuple_implIXT_EJS6_DpT1_EE
FN:1792,1793,_ZSt12__get_helperILm0EPN5sqlcc10sql_parser15SelectStatementEJSt14default_deleteIS2_EEERKT0_RKSt11_Tuple_implIXT_EJS6_DpT1_EE
FN:1792,1793,_ZSt12__get_helperILm0EPN5sqlcc10sql_parser15UpdateStatementEJSt14default_deleteIS2_EEERKT0_RKSt11_Tuple_implIXT_EJS6_DpT1_EE
FN:1792,1793,_ZSt12__get_helperILm0EPN5sqlcc10sql_parser17DropUserStatementEJSt14default_deleteIS2_EEERKT0_RKSt11_Tuple_implIXT_EJS6_DpT1_EE
FN:1792,1793,_ZSt12__get_helperILm0EPN5sqlcc10sql_parser18DropIndexStatementEJSt14default_deleteIS2_EEERKT0_RKSt11_Tuple_implIXT_EJS6_DpT1_EE
FN:1792,1793,_ZSt12__get_helperILm0EPN5sqlcc10sql_parser19CreateUserStatementEJSt14default_deleteIS2_EEERKT0_RKSt11_Tuple_implIXT_EJS6_DpT1_EE
FN:1792,1793,_ZSt12__get_helperILm0EPN5sqlcc10sql_parser20CreateIndexStatementEJSt14default_deleteIS2_EEERKT0_RKSt11_Tuple_implIXT_EJS6_DpT1_EE
FN:1792,1793,_ZSt12__get_helperILm0EPN5sqlcc10sql_parser9StatementEJSt14default_deleteIS2_EEERKT0_RKSt11_Tuple_implIXT_EJS6_DpT1_EE
FN:1792,1793,_ZSt12__get_helperILm0EPNSt7__cxx1112basic_stringIcSt11char_traitsIcESaIcEEEJSt14default_deleteIS5_EEERKT0_RKSt11_Tuple_implIXT_EJS9_DpT1_EE
FN:1792,1793,_ZSt12__get_helperILm0EPNSt7__cxx1118basic_stringstreamIcSt11char_traitsIcESaIcEEEJSt14default_deleteIS5_EEERKT0_RKSt11_Tuple_implIXT_EJS9_DpT1_EE
FN:1803,1804,_ZSt3getILm0EJPN5sqlcc10sql_parser12UseStatementESt14default_deleteIS2_EEERNSt13tuple_elementIXT_ESt5tupleIJDpT0_EEE4typeERSA_
FN:1803,1804,_ZSt3getILm0EJPN5sqlcc10sql_parser13DropStatementESt14default_deleteIS2_EEERNSt13tuple_elementIXT_ESt5tupleIJDpT0_EEE4typeERSA_
FN:1803,1804,_ZSt3getILm0EJPN5sqlcc10sql_parser13ShowStatementESt14default_deleteIS2_EEERNSt13tuple_elementIXT_ESt5tupleIJDpT0_EEE4typeERSA_
FN:1803,1804,_ZSt3getILm0EJPN5sqlcc10sql_parser14AlterStatementESt14default_deleteIS2_EEERNSt13tuple_elementIXT_ESt5tupleIJDpT0_EEE4typeERSA_
FN:1803,1804,_ZSt3getILm0EJPN5sqlcc10sql_parser14GrantStatementESt14default_deleteIS2_EEERNSt13tuple_elementIXT_ESt5tupleIJDpT0_EEE4typeERSA_
FN:1803,1804,_ZSt3getILm0EJPN5sqlcc10sql_parser15CreateStatementESt14default_deleteIS2_EEERNSt13tuple_elementIXT_ESt5tupleIJDpT0_EEE4typeERSA_
FN:1803,1804,_ZSt3getILm0EJPN5sqlcc10sql_parser15DeleteStatementESt14default_deleteIS2_EEERNSt13tuple_elementIXT_ESt5tupleIJDpT0_EEE4typeERSA_
FN:1803,1804,_ZSt3getILm0EJPN5sqlcc10sql_parser15InsertStatementESt14default_deleteIS2_EEERNSt13tuple_elementIXT_ESt5tupleIJDpT0_EEE4typeERSA_
FN:1803,1804,_ZSt3getILm0EJPN5sqlcc10sql_parser15RevokeStatementESt14default_deleteIS2_EEERNSt13tuple_elementIXT_ESt5tupleIJDpT0_EEE4typeERSA_
FN:1803,1804,_ZSt3getILm0EJPN5sqlcc10sql_parser15SelectStatementESt14default_deleteIS2_EEERNSt13tuple_elementIXT_ESt5tupleIJDpT0_EEE4typeERSA_
FN:1803,1804,_ZSt3getILm0EJPN5sqlcc10sql_parser15UpdateStatementESt14default_deleteIS2_EEERNSt13tuple_elementIXT_ESt5tupleIJDpT0_EEE4typeERSA_
FN:1803,1804,_ZSt3getILm0EJPN5sqlcc10sql_parser17DropUserStatementESt14default_deleteIS2_EEERNSt13tuple_elementIXT_ESt5tupleIJDpT0_EEE4typeERSA_
FN:1803,1804,_ZSt3getILm0EJPN5sqlcc10sql_parser18DropIndexStatementESt14default_deleteIS2_EEERNSt13tuple_elementIXT_ESt5tupleIJDpT0_EEE4typeERSA_
FN:1803,1804,_ZSt3getILm0EJPN5sqlcc10sql_parser19CreateUserStatementESt14default_deleteIS2_EEERNSt13tuple_elementIXT_ESt5tupleIJDpT0_EEE4typeERSA_
FN:1803,1804,_ZSt3getILm0EJPN5sqlcc10sql_parser20CreateIndexStatementESt14default_deleteIS2_EEERNSt13tuple_elementIXT_ESt5tupleIJDpT0_EEE4typeERSA_
FN:1803,1804,_ZSt3getILm0EJPN5sqlcc10sql_parser9StatementESt14default_deleteIS2_EEERNSt13tuple_elementIXT_ESt5tupleIJDpT0_EEE4typeERSA_
FN:1803,1804,_ZSt3getILm0EJPNSt7__cxx1112basic_stringIcSt11char_traitsIcESaIcEEESt14default_deleteIS5_EEERNSt13tuple_elementIXT_ESt5tupleIJDpT0_EEE4typeERSD_
FN:1803,1804,_ZSt3getILm0EJPNSt7__cxx1118basic_stringstreamIcSt11char_traitsIcESaIcEEESt14default_deleteIS5_EEERNSt13tuple_elementIXT_ESt5tupleIJDpT0_EEE4typeERSD_
FN:1803,1804,_ZSt3getILm0EJRKNSt7__cxx1112basic_stringIcSt11char_traitsIcESaIcEEEEERNSt13tuple_elementIXT_ESt5tupleIJDpT0_EEE4typeERSC_
FN:1803,1804,_ZSt3getILm1EJPN5sqlcc10sql_parser12UseStatementESt14default_deleteIS2_EEERNSt13tuple_elementIXT_ESt5tupleIJDpT0_EEE4typeERSA_
FN:1803,1804,_ZSt3getILm1EJPN5sqlcc10sql_parser13DropStatementESt14default_deleteIS2_EEERNSt13tuple_elementIXT_ESt5tupleIJDpT0_EEE4typeERSA_
FN:1803,1804,_ZSt3getILm1EJPN5sqlcc10sql_parser13ShowStatementESt14default_deleteIS2_EEERNSt13tuple_elementIXT_ESt5tupleIJDpT0_EEE4typeERSA_
FN:1803,1804,_ZSt3getILm1EJPN5sqlcc10sql_parser14AlterStatementESt14default_deleteIS2_EEERNSt13tuple_elementIXT_ESt5tupleIJDpT0_EEE4typeERSA_
FN:1803,1804,_ZSt3getILm1EJPN5sqlcc10sql_parser14GrantStatementESt14default_deleteIS2_EEERNSt13tuple_elementIXT_ESt5tupleIJDpT0_EEE4typeERSA_
FN:1803,1804,_ZSt3getILm1EJPN5sqlcc10sql_parser15CreateStatementESt14default_deleteIS2_EEERNSt13tuple_elementIXT_ESt5tupleIJDpT0_EEE4typeERSA_
FN:1803,1804,_ZSt3getILm1EJPN5sqlcc10sql_parser15DeleteStatementESt14default_deleteIS2_EEERNSt13tuple_elementIXT_ESt5tupleIJDpT0_EEE4typeERSA_
FN:1803,1804,_ZSt3getILm1EJPN5sqlcc10sql_parser15InsertStatementESt14default_deleteIS2_EEERNSt13tuple_elementIXT_ESt5tupleIJDpT0_EEE4typeERSA_
FN:1803,1804,_ZSt3getILm1EJPN5sqlcc10sql_parser15RevokeStatementESt14default_deleteIS2_EEERNSt13tuple_elementIXT_ESt5tupleIJDpT0_EEE4typeERSA_
FN:1803,1804,_ZSt3getILm1EJPN5sqlcc10sql_parser15SelectStatementESt14default_deleteIS2_EEERNSt13tuple_elementIXT_ESt5tupleIJDpT0_EEE4typeERSA_
FN:1803,1804,_ZSt3getILm1EJPN5sqlcc10sql_parser15UpdateStatementESt14default_deleteIS2_EEERNSt13tuple_elementIXT_ESt5tupleIJDpT0_EEE4typeERSA_
FN:1803,1804,_ZSt3getILm1EJPN5sqlcc10sql_parser17DropUserStatementESt14default_deleteIS2_EEERNSt13tuple_elementIXT_ESt5tupleIJDpT0_EEE4typeERSA_
FN:1803,1804,_ZSt3getILm1EJPN5sqlcc10sql_parser18DropIndexStatementESt14default_deleteIS2_EEERNSt13tuple_elementIXT_ESt5tupleIJDpT0_EEE4typeERSA_
FN:1803,1804,_ZSt3getILm1EJPN5sqlcc10sql_parser19CreateUserStatementESt14default_deleteIS2_EEERNSt13tuple_elementIXT_ESt5tupleIJDpT0_EEE4typeERSA_
FN:1803,1804,_ZSt3getILm1EJPN5sqlcc10sql_parser20CreateIndexStatementESt14default_deleteIS2_EEERNSt13tuple_elementIXT_ESt5tupleIJDpT0_EEE4typeERSA_
FN:1803,1804,_ZSt3getILm1EJPN5sqlcc10sql_parser9StatementESt14default_deleteIS2_EEERNSt13tuple_elementIXT_ESt5tupleIJDpT0_EEE4typeERSA_
FN:1803,1804,_ZSt3getILm1EJPNSt7__cxx1112basic_stringIcSt11char_traitsIcESaIcEEESt14default_deleteIS5_EEERNSt13tuple_elementIXT_ESt5tupleIJDpT0_EEE4typeERSD_
FN:1803,1804,_ZSt3getILm1EJPNSt7__cxx1118basic_stringstreamIcSt11char_traitsIcESaIcEEESt14default_deleteIS5_EEERNSt13tuple_elementIXT_ESt5tupleIJDpT0_EEE4typeERSD_
FN:1809,1810,_ZSt3getILm0EJPN5sqlcc10sql_parser13ShowStatementESt14default_deleteIS2_EEERKNSt13tuple_elementIXT_ESt5tupleIJDpT0_EEE4typeERKSA_
FN:1809,1810,_ZSt3getILm0EJPN5sqlcc10sql_parser14GrantStatementESt14default_deleteIS2_EEERKNSt13tuple_elementIXT_ESt5tupleIJDpT0_EEE4typeERKSA_
FN:1809,1810,_ZSt3getILm0EJPN5sqlcc10sql_parser15CreateStatementESt14default_deleteIS2_EEERKNSt13tuple_elementIXT_ESt5tupleIJDpT0_EEE4typeERKSA_
FN:1809,1810,_ZSt3getILm0EJPN5sqlcc10sql_parser15DeleteStatementESt14default_deleteIS2_EEERKNSt13tuple_elementIXT_ESt5tupleIJDpT0_EEE4typeERKSA_
FN:1809,1810,_ZSt3getILm0EJPN5sqlcc10sql_parser15InsertStatementESt14default_deleteIS2_EEERKNSt13tuple_elementIXT_ESt5tupleIJDpT0_EEE4typeERKSA_
FN:1809,1810,_ZSt3getILm0EJPN5sqlcc10sql_parser15RevokeStatementESt14default_deleteIS2_EEERKNSt13tuple_elementIXT_ESt5tupleIJDpT0_EEE4typeERKSA_
FN:1809,1810,_ZSt3getILm0EJPN5sqlcc10sql_parser15SelectStatementESt14default_deleteIS2_EEERKNSt13tuple_elementIXT_ESt5tupleIJDpT0_EEE4typeERKSA_
FN:1809,1810,_ZSt3getILm0EJPN5sqlcc10sql_parser15UpdateStatementESt14default_deleteIS2_EEERKNSt13tuple_elementIXT_ESt5tupleIJDpT0_EEE4typeERKSA_
FN:1809,1810,_ZSt3getILm0EJPN5sqlcc10sql_parser17DropUserStatementESt14default_deleteIS2_EEERKNSt13tuple_elementIXT_ESt5tupleIJDpT0_EEE4typeERKSA_
FN:1809,1810,_ZSt3getILm0EJPN5sqlcc10sql_parser18DropIndexStatementESt14default_deleteIS2_EEERKNSt13tuple_elementIXT_ESt5tupleIJDpT0_EEE4typeERKSA_
FN:1809,1810,_ZSt3getILm0EJPN5sqlcc10sql_parser19CreateUserStatementESt14default_deleteIS2_EEERKNSt13tuple_elementIXT_ESt5tupleIJDpT0_EEE4typeERKSA_
FN:1809,1810,_ZSt3getILm0EJPN5sqlcc10sql_parser20CreateIndexStatementESt14default_deleteIS2_EEERKNSt13tuple_elementIXT_ESt5tupleIJDpT0_EEE4typeERKSA_
FN:1809,1810,_ZSt3getILm0EJPN5sqlcc10sql_parser9StatementESt14default_deleteIS2_EEERKNSt13tuple_elementIXT_ESt5tupleIJDpT0_EEE4typeERKSA_
FN:1809,1810,_ZSt3getILm0EJPNSt7__cxx1112basic_stringIcSt11char_traitsIcESaIcEEESt14default_deleteIS5_EEERKNSt13tuple_elementIXT_ESt5tupleIJDpT0_EEE4typeERKSD_
FN:1809,1810,_ZSt3getILm0EJPNSt7__cxx1118basic_stringstreamIcSt11char_traitsIcESaIcEEESt14default_deleteIS5_EEERKNSt13tuple_elementIXT_ESt5tupleIJDpT0_EEE4typeERKSD_
FN:190,191,_ZNSt10_Head_baseILm0EPN5sqlcc10sql_parser12UseStatementELb0EEC2Ev
FN:190,191,_ZNSt10_Head_baseILm0EPN5sqlcc10sql_parser13DropStatementELb0EEC2Ev
FN:190,191,_ZNSt10_Head_baseILm0EPN5sqlcc10sql_parser13ShowStatementELb0EEC2Ev
FN:190,191,_ZNSt10_Head_baseILm0EPN5sqlcc10sql_parser14AlterStatementELb0EEC2Ev
FN:190,191,_ZNSt10_Head_baseILm0EPN5sqlcc10sql_parser14GrantStatementELb0EEC2Ev
FN:190,191,_ZNSt10_Head_baseILm0EPN5sqlcc10sql_parser15CreateStatementELb0EEC2Ev
FN:190,191,_ZNSt10_Head_baseILm0EPN5sqlcc10sql_parser15DeleteStatementELb0EEC2Ev
FN:190,191,_ZNSt10_Head_baseILm0EPN5sqlcc10sql_parser15InsertStatementELb0EEC2Ev
FN:190,191,_ZNSt10_Head_baseILm0EPN5sqlcc10sql_parser15RevokeStatementELb0EEC2Ev
FN:190,191,_ZNSt10_Head_baseILm0EPN5sqlcc10sql_parser15SelectStatementELb0EEC2Ev
FN:190,191,_ZNSt10_Head_baseILm0EPN5sqlcc10sql_parser15UpdateStatementELb0EEC2Ev
FN:190,191,_ZNSt10_Head_baseILm0EPN5sqlcc10sql_parser17DropUserStatementELb0EEC2Ev
FN:190,191,_ZNSt10_Head_baseILm0EPN5sqlcc10sql_parser18DropIndexStatementELb0EEC2Ev
FN:190,191,_ZNSt10_Head_baseILm0EPN5sqlcc10sql_parser19CreateUserStatementELb0EEC2Ev
FN:190,191,_ZNSt10_Head_baseILm0EPN5sqlcc10sql_parser20CreateIndexStatementELb0EEC2Ev
FN:190,191,_ZNSt10_Head_baseILm0EPN5sqlcc10sql_parser9StatementELb0EEC2Ev
FN:190,191,_ZNSt10_Head_baseILm0EPNSt7__cxx1112basic_stringIcSt11char_traitsIcESaIcEEELb0EEC2Ev
FN:193,194,_ZNSt10_Head_baseILm0ERKNSt7__cxx1112basic_stringIcSt11char_traitsIcESaIcEEELb0EEC2ES7_
FN:200,201,_ZNSt10_Head_baseILm0EPN5sqlcc10sql_parser9StatementELb0EEC2IRS3_EEOT_
FN:2252,2258,_ZNSt4pairIKNSt7__cxx1112basic_stringIcSt11char_traitsIcESaIcEEES5_EC2IJRS6_EJEEESt21piecewise_construct_tSt5tupleIJDpT_EESB_IJDpT0_EE
FN:2264,2269,_ZNSt4pairIKNSt7__cxx1112basic_stringIcSt11char_traitsIcESaIcEEES5_EC2IJRS6_EJLm0EEJEJEEERSt5tupleIJDpT_EERSA_IJDpT1_EESt12_Index_tupleIJXspT0_EEESJ_IJXspT2_EEE
FN:234,234,_ZNSt10_Head_baseILm0EPN5sqlcc10sql_parser12UseStatementELb0EE7_M_headERS4_
FN:234,234,_ZNSt10_Head_baseILm0EPN5sqlcc10sql_parser13DropStatementELb0EE7_M_headERS4_
FN:234,234,_ZNSt10_Head_baseILm0EPN5sqlcc10sql_parser13ShowStatementELb0EE7_M_headERS4_
FN:234,234,_ZNSt10_Head_baseILm0EPN5sqlcc10sql_parser14AlterStatementELb0EE7_M_headERS4_
FN:234,234,_ZNSt10_Head_baseILm0EPN5sqlcc10sql_parser14GrantStatementELb0EE7_M_headERS4_
FN:234,234,_ZNSt10_Head_baseILm0EPN5sqlcc10sql_parser15CreateStatementELb0EE7_M_headERS4_
FN:234,234,_ZNSt10_Head_baseILm0EPN5sqlcc10sql_parser15DeleteStatementELb0EE7_M_headERS4_
FN:234,234,_ZNSt10_Head_baseILm0EPN5sqlcc10sql_parser15InsertStatementELb0EE7_M_headERS4_
FN:234,234,_ZNSt10_Head_baseILm0EPN5sqlcc10sql_parser15RevokeStatementELb0EE7_M_headERS4_
FN:234,234,_ZNSt10_Head_baseILm0EPN5sqlcc10sql_parser15SelectStatementELb0EE7_M_headERS4_
FN:234,234,_ZNSt10_Head_baseILm0EPN5sqlcc10sql_parser15UpdateStatementELb0EE7_M_headERS4_
FN:234,234,_ZNSt10_Head_baseILm0EPN5sqlcc10sql_parser17DropUserStatementELb0EE7_M_headERS4_
FN:234,234,_ZNSt10_Head_baseILm0EPN5sqlcc10sql_parser18DropIndexStatementELb0EE7_M_headERS4_
FN:234,234,_ZNSt10_Head_baseILm0EPN5sqlcc10sql_parser19CreateUserStatementELb0EE7_M_headERS4_
FN:234,234,_ZNSt10_Head_baseILm0EPN5sqlcc10sql_parser20CreateIndexStatementELb0EE7_M_headERS4_
FN:234,234,_ZNSt10_Head_baseILm0EPN5sqlcc10sql_parser9StatementELb0EE7_M_headERS4_
FN:234,234,_ZNSt10_Head_baseILm0EPNSt7__cxx1112basic_stringIcSt11char_traitsIcESaIcEEELb0EE7_M_headERS7_
FN:234,234,_ZNSt10_Head_baseILm0EPNSt7__cxx1118basic_stringstreamIcSt11char_traitsIcESaIcEEELb0EE7_M_headERS7_
FN:234,234,_ZNSt10_Head_baseILm0ERKNSt7__cxx1112basic_stringIcSt11char_traitsIcESaIcEEELb0EE7_M_headERS8_
FN:237,237,_ZNSt10_Head_baseILm0EPN5sqlcc10sql_parser13ShowStatementELb0EE7_M_headERKS4_
FN:237,237,_ZNSt10_Head_baseILm0EPN5sqlcc10sql_parser14GrantStatementELb0EE7_M_headERKS4_
FN:237,237,_ZNSt10_Head_baseILm0EPN5sqlcc10sql_parser15CreateStatementELb0EE7_M_headERKS4_
FN:237,237,_ZNSt10_Head_baseILm0EPN5sqlcc10sql_parser15DeleteStatementELb0EE7_M_headERKS4_
FN:237,237,_ZNSt10_Head_baseILm0EPN5sqlcc10sql_parser15InsertStatementELb0EE7_M_headERKS4_
FN:237,237,_ZNSt10_Head_baseILm0EPN5sqlcc10sql_parser15RevokeStatementELb0EE7_M_headERKS4_
FN:237,237,_ZNSt10_Head_baseILm0EPN5sqlcc10sql_parser15SelectStatementELb0EE7_M_headERKS4_
FN:237,237,_ZNSt10_Head_baseILm0EPN5sqlcc10sql_parser15UpdateStatementELb0EE7_M_headERKS4_
FN:237,237,_ZNSt10_Head_baseILm0EPN5sqlcc10sql_parser17DropUserStatementELb0EE7_M_headERKS4_
FN:237,237,_ZNSt10_Head_baseILm0EPN5sqlcc10sql_parser18DropIndexStatementELb0EE7_M_headERKS4_
FN:237,237,_ZNSt10_Head_baseILm0EPN5sqlcc10sql_parser19CreateUserStatementELb0EE7_M_headERKS4_
FN:237,237,_ZNSt10_Head_baseILm0EPN5sqlcc10sql_parser20CreateIndexStatementELb0EE7_M_headERKS4_
FN:237,237,_ZNSt10_Head_baseILm0EPN5sqlcc10sql_parser9StatementELb0EE7_M_headERKS4_
FN:237,237,_ZNSt10_Head_baseILm0EPNSt7__cxx1112basic_stringIcSt11char_traitsIcESaIcEEELb0EE7_M_headERKS7_
FN:237,237,_ZNSt10_Head_baseILm0EPNSt7__cxx1118basic_stringstreamIcSt11char_traitsIcESaIcEEELb0EE7_M_headERKS7_
FN:269,269,_ZNSt11_Tuple_implILm0EJPN5sqlcc10sql_parser12UseStatementESt14default_deleteIS2_EEE7_M_headERS6_
FN:269,269,_ZNSt11_Tuple_implILm0EJPN5sqlcc10sql_parser13DropStatementESt14default_deleteIS2_EEE7_M_headERS6_
FN:269,269,_ZNSt11_Tuple_implILm0EJPN5sqlcc10sql_parser13ShowStatementESt14default_deleteIS2_EEE7_M_headERS6_
FN:269,269,_ZNSt11_Tuple_implILm0EJPN5sqlcc10sql_parser14AlterStatementESt14default_deleteIS2_EEE7_M_headERS6_
FN:269,269,_ZNSt11_Tuple_implILm0EJPN5sqlcc10sql_parser14GrantStatementESt14default_deleteIS2_EEE7_M_headERS6_
FN:269,269,_ZNSt11_Tuple_implILm0EJPN5sqlcc10sql_parser15CreateStatementESt14default_deleteIS2_EEE7_M_headERS6_
FN:269,269,_ZNSt11_Tuple_implILm0EJPN5sqlcc10sql_parser15DeleteStatementESt14default_deleteIS2_EEE7_M_headERS6_
FN:269,269,_ZNSt11_Tuple_implILm0EJPN5sqlcc10sql_parser15InsertStatementESt14default_deleteIS2_EEE7_M_headERS6_
FN:269,269,_ZNSt11_Tuple_implILm0EJPN5sqlcc10sql_parser15RevokeStatementESt14default_deleteIS2_EEE7_M_headERS6_
FN:269,269,_ZNSt11_Tuple_implILm0EJPN5sqlcc10sql_parser15SelectStatementESt14default_deleteIS2_EEE7_M_headERS6_
FN:269,269,_ZNSt11_Tuple_implILm0EJPN5sqlcc10sql_parser15UpdateStatementESt14default_deleteIS2_EEE7_M_headERS6_
FN:269,269,_ZNSt11_Tuple_implILm0EJPN5sqlcc10sql_parser17DropUserStatementESt14default_deleteIS2_EEE7_M_headERS6_
FN:269,269,_ZNSt11_Tuple_implILm0EJPN5sqlcc10sql_parser18DropIndexStatementESt14default_deleteIS2_EEE7_M_headERS6_
FN:269,269,_ZNSt11_Tuple_implILm0EJPN5sqlcc10sql_parser19CreateUserStatementESt14default_deleteIS2_EEE7_M_headERS6_
FN:269,269,_ZNSt11_Tuple_implILm0EJPN5sqlcc10sql_parser20CreateIndexStatementESt14default_deleteIS2_EEE7_M_headERS6_
FN:269,269,_ZNSt11_Tuple_implILm0EJPN5sqlcc10sql_parser9StatementESt14default_deleteIS2_EEE7_M_headERS6_
FN:269,269,_ZNSt11_Tuple_implILm0EJPNSt7__cxx1112basic_stringIcSt11char_traitsIcESaIcEEESt14default_deleteIS5_EEE7_M_headERS9_
FN:269,269,_ZNSt11_Tuple_implILm0EJPNSt7__cxx1118basic_stringstreamIcSt11char_traitsIcESaIcEEESt14default_deleteIS5_EEE7_M_headERS9_
FN:272,272,_ZNSt11_Tuple_implILm0EJPN5sqlcc10sql_parser13ShowStatementESt14default_deleteIS2_EEE7_M_headERKS6_
FN:272,272,_ZNSt11_Tuple_implILm0EJPN5sqlcc10sql_parser14GrantStatementESt14default_deleteIS2_EEE7_M_headERKS6_
FN:272,272,_ZNSt11_Tuple_implILm0EJPN5sqlcc10sql_parser15CreateStatementESt14default_deleteIS2_EEE7_M_headERKS6_
FN:272,272,_ZNSt11_Tuple_implILm0EJPN5sqlcc10sql_parser15DeleteStatementESt14default_deleteIS2_EEE7_M_headERKS6_
FN:272,272,_ZNSt11_Tuple_implILm0EJPN5sqlcc10sql_parser15InsertStatementESt14default_deleteIS2_EEE7_M_headERKS6_
FN:272,272,_ZNSt11_Tuple_implILm0EJPN5sqlcc10sql_parser15RevokeStatementESt14default_deleteIS2_EEE7_M_headERKS6_
FN:272,272,_ZNSt11_Tuple_implILm0EJPN5sqlcc10sql_parser15SelectStatementESt14default_deleteIS2_EEE7_M_headERKS6_
FN:272,272,_ZNSt11_Tuple_implILm0EJPN5sqlcc10sql_parser15UpdateStatementESt14default_deleteIS2_EEE7_M_headERKS6_
FN:272,272,_ZNSt11_Tuple_implILm0EJPN5sqlcc10sql_parser17DropUserStatementESt14default_deleteIS2_EEE7_M_headERKS6_
FN:272,272,_ZNSt11_Tuple_implILm0EJPN5sqlcc10sql_parser18DropIndexStatementESt14default_deleteIS2_EEE7_M_headERKS6_
FN:272,272,_ZNSt11_Tuple_implILm0EJPN5sqlcc10sql_parser19CreateUserStatementESt14default_deleteIS2_EEE7_M_headERKS6_
FN:272,272,_ZNSt11_Tuple_implILm0EJPN5sqlcc10sql_parser20CreateIndexStatementESt14default_deleteIS2_EEE7_M_headERKS6_
FN:272,272,_ZNSt11_Tuple_implILm0EJPN5sqlcc10sql_parser9StatementESt14default_deleteIS2_EEE7_M_headERKS6_
FN:272,272,_ZNSt11_Tuple_implILm0EJPNSt7__cxx1112basic_stringIcSt11char_traitsIcESaIcEEESt14default_deleteIS5_EEE7_M_headERKS9_
FN:272,272,_ZNSt11_Tuple_implILm0EJPNSt7__cxx1118basic_stringstreamIcSt11char_traitsIcESaIcEEESt14default_deleteIS5_EEE7_M_headERKS9_
FN:280,281,_ZNSt11_Tuple_implILm0EJPN5sqlcc10sql_parser12UseStatementESt14default_deleteIS2_EEEC2Ev
FN:280,281,_ZNSt11_Tuple_implILm0EJPN5sqlcc10sql_parser13DropStatementESt14default_deleteIS2_EEEC2Ev
FN:280,281,_ZNSt11_Tuple_implILm0EJPN5sqlcc10sql_parser13ShowStatementESt14default_deleteIS2_EEEC2Ev
FN:280,281,_ZNSt11_Tuple_implILm0EJPN5sqlcc10sql_parser14AlterStatementESt14default_deleteIS2_EEEC2Ev
FN:280,281,_ZNSt11_Tuple_implILm0EJPN5sqlcc10sql_parser14GrantStatementESt14default_deleteIS2_EEEC2Ev
FN:280,281,_ZNSt11_Tuple_implILm0EJPN5sqlcc10sql_parser15CreateStatementESt14default_deleteIS2_EEEC2Ev
FN:280,281,_ZNSt11_Tuple_implILm0EJPN5sqlcc10sql_parser15DeleteStatementESt14default_deleteIS2_EEEC2Ev
FN:280,281,_ZNSt11_Tuple_implILm0EJPN5sqlcc10sql_parser15InsertStatementESt14default_deleteIS2_EEEC2Ev
FN:280,281,_ZNSt11_Tuple_implILm0EJPN5sqlcc10sql_parser15RevokeStatementESt14default_deleteIS2_EEEC2Ev
FN:280,281,_ZNSt11_Tuple_implILm0EJPN5sqlcc10sql_parser15SelectStatementESt14default_deleteIS2_EEEC2Ev
FN:280,281,_ZNSt11_Tuple_implILm0EJPN5sqlcc10sql_parser15UpdateStatementESt14default_deleteIS2_EEEC2Ev
FN:280,281,_ZNSt11_Tuple_implILm0EJPN5sqlcc10sql_parser17DropUserStatementESt14default_deleteIS2_EEEC2Ev
FN:280,281,_ZNSt11_Tuple_implILm0EJPN5sqlcc10sql_parser18DropIndexStatementESt14default_deleteIS2_EEEC2Ev
FN:280,281,_ZNSt11_Tuple_implILm0EJPN5sqlcc10sql_parser19CreateUserStatementESt14default_deleteIS2_EEEC2Ev
FN:280,281,_ZNSt11_Tuple_implILm0EJPN5sqlcc10sql_parser20CreateIndexStatementESt14default_deleteIS2_EEEC2Ev
FN:280,281,_ZNSt11_Tuple_implILm0EJPN5sqlcc10sql_parser9StatementESt14default_deleteIS2_EEEC2Ev
FN:280,281,_ZNSt11_Tuple_implILm0EJPNSt7__cxx1112basic_stringIcSt11char_traitsIcESaIcEEESt14default_deleteIS5_EEEC2Ev
FN:291,294,_ZNSt11_Tuple_implILm0EJPN5sqlcc10sql_parser9StatementESt14default_deleteIS2_EEEC2IRS3_JS4_INS1_12UseStatementEEEvEEOT_DpOT0_
FN:291,294,_ZNSt11_Tuple_implILm0EJPN5sqlcc10sql_parser9StatementESt14default_deleteIS2_EEEC2IRS3_JS4_INS1_13ShowStatementEEEvEEOT_DpOT0_
FN:291,294,_ZNSt11_Tuple_implILm0EJPN5sqlcc10sql_parser9StatementESt14default_deleteIS2_EEEC2IRS3_JS4_INS1_14AlterStatementEEEvEEOT_DpOT0_
FN:291,294,_ZNSt11_Tuple_implILm0EJPN5sqlcc10sql_parser9StatementESt14default_deleteIS2_EEEC2IRS3_JS4_INS1_14GrantStatementEEEvEEOT_DpOT0_
FN:291,294,_ZNSt11_Tuple_implILm0EJPN5sqlcc10sql_parser9StatementESt14default_deleteIS2_EEEC2IRS3_JS4_INS1_15DeleteStatementEEEvEEOT_DpOT0_
FN:291,294,_ZNSt11_Tuple_implILm0EJPN5sqlcc10sql_parser9StatementESt14default_deleteIS2_EEEC2IRS3_JS4_INS1_15InsertStatementEEEvEEOT_DpOT0_
FN:291,294,_ZNSt11_Tuple_implILm0EJPN5sqlcc10sql_parser9StatementESt14default_deleteIS2_EEEC2IRS3_JS4_INS1_15RevokeStatementEEEvEEOT_DpOT0_
FN:291,294,_ZNSt11_Tuple_implILm0EJPN5sqlcc10sql_parser9StatementESt14default_deleteIS2_EEEC2IRS3_JS4_INS1_15SelectStatementEEEvEEOT_DpOT0_
FN:291,294,_ZNSt11_Tuple_implILm0EJPN5sqlcc10sql_parser9StatementESt14default_deleteIS2_EEEC2IRS3_JS4_INS1_15UpdateStatementEEEvEEOT_DpOT0_
FN:291,294,_ZNSt11_Tuple_implILm0EJPN5sqlcc10sql_parser9StatementESt14default_deleteIS2_EEEC2IRS3_JS4_INS1_17DropUserStatementEEEvEEOT_DpOT0_
FN:291,294,_ZNSt11_Tuple_implILm0EJPN5sqlcc10sql_parser9StatementESt14default_deleteIS2_EEEC2IRS3_JS4_INS1_19CreateUserStatementEEEvEEOT_DpOT0_
FN:302,302,_ZNSt11_Tuple_implILm0EJPN5sqlcc10sql_parser12UseStatementESt14default_deleteIS2_EEEC2EOS6_
FN:302,302,_ZNSt11_Tuple_implILm0EJPN5sqlcc10sql_parser13DropStatementESt14default_deleteIS2_EEEC2EOS6_
FN:302,302,_ZNSt11_Tuple_implILm0EJPN5sqlcc10sql_parser14AlterStatementESt14default_deleteIS2_EEEC2EOS6_
FN:302,302,_ZNSt11_Tuple_implILm0EJPN5sqlcc10sql_parser15CreateStatementESt14default_deleteIS2_EEEC2EOS6_
FN:302,302,_ZNSt11_Tuple_implILm0EJPN5sqlcc10sql_parser15DeleteStatementESt14default_deleteIS2_EEEC2EOS6_
FN:302,302,_ZNSt11_Tuple_implILm0EJPN5sqlcc10sql_parser15InsertStatementESt14default_deleteIS2_EEEC2EOS6_
FN:302,302,_ZNSt11_Tuple_implILm0EJPN5sqlcc10sql_parser15UpdateStatementESt14default_deleteIS2_EEEC2EOS6_
FN:302,302,_ZNSt11_Tuple_implILm0EJPN5sqlcc10sql_parser18DropIndexStatementESt14default_deleteIS2_EEEC2EOS6_
FN:302,302,_ZNSt11_Tuple_implILm0EJPN5sqlcc10sql_parser20CreateIndexStatementESt14default_deleteIS2_EEEC2EOS6_
FN:302,302,_ZNSt11_Tuple_implILm0EJPN5sqlcc10sql_parser9StatementESt14default_deleteIS2_EEEC2EOS6_
FN:497,497,_ZNSt11_Tuple_implILm0EJRKNSt7__cxx1112basic_stringIcSt11char_traitsIcESaIcEEEEE7_M_headERS8_
FN:497,497,_ZNSt11_Tuple_implILm1EJSt14default_deleteIN5sqlcc10sql_parser12UseStatementEEEE7_M_headERS5_
FN:497,497,_ZNSt11_Tuple_implILm1EJSt14default_deleteIN5sqlcc10sql_parser13DropStatementEEEE7_M_headERS5_
FN:497,497,_ZNSt11_Tuple_implILm1EJSt14default_deleteIN5sqlcc10sql_parser13ShowStatementEEEE7_M_headERS5_
FN:497,497,_ZNSt11_Tuple_implILm1EJSt14default_deleteIN5sqlcc10sql_parser14AlterStatementEEEE7_M_headERS5_
FN:497,497,_ZNSt11_Tuple_implILm1EJSt14default_deleteIN5sqlcc10sql_parser14GrantStatementEEEE7_M_headERS5_
FN:497,497,_ZNSt11_Tuple_implILm1EJSt14default_deleteIN5sqlcc10sql_parser15CreateStatementEEEE7_M_headERS5_
FN:497,497,_ZNSt11_Tuple_implILm1EJSt14default_deleteIN5sqlcc10sql_parser15DeleteStatementEEEE7_M_headERS5_
FN:497,497,_ZNSt11_Tuple_implILm1EJSt14default_deleteIN5sqlcc10sql_parser15InsertStatementEEEE7_M_headERS5_
FN:497,497,_ZNSt11_Tuple_implILm1EJSt14default_deleteIN5sqlcc10sql_parser15RevokeStatementEEEE7_M_headERS5_
FN:497,497,_ZNSt11_Tuple_implILm1EJSt14default_deleteIN5sqlcc10sql_parser15SelectStatementEEEE7_M_headERS5_
FN:497,497,_ZNSt11_Tuple_implILm1EJSt14default_deleteIN5sqlcc10sql_parser15UpdateStatementEEEE7_M_headERS5_
FN:497,497,_ZNSt11_Tuple_implILm1EJSt14default_deleteIN5sqlcc10sql_parser17DropUserStatementEEEE7_M_headERS5_
FN:497,497,_ZNSt11_Tuple_implILm1EJSt14default_deleteIN5sqlcc10sql_parser18DropIndexStatementEEEE7_M_headERS5_
FN:497,497,_ZNSt11_Tuple_implILm1EJSt14default_deleteIN5sqlcc10sql_parser19CreateUserStatementEEEE7_M_headERS5_
FN:497,497,_ZNSt11_Tuple_implILm1EJSt14default_deleteIN5sqlcc10sql_parser20CreateIndexStatementEEEE7_M_headERS5_
FN:497,497,_ZNSt11_Tuple_implILm1EJSt14default_deleteIN5sqlcc10sql_parser9StatementEEEE7_M_headERS5_
FN:497,497,_ZNSt11_Tuple_implILm1EJSt14default_deleteINSt7__cxx1112basic_stringIcSt11char_traitsIcESaIcEEEEEE7_M_headERS8_
FN:497,497,_ZNSt11_Tuple_implILm1EJSt14default_deleteINSt7__cxx1118basic_stringstreamIcSt11char_traitsIcESaIcEEEEEE7_M_headERS8_
FN:503,504,_ZNSt11_Tuple_implILm1EJSt14default_deleteIN5sqlcc10sql_parser12UseStatementEEEEC2Ev
FN:503,504,_ZNSt11_Tuple_implILm1EJSt14default_deleteIN5sqlcc10sql_parser13DropStatementEEEEC2Ev
FN:503,504,_ZNSt11_Tuple_implILm1EJSt14default_deleteIN5sqlcc10sql_parser13ShowStatementEEEEC2Ev
FN:503,504,_ZNSt11_Tuple_implILm1EJSt14default_deleteIN5sqlcc10sql_parser14AlterStatementEEEEC2Ev
FN:503,504,_ZNSt11_Tuple_implILm1EJSt14default_deleteIN5sqlcc10sql_parser14GrantStatementEEEEC2Ev
FN:503,504,_ZNSt11_Tuple_implILm1EJSt14default_deleteIN5sqlcc10sql_parser15CreateStatementEEEEC2Ev
FN:503,504,_ZNSt11_Tuple_implILm1EJSt14default_deleteIN5sqlcc10sql_parser15DeleteStatementEEEEC2Ev
FN:503,504,_ZNSt11_Tuple_implILm1EJSt14default_deleteIN5sqlcc10sql_parser15InsertStatementEEEEC2Ev
FN:503,504,_ZNSt11_Tuple_implILm1EJSt14default_deleteIN5sqlcc10sql_parser15RevokeStatementEEEEC2Ev
FN:503,504,_ZNSt11_Tuple_implILm1EJSt14default_deleteIN5sqlcc10sql_parser15SelectStatementEEEEC2Ev
FN:503,504,_ZNSt11_Tuple_implILm1EJSt14default_deleteIN5sqlcc10sql_parser15UpdateStatementEEEEC2Ev
FN:503,504,_ZNSt11_Tuple_implILm1EJSt14default_deleteIN5sqlcc10sql_parser17DropUserStatementEEEEC2Ev
FN:503,504,_ZNSt11_Tuple_implILm1EJSt14default_deleteIN5sqlcc10sql_parser18DropIndexStatementEEEEC2Ev
FN:503,504,_ZNSt11_Tuple_implILm1EJSt14default_deleteIN5sqlcc10sql_parser19CreateUserStatementEEEEC2Ev
FN:503,504,_ZNSt11_Tuple_implILm1EJSt14default_deleteIN5sqlcc10sql_parser20CreateIndexStatementEEEEC2Ev
FN:503,504,_ZNSt11_Tuple_implILm1EJSt14default_deleteIN5sqlcc10sql_parser9StatementEEEEC2Ev
FN:503,504,_ZNSt11_Tuple_implILm1EJSt14default_deleteINSt7__cxx1112basic_stringIcSt11char_traitsIcESaIcEEEEEEC2Ev
FN:507,509,_ZNSt11_Tuple_implILm0EJRKNSt7__cxx1112basic_stringIcSt11char_traitsIcESaIcEEEEEC2ES7_
FN:513,515,_ZNSt11_Tuple_implILm1EJSt14default_deleteIN5sqlcc10sql_parser9StatementEEEEC2IS0_INS2_12UseStatementEEEEOT_
FN:513,515,_ZNSt11_Tuple_implILm1EJSt14default_deleteIN5sqlcc10sql_parser9StatementEEEEC2IS0_INS2_13ShowStatementEEEEOT_
FN:513,515,_ZNSt11_Tuple_implILm1EJSt14default_deleteIN5sqlcc10sql_parser9StatementEEEEC2IS0_INS2_14AlterStatementEEEEOT_
FN:513,515,_ZNSt11_Tuple_implILm1EJSt14default_deleteIN5sqlcc10sql_parser9StatementEEEEC2IS0_INS2_14GrantStatementEEEEOT_
FN:513,515,_ZNSt11_Tuple_implILm1EJSt14default_deleteIN5sqlcc10sql_parser9StatementEEEEC2IS0_INS2_15DeleteStatementEEEEOT_
FN:513,515,_ZNSt11_Tuple_implILm1EJSt14default_deleteIN5sqlcc10sql_parser9StatementEEEEC2IS0_INS2_15InsertStatementEEEEOT_
FN:513,515,_ZNSt11_Tuple_implILm1EJSt14default_deleteIN5sqlcc10sql_parser9StatementEEEEC2IS0_INS2_15RevokeStatementEEEEOT_
FN:513,515,_ZNSt11_Tuple_implILm1EJSt14default_deleteIN5sqlcc10sql_parser9StatementEEEEC2IS0_INS2_15SelectStatementEEEEOT_
FN:513,515,_ZNSt11_Tuple_implILm1EJSt14default_deleteIN5sqlcc10sql_parser9StatementEEEEC2IS0_INS2_15UpdateStatementEEEEOT_
FN:513,515,_ZNSt11_Tuple_implILm1EJSt14default_deleteIN5sqlcc10sql_parser9StatementEEEEC2IS0_INS2_17DropUserStatementEEEEOT_
FN:513,515,_ZNSt11_Tuple_implILm1EJSt14default_deleteIN5sqlcc10sql_parser9StatementEEEEC2IS0_INS2_19CreateUserStatementEEEEOT_
FN:527,530,_ZNSt11_Tuple_implILm0EJRKNSt7__cxx1112basic_stringIcSt11char_traitsIcESaIcEEEEEC2EOS8_
FN:527,530,_ZNSt11_Tuple_implILm1EJSt14default_deleteIN5sqlcc10sql_parser12UseStatementEEEEC2EOS5_
FN:527,530,_ZNSt11_Tuple_implILm1EJSt14default_deleteIN5sqlcc10sql_parser13DropStatementEEEEC2EOS5_
FN:527,530,_ZNSt11_Tuple_implILm1EJSt14default_deleteIN5sqlcc10sql_parser14AlterStatementEEEEC2EOS5_
FN:527,530,_ZNSt11_Tuple_implILm1EJSt14default_deleteIN5sqlcc10sql_parser15CreateStatementEEEEC2EOS5_
FN:527,530,_ZNSt11_Tuple_implILm1EJSt14default_deleteIN5sqlcc10sql_parser15DeleteStatementEEEEC2EOS5_
FN:527,530,_ZNSt11_Tuple_implILm1EJSt14default_deleteIN5sqlcc10sql_parser15InsertStatementEEEEC2EOS5_
FN:527,530,_ZNSt11_Tuple_implILm1EJSt14default_deleteIN5sqlcc10sql_parser15UpdateStatementEEEEC2EOS5_
FN:527,530,_ZNSt11_Tuple_implILm1EJSt14default_deleteIN5sqlcc10sql_parser18DropIndexStatementEEEEC2EOS5_
FN:527,530,_ZNSt11_Tuple_implILm1EJSt14default_deleteIN5sqlcc10sql_parser20CreateIndexStatementEEEEC2EOS5_
FN:527,530,_ZNSt11_Tuple_implILm1EJSt14default_deleteIN5sqlcc10sql_parser9StatementEEEEC2EOS5_
FN:81,82,_ZNSt10_Head_baseILm1ESt14default_deleteIN5sqlcc10sql_parser12UseStatementEELb1EEC2Ev
FN:81,82,_ZNSt10_Head_baseILm1ESt14default_deleteIN5sqlcc10sql_parser13DropStatementEELb1EEC2Ev
FN:81,82,_ZNSt10_Head_baseILm1ESt14default_deleteIN5sqlcc10sql_parser13ShowStatementEELb1EEC2Ev
FN:81,82,_ZNSt10_Head_baseILm1ESt14default_deleteIN5sqlcc10sql_parser14AlterStatementEELb1EEC2Ev
FN:81,82,_ZNSt10_Head_baseILm1ESt14default_deleteIN5sqlcc10sql_parser14GrantStatementEELb1EEC2Ev
FN:81,82,_ZNSt10_Head_baseILm1ESt14default_deleteIN5sqlcc10sql_parser15CreateStatementEELb1EEC2Ev
FN:81,82,_ZNSt10_Head_baseILm1ESt14default_deleteIN5sqlcc10sql_parser15DeleteStatementEELb1EEC2Ev
FN:81,82,_ZNSt10_Head_baseILm1ESt14default_deleteIN5sqlcc10sql_parser15InsertStatementEELb1EEC2Ev
FN:81,82,_ZNSt10_Head_baseILm1ESt14default_deleteIN5sqlcc10sql_parser15RevokeStatementEELb1EEC2Ev
FN:81,82,_ZNSt10_Head_baseILm1ESt14default_deleteIN5sqlcc10sql_parser15SelectStatementEELb1EEC2Ev
FN:81,82,_ZNSt10_Head_baseILm1ESt14default_deleteIN5sqlcc10sql_parser15UpdateStatementEELb1EEC2Ev
FN:81,82,_ZNSt10_Head_baseILm1ESt14default_deleteIN5sqlcc10sql_parser17DropUserStatementEELb1EEC2Ev
FN:81,82,_ZNSt10_Head_baseILm1ESt14default_deleteIN5sqlcc10sql_parser18DropIndexStatementEELb1EEC2Ev
FN:81,82,_ZNSt10_Head_baseILm1ESt14default_deleteIN5sqlcc10sql_parser19CreateUserStatementEELb1EEC2Ev
FN:81,82,_ZNSt10_Head_baseILm1ESt14default_deleteIN5sqlcc10sql_parser20CreateIndexStatementEELb1EEC2Ev
FN:81,82,_ZNSt10_Head_baseILm1ESt14default_deleteIN5sqlcc10sql_parser9StatementEELb1EEC2Ev
FN:81,82,_ZNSt10_Head_baseILm1ESt14default_deleteINSt7__cxx1112basic_stringIcSt11char_traitsIcESaIcEEEELb1EEC2Ev
FN:874,876,_ZNSt5tupleIJRKNSt7__cxx1112basic_stringIcSt11char_traitsIcESaIcEEEEEC2ILb1ELb1EEES7_
FN:903,903,_ZNSt5tupleIJRKNSt7__cxx1112basic_stringIcSt11char_traitsIcESaIcEEEEEC2EOS8_
FN:91,92,_ZNSt10_Head_baseILm1ESt14default_deleteIN5sqlcc10sql_parser9StatementEELb1EEC2IS0_INS2_12UseStatementEEEEOT_
FN:91,92,_ZNSt10_Head_baseILm1ESt14default_deleteIN5sqlcc10sql_parser9StatementEELb1EEC2IS0_INS2_13ShowStatementEEEEOT_
FN:91,92,_ZNSt10_Head_baseILm1ESt14default_deleteIN5sqlcc10sql_parser9StatementEELb1EEC2IS0_INS2_14AlterStatementEEEEOT_
FN:91,92,_ZNSt10_Head_baseILm1ESt14default_deleteIN5sqlcc10sql_parser9StatementEELb1EEC2IS0_INS2_14GrantStatementEEEEOT_
FN:91,92,_ZNSt10_Head_baseILm1ESt14default_deleteIN5sqlcc10sql_parser9StatementEELb1EEC2IS0_INS2_15DeleteStatementEEEEOT_
FN:91,92,_ZNSt10_Head_baseILm1ESt14default_deleteIN5sqlcc10sql_parser9StatementEELb1EEC2IS0_INS2_15InsertStatementEEEEOT_
FN:91,92,_ZNSt10_Head_baseILm1ESt14default_deleteIN5sqlcc10sql_parser9StatementEELb1EEC2IS0_INS2_15RevokeStatementEEEEOT_
FN:91,92,_ZNSt10_Head_baseILm1ESt14default_deleteIN5sqlcc10sql_parser9StatementEELb1EEC2IS0_INS2_15SelectStatementEEEEOT_
FN:91,92,_ZNSt10_Head_baseILm1ESt14default_deleteIN5sqlcc10sql_parser9StatementEELb1EEC2IS0_INS2_15UpdateStatementEEEEOT_
FN:91,92,_ZNSt10_Head_baseILm1ESt14default_deleteIN5sqlcc10sql_parser9StatementEELb1EEC2IS0_INS2_17DropUserStatementEEEEOT_
FN:91,92,_ZNSt10_Head_baseILm1ESt14default_deleteIN5sqlcc10sql_parser9StatementEELb1EEC2IS0_INS2_19CreateUserStatementEEEEOT_
FNDA:0,_ZNSt10_Head_baseILm1ESt14default_deleteIN5sqlcc10sql_parser12UseStatementEELb1EE7_M_headERS5_
FNDA:0,_ZNSt10_Head_baseILm1ESt14default_deleteIN5sqlcc10sql_parser13DropStatementEELb1EE7_M_headERS5_
FNDA:0,_ZNSt10_Head_baseILm1ESt14default_deleteIN5sqlcc10sql_parser13ShowStatementEELb1EE7_M_headERS5_
FNDA:1,_ZNSt10_Head_baseILm1ESt14default_deleteIN5sqlcc10sql_parser14AlterStatementEELb1EE7_M_headERS5_
FNDA:3,_ZNSt10_Head_baseILm1ESt14default_deleteIN5sqlcc10sql_parser14GrantStatementEELb1EE7_M_headERS5_
FNDA:0,_ZNSt10_Head_baseILm1ESt14default_deleteIN5sqlcc10sql_parser15CreateStatementEELb1EE7_M_headERS5_
FNDA:0,_ZNSt10_Head_baseILm1ESt14default_deleteIN5sqlcc10sql_parser15DeleteStatementEELb1EE7_M_headERS5_
FNDA:0,_ZNSt10_Head_baseILm1ESt14default_deleteIN5sqlcc10sql_parser15InsertStatementEELb1EE7_M_headERS5_
FNDA:3,_ZNSt10_Head_baseILm1ESt14default_deleteIN5sqlcc10sql_parser15RevokeStatementEELb1EE7_M_headERS5_
FNDA:0,_ZNSt10_Head_baseILm1ESt14default_deleteIN5sqlcc10sql_parser15SelectStatementEELb1EE7_M_headERS5_
FNDA:0,_ZNSt10_Head_baseILm1ESt14default_deleteIN5sqlcc10sql_parser15UpdateStatementEELb1EE7_M_headERS5_
FNDA:2,_ZNSt10_Head_baseILm1ESt14default_deleteIN5sqlcc10sql_parser17DropUserStatementEELb1EE7_M_headERS5_
FNDA:0,_ZNSt10_Head_baseILm1ESt14default_deleteIN5sqlcc10sql_parser18DropIndexStatementEELb1EE7_M_headERS5_
FNDA:2,_ZNSt10_Head_baseILm1ESt14default_deleteIN5sqlcc10sql_parser19CreateUserStatementEELb1EE7_M_headERS5_
FNDA:0,_ZNSt10_Head_baseILm1ESt14default_deleteIN5sqlcc10sql_parser20CreateIndexStatementEELb1EE7_M_headERS5_
FNDA:13,_ZNSt10_Head_baseILm1ESt14default_deleteIN5sqlcc10sql_parser9StatementEELb1EE7_M_headERS5_
FNDA:0,_ZNSt10_Head_baseILm1ESt14default_deleteINSt7__cxx1112basic_stringIcSt11char_traitsIcESaIcEEEELb1EE7_M_headERS8_
FNDA:0,_ZNSt10_Head_baseILm1ESt14default_deleteINSt7__cxx1118basic_stringstreamIcSt11char_traitsIcESaIcEEEELb1EE7_M_headERS8_
FNDA:0,_ZNSt5tupleIJPN5sqlcc10sql_parser12UseStatementESt14default_deleteIS2_EEEC2ILb1ELb1EEEv
FNDA:0,_ZNSt5tupleIJPN5sqlcc10sql_parser13DropStatementESt14default_deleteIS2_EEEC2ILb1ELb1EEEv
FNDA:0,_ZNSt5tupleIJPN5sqlcc10sql_parser13ShowStatementESt14default_deleteIS2_EEEC2ILb1ELb1EEEv
FNDA:1,_ZNSt5tupleIJPN5sqlcc10sql_parser14AlterStatementESt14default_deleteIS2_EEEC2ILb1ELb1EEEv
FNDA:3,_ZNSt5tupleIJPN5sqlcc10sql_parser14GrantStatementESt14default_deleteIS2_EEEC2ILb1ELb1EEEv
FNDA:2,_ZNSt5tupleIJPN5sqlcc10sql_parser15CreateStatementESt14default_deleteIS2_EEEC2ILb1ELb1EEEv
FNDA:0,_ZNSt5tupleIJPN5sqlcc10sql_parser15DeleteStatementESt14default_deleteIS2_EEEC2ILb1ELb1EEEv
FNDA:0,_ZNSt5tupleIJPN5sqlcc10sql_parser15InsertStatementESt14default_deleteIS2_EEEC2ILb1ELb1EEEv
FNDA:3,_ZNSt5tupleIJPN5sqlcc10sql_parser15RevokeStatementESt14default_deleteIS2_EEEC2ILb1ELb1EEEv
FNDA:0,_ZNSt5tupleIJPN5sqlcc10sql_parser15SelectStatementESt14default_deleteIS2_EEEC2ILb1ELb1EEEv
FNDA:0,_ZNSt5tupleIJPN5sqlcc10sql_parser15UpdateStatementESt14default_deleteIS2_EEEC2ILb1ELb1EEEv
FNDA:2,_ZNSt5tupleIJPN5sqlcc10sql_parser17DropUserStatementESt14default_deleteIS2_EEEC2ILb1ELb1EEEv
FNDA:0,_ZNSt5tupleIJPN5sqlcc10sql_parser18DropIndexStatementESt14default_deleteIS2_EEEC2ILb1ELb1EEEv
FNDA:2,_ZNSt5tupleIJPN5sqlcc10sql_parser19CreateUserStatementESt14default_deleteIS2_EEEC2ILb1ELb1EEEv
FNDA:0,_ZNSt5tupleIJPN5sqlcc10sql_parser20CreateIndexStatementESt14default_deleteIS2_EEEC2ILb1ELb1EEEv
FNDA:2,_ZNSt5tupleIJPN5sqlcc10sql_parser9StatementESt14default_deleteIS2_EEEC2ILb1ELb1EEEv
FNDA:59,_ZNSt5tupleIJPNSt7__cxx1112basic_stringIcSt11char_traitsIcESaIcEEESt14default_deleteIS5_EEEC2ILb1ELb1EEEv
FNDA:0,_ZNSt5tupleIJPN5sqlcc10sql_parser9StatementESt14default_deleteIS2_EEEC2IRS3_S4_INS1_12UseStatementEELb1EEEOT_OT0_
FNDA:0,_ZNSt5tupleIJPN5sqlcc10sql_parser9StatementESt14default_deleteIS2_EEEC2IRS3_S4_INS1_13ShowStatementEELb1EEEOT_OT0_
FNDA:1,_ZNSt5tupleIJPN5sqlcc10sql_parser9StatementESt14default_deleteIS2_EEEC2IRS3_S4_INS1_14AlterStatementEELb1EEEOT_OT0_
FNDA:3,_ZNSt5tupleIJPN5sqlcc10sql_parser9StatementESt14default_deleteIS2_EEEC2IRS3_S4_INS1_14GrantStatementEELb1EEEOT_OT0_
FNDA:0,_ZNSt5tupleIJPN5sqlcc10sql_parser9StatementESt14default_deleteIS2_EEEC2IRS3_S4_INS1_15DeleteStatementEELb1EEEOT_OT0_
FNDA:0,_ZNSt5tupleIJPN5sqlcc10sql_parser9StatementESt14default_deleteIS2_EEEC2IRS3_S4_INS1_15InsertStatementEELb1EEEOT_OT0_
FNDA:3,_ZNSt5tupleIJPN5sqlcc10sql_parser9StatementESt14default_deleteIS2_EEEC2IRS3_S4_INS1_15RevokeStatementEELb1EEEOT_OT0_
FNDA:0,_ZNSt5tupleIJPN5sqlcc10sql_parser9StatementESt14default_deleteIS2_EEEC2IRS3_S4_INS1_15SelectStatementEELb1EEEOT_OT0_
FNDA:0,_ZNSt5tupleIJPN5sqlcc10sql_parser9StatementESt14default_deleteIS2_EEEC2IRS3_S4_INS1_15UpdateStatementEELb1EEEOT_OT0_
FNDA:2,_ZNSt5tupleIJPN5sqlcc10sql_parser9StatementESt14default_deleteIS2_EEEC2IRS3_S4_INS1_17DropUserStatementEELb1EEEOT_OT0_
FNDA:2,_ZNSt5tupleIJPN5sqlcc10sql_parser9StatementESt14default_deleteIS2_EEEC2IRS3_S4_INS1_19CreateUserStatementEELb1EEEOT_OT0_
FNDA:0,_ZNSt5tupleIJPN5sqlcc10sql_parser12UseStatementESt14default_deleteIS2_EEEC2EOS6_
FNDA:0,_ZNSt5tupleIJPN5sqlcc10sql_parser13DropStatementESt14default_deleteIS2_EEEC2EOS6_
FNDA:1,_ZNSt5tupleIJPN5sqlcc10sql_parser14AlterStatementESt14default_deleteIS2_EEEC2EOS6_
FNDA:2,_ZNSt5tupleIJPN5sqlcc10sql_parser15CreateStatementESt14default_deleteIS2_EEEC2EOS6_
FNDA:0,_ZNSt5tupleIJPN5sqlcc10sql_parser15DeleteStatementESt14default_deleteIS2_EEEC2EOS6_
FNDA:0,_ZNSt5tupleIJPN5sqlcc10sql_parser15InsertStatementESt14default_deleteIS2_EEEC2EOS6_
FNDA:0,_ZNSt5tupleIJPN5sqlcc10sql_parser15UpdateStatementESt14default_deleteIS2_EEEC2EOS6_
FNDA:0,_ZNSt5tupleIJPN5sqlcc10sql_parser18DropIndexStatementESt14default_deleteIS2_EEEC2EOS6_
FNDA:0,_ZNSt5tupleIJPN5sqlcc10sql_parser20CreateIndexStatementESt14default_deleteIS2_EEEC2EOS6_
FNDA:13,_ZNSt5tupleIJPN5sqlcc10sql_parser9StatementESt14default_deleteIS2_EEEC2EOS6_
FNDA:0,_ZSt12__get_helperILm0EPN5sqlcc10sql_parser12UseStatementEJSt14default_deleteIS2_EEERT0_RSt11_Tuple_implIXT_EJS6_DpT1_EE
FNDA:0,_ZSt12__get_helperILm0EPN5sqlcc10sql_parser13DropStatementEJSt14default_deleteIS2_EEERT0_RSt11_Tuple_implIXT_EJS6_DpT1_EE
FNDA:0,_ZSt12__get_helperILm0EPN5sqlcc10sql_parser13ShowStatementEJSt14default_deleteIS2_EEERT0_RSt11_Tuple_implIXT_EJS6_DpT1_EE
FNDA:6,_ZSt12__get_helperILm0EPN5sqlcc10sql_parser14AlterStatementEJSt14default_deleteIS2_EEERT0_RSt11_Tuple_implIXT_EJS6_DpT1_EE
FNDA:12,_ZSt12__get_helperILm0EPN5sqlcc10sql_parser14GrantStatementEJSt14default_deleteIS2_EEERT0_RSt11_Tuple_implIXT_EJS6_DpT1_EE
FNDA:12,_ZSt12__get_helperILm0EPN5sqlcc10sql_parser15CreateStatementEJSt14default_deleteIS2_EEERT0_RSt11_Tuple_implIXT_EJS6_DpT1_EE
FNDA:0,_ZSt12__get_helperILm0EPN5sqlcc10sql_parser15DeleteStatementEJSt14default_deleteIS2_EEERT0_RSt11_Tuple_implIXT_EJS6_DpT1_EE
FNDA:0,_ZSt12__get_helperILm0EPN5sqlcc10sql_parser15InsertStatementEJSt14default_deleteIS2_EEERT0_RSt11_Tuple_implIXT_EJS6_DpT1_EE
FNDA:12,_ZSt12__get_helperILm0EPN5sqlcc10sql_parser15RevokeStatementEJSt14default_deleteIS2_EEERT0_RSt11_Tuple_implIXT_EJS6_DpT1_EE
FNDA:0,_ZSt12__get_helperILm0EPN5sqlcc10sql_parser15SelectStatementEJSt14default_deleteIS2_EEERT0_RSt11_Tuple_implIXT_EJS6_DpT1_EE
FNDA:0,_ZSt12__get_helperILm0EPN5sqlcc10sql_parser15UpdateStatementEJSt14default_deleteIS2_EEERT0_RSt11_Tuple_implIXT_EJS6_DpT1_EE
FNDA:8,_ZSt12__get_helperILm0EPN5sqlcc10sql_parser17DropUserStatementEJSt14default_deleteIS2_EEERT0_RSt11_Tuple_implIXT_EJS6_DpT1_EE
FNDA:0,_ZSt12__get_helperILm0EPN5sqlcc10sql_parser18DropIndexStatementEJSt14default_deleteIS2_EEERT0_RSt11_Tuple_implIXT_EJS6_DpT1_EE
FNDA:8,_ZSt12__get_helperILm0EPN5sqlcc10sql_parser19CreateUserStatementEJSt14default_deleteIS2_EEERT0_RSt11_Tuple_implIXT_EJS6_DpT1_EE
FNDA:0,_ZSt12__get_helperILm0EPN5sqlcc10sql_parser20CreateIndexStatementEJSt14default_deleteIS2_EEERT0_RSt11_Tuple_implIXT_EJS6_DpT1_EE
FNDA:41,_ZSt12__get_helperILm0EPN5sqlcc10sql_parser9StatementEJSt14default_deleteIS2_EEERT0_RSt11_Tuple_implIXT_EJS6_DpT1_EE
FNDA:184,_ZSt12__get_helperILm0EPNSt7__cxx1112basic_stringIcSt11char_traitsIcESaIcEEEJSt14default_deleteIS5_EEERT0_RSt11_Tuple_implIXT_EJS9_DpT1_EE
FNDA:0,_ZSt12__get_helperILm0EPNSt7__cxx1118basic_stringstreamIcSt11char_traitsIcESaIcEEEJSt14default_deleteIS5_EEERT0_RSt11_Tuple_implIXT_EJS9_DpT1_EE
FNDA:0,_ZSt12__get_helperILm0ERKNSt7__cxx1112basic_stringIcSt11char_traitsIcESaIcEEEJEERT0_RSt11_Tuple_implIXT_EJS8_DpT1_EE
FNDA:0,_ZSt12__get_helperILm1ESt14default_deleteIN5sqlcc10sql_parser12UseStatementEEJEERT0_RSt11_Tuple_implIXT_EJS5_DpT1_EE
FNDA:0,_ZSt12__get_helperILm1ESt14default_deleteIN5sqlcc10sql_parser13DropStatementEEJEERT0_RSt11_Tuple_implIXT_EJS5_DpT1_EE
FNDA:0,_ZSt12__get_helperILm1ESt14default_deleteIN5sqlcc10sql_parser13ShowStatementEEJEERT0_RSt11_Tuple_implIXT_EJS5_DpT1_EE
FNDA:1,_ZSt12__get_helperILm1ESt14default_deleteIN5sqlcc10sql_parser14AlterStatementEEJEERT0_RSt11_Tuple_implIXT_EJS5_DpT1_EE
FNDA:3,_ZSt12__get_helperILm1ESt14default_deleteIN5sqlcc10sql_parser14GrantStatementEEJEERT0_RSt11_Tuple_implIXT_EJS5_DpT1_EE
FNDA:0,_ZSt12__get_helperILm1ESt14default_deleteIN5sqlcc10sql_parser15CreateStatementEEJEERT0_RSt11_Tuple_implIXT_EJS5_DpT1_EE
FNDA:0,_ZSt12__get_helperILm1ESt14default_deleteIN5sqlcc10sql_parser15DeleteStatementEEJEERT0_RSt11_Tuple_implIXT_EJS5_DpT1_EE
FNDA:0,_ZSt12__get_helperILm1ESt14default_deleteIN5sqlcc10sql_parser15InsertStatementEEJEERT0_RSt11_Tuple_implIXT_EJS5_DpT1_EE
FNDA:3,_ZSt12__get_helperILm1ESt14default_deleteIN5sqlcc10sql_parser15RevokeStatementEEJEERT0_RSt11_Tuple_implIXT_EJS5_DpT1_EE
FNDA:0,_ZSt12__get_helperILm1ESt14default_deleteIN5sqlcc10sql_parser15SelectStatementEEJEERT0_RSt11_Tuple_implIXT_EJS5_DpT1_EE
FNDA:0,_ZSt12__get_helperILm1ESt14default_deleteIN5sqlcc10sql_parser15UpdateStatementEEJEERT0_RSt11_Tuple_implIXT_EJS5_DpT1_EE
FNDA:2,_ZSt12__get_helperILm1ESt14default_deleteIN5sqlcc10sql_parser17DropUserStatementEEJEERT0_RSt11_Tuple_implIXT_EJS5_DpT1_EE
FNDA:0,_ZSt12__get_helperILm1ESt14default_deleteIN5sqlcc10sql_parser18DropIndexStatementEEJEERT0_RSt11_Tuple_implIXT_EJS5_DpT1_EE
FNDA:2,_ZSt12__get_helperILm1ESt14default_deleteIN5sqlcc10sql_parser19CreateUserStatementEEJEERT0_RSt11_Tuple_implIXT_EJS5_DpT1_EE
FNDA:0,_ZSt12__get_helperILm1ESt14default_deleteIN5sqlcc10sql_parser20CreateIndexStatementEEJEERT0_RSt11_Tuple_implIXT_EJS5_DpT1_EE
FNDA:13,_ZSt12__get_helperILm1ESt14default_deleteIN5sqlcc10sql_parser9StatementEEJEERT0_RSt11_Tuple_implIXT_EJS5_DpT1_EE
FNDA:0,_ZSt12__get_helperILm1ESt14default_deleteINSt7__cxx1112basic_stringIcSt11char_traitsIcESaIcEEEEJEERT0_RSt11_Tuple_implIXT_EJS8_DpT1_EE
FNDA:0,_ZSt12__get_helperILm1ESt14default_deleteINSt7__cxx1118basic_stringstreamIcSt11char_traitsIcESaIcEEEEJEERT0_RSt11_Tuple_implIXT_EJS8_DpT1_EE
FNDA:0,_ZSt12__get_helperILm0EPN5sqlcc10sql_parser13ShowStatementEJSt14default_deleteIS2_EEERKT0_RKSt11_Tuple_implIXT_EJS6_DpT1_EE
FNDA:14,_ZSt12__get_helperILm0EPN5sqlcc10sql_parser14GrantStatementEJSt14default_deleteIS2_EEERKT0_RKSt11_Tuple_implIXT_EJS6_DpT1_EE
FNDA:1,_ZSt12__get_helperILm0EPN5sqlcc10sql_parser15CreateStatementEJSt14default_deleteIS2_EEERKT0_RKSt11_Tuple_implIXT_EJS6_DpT1_EE
FNDA:0,_ZSt12__get_helperILm0EPN5sqlcc10sql_parser15DeleteStatementEJSt14default_deleteIS2_EEERKT0_RKSt11_Tuple_implIXT_EJS6_DpT1_EE
FNDA:0,_ZSt12__get_helperILm0EPN5sqlcc10sql_parser15InsertStatementEJSt14default_deleteIS2_EEERKT0_RKSt11_Tuple_implIXT_EJS6_DpT1_EE
FNDA:14,_ZSt12__get_helperILm0EPN5sqlcc10sql_parser15RevokeStatementEJSt14default_deleteIS2_EEERKT0_RKSt11_Tuple_implIXT_EJS6_DpT1_EE
FNDA:0,_ZSt12__get_helperILm0EPN5sqlcc10sql_parser15SelectStatementEJSt14default_deleteIS2_EEERKT0_RKSt11_Tuple_implIXT_EJS6_DpT1_EE
FNDA:0,_ZSt12__get_helperILm0EPN5sqlcc10sql_parser15UpdateStatementEJSt14default_deleteIS2_EEERKT0_RKSt11_Tuple_implIXT_EJS6_DpT1_EE
FNDA:2,_ZSt12__get_helperILm0EPN5sqlcc10sql_parser17DropUserStatementEJSt14default_deleteIS2_EEERKT0_RKSt11_Tuple_implIXT_EJS6_DpT1_EE
FNDA:0,_ZSt12__get_helperILm0EPN5sqlcc10sql_parser18DropIndexStatementEJSt14default_deleteIS2_EEERKT0_RKSt11_Tuple_implIXT_EJS6_DpT1_EE
FNDA:2,_ZSt12__get_helperILm0EPN5sqlcc10sql_parser19CreateUserStatementEJSt14default_deleteIS2_EEERKT0_RKSt11_Tuple_implIXT_EJS6_DpT1_EE
FNDA:0,_ZSt12__get_helperILm0EPN5sqlcc10sql_parser20CreateIndexStatementEJSt14default_deleteIS2_EEERKT0_RKSt11_Tuple_implIXT_EJS6_DpT1_EE
FNDA:26,_ZSt12__get_helperILm0EPN5sqlcc10sql_parser9StatementEJSt14default_deleteIS2_EEERKT0_RKSt11_Tuple_implIXT_EJS6_DpT1_EE
FNDA:0,_ZSt12__get_helperILm0EPNSt7__cxx1112basic_stringIcSt11char_traitsIcESaIcEEEJSt14default_deleteIS5_EEERKT0_RKSt11_Tuple_implIXT_EJS9_DpT1_EE
FNDA:0,_ZSt12__get_helperILm0EPNSt7__cxx1118basic_stringstreamIcSt11char_traitsIcESaIcEEEJSt14default_deleteIS5_EEERKT0_RKSt11_Tuple_implIXT_EJS9_DpT1_EE
FNDA:0,_ZSt3getILm0EJPN5sqlcc10sql_parser12UseStatementESt14default_deleteIS2_EEERNSt13tuple_elementIXT_ESt5tupleIJDpT0_EEE4typeERSA_
FNDA:0,_ZSt3getILm0EJPN5sqlcc10sql_parser13DropStatementESt14default_deleteIS2_EEERNSt13tuple_elementIXT_ESt5tupleIJDpT0_EEE4typeERSA_
FNDA:0,_ZSt3getILm0EJPN5sqlcc10sql_parser13ShowStatementESt14default_deleteIS2_EEERNSt13tuple_elementIXT_ESt5tupleIJDpT0_EEE4typeERSA_
FNDA:6,_ZSt3getILm0EJPN5sqlcc10sql_parser14AlterStatementESt14default_deleteIS2_EEERNSt13tuple_elementIXT_ESt5tupleIJDpT0_EEE4typeERSA_
FNDA:12,_ZSt3getILm0EJPN5sqlcc10sql_parser14GrantStatementESt14default_deleteIS2_EEERNSt13tuple_elementIXT_ESt5tupleIJDpT0_EEE4typeERSA_
FNDA:12,_ZSt3getILm0EJPN5sqlcc10sql_parser15CreateStatementESt14default_deleteIS2_EEERNSt13tuple_elementIXT_ESt5tupleIJDpT0_EEE4typeERSA_
FNDA:0,_ZSt3getILm0EJPN5sqlcc10sql_parser15DeleteStatementESt14default_deleteIS2_EEERNSt13tuple_elementIXT_ESt5tupleIJDpT0_EEE4typeERSA_
FNDA:0,_ZSt3getILm0EJPN5sqlcc10sql_parser15InsertStatementESt14default_deleteIS2_EEERNSt13tuple_elementIXT_ESt5tupleIJDpT0_EEE4typeERSA_
FNDA:12,_ZSt3getILm0EJPN5sqlcc10sql_parser15RevokeStatementESt14default_deleteIS2_EEERNSt13tuple_elementIXT_ESt5tupleIJDpT0_EEE4typeERSA_
FNDA:0,_ZSt3getILm0EJPN5sqlcc10sql_parser15SelectStatementESt14default_deleteIS2_EEERNSt13tuple_elementIXT_ESt5tupleIJDpT0_EEE4typeERSA_
FNDA:0,_ZSt3getILm0EJPN5sqlcc10sql_parser15UpdateStatementESt14default_deleteIS2_EEERNSt13tuple_elementIXT_ESt5tupleIJDpT0_EEE4typeERSA_
FNDA:8,_ZSt3getILm0EJPN5sqlcc10sql_parser17DropUserStatementESt14default_deleteIS2_EEERNSt13tuple_elementIXT_ESt5tupleIJDpT0_EEE4typeERSA_
FNDA:0,_ZSt3getILm0EJPN5sqlcc10sql_parser18DropIndexStatementESt14default_deleteIS2_EEERNSt13tuple_elementIXT_ESt5tupleIJDpT0_EEE4typeERSA_
FNDA:8,_ZSt3getILm0EJPN5sqlcc10sql_parser19CreateUserStatementESt14default_deleteIS2_EEERNSt13tuple_elementIXT_ESt5tupleIJDpT0_EEE4typeERSA_
FNDA:0,_ZSt3getILm0EJPN5sqlcc10sql_parser20CreateIndexStatementESt14default_deleteIS2_EEERNSt13tuple_elementIXT_ESt5tupleIJDpT0_EEE4typeERSA_
FNDA:41,_ZSt3getILm0EJPN5sqlcc10sql_parser9StatementESt14default_deleteIS2_EEERNSt13tuple_elementIXT_ESt5tupleIJDpT0_EEE4typeERSA_
FNDA:184,_ZSt3getILm0EJPNSt7__cxx1112basic_stringIcSt11char_traitsIcESaIcEEESt14default_deleteIS5_EEERNSt13tuple_elementIXT_ESt5tupleIJDpT0_EEE4typeERSD_
FNDA:0,_ZSt3getILm0EJPNSt7__cxx1118basic_stringstreamIcSt11char_traitsIcESaIcEEESt14default_deleteIS5_EEERNSt13tuple_elementIXT_ESt5tupleIJDpT0_EEE4typeERSD_
FNDA:0,_ZSt3getILm0EJRKNSt7__cxx1112basic_stringIcSt11char_traitsIcESaIcEEEEERNSt13tuple_elementIXT_ESt5tupleIJDpT0_EEE4typeERSC_
FNDA:0,_ZSt3getILm1EJPN5sqlcc10sql_parser12UseStatementESt14default_deleteIS2_EEERNSt13tuple_elementIXT_ESt5tupleIJDpT0_EEE4typeERSA_
FNDA:0,_ZSt3getILm1EJPN5sqlcc10sql_parser13DropStatementESt14default_deleteIS2_EEERNSt13tuple_elementIXT_ESt5tupleIJDpT0_EEE4typeERSA_
FNDA:0,_ZSt3getILm1EJPN5sqlcc10sql_parser13ShowStatementESt14default_deleteIS2_EEERNSt13tuple_elementIXT_ESt5tupleIJDpT0_EEE4typeERSA_
FNDA:1,_ZSt3getILm1EJPN5sqlcc10sql_parser14AlterStatementESt14default_deleteIS2_EEERNSt13tuple_elementIXT_ESt5tupleIJDpT0_EEE4typeERSA_
FNDA:3,_ZSt3getILm1EJPN5sqlcc10sql_parser14GrantStatementESt14default_deleteIS2_EEERNSt13tuple_elementIXT_ESt5tupleIJDpT0_EEE4typeERSA_
FNDA:0,_ZSt3getILm1EJPN5sqlcc10sql_parser15CreateStatementESt14default_deleteIS2_EEERNSt13tuple_elementIXT_ESt5tupleIJDpT0_EEE4typeERSA_
FNDA:0,_ZSt3getILm1EJPN5sqlcc10sql_parser15DeleteStatementESt14default_deleteIS2_EEERNSt13tuple_elementIXT_ESt5tupleIJDpT0_EEE4typeERSA_
FNDA:0,_ZSt3getILm1EJPN5sqlcc10sql_parser15InsertStatementESt14default_deleteIS2_EEERNSt13tuple_elementIXT_ESt5tupleIJDpT0_EEE4typeERSA_
FNDA:3,_ZSt3getILm1EJPN5sqlcc10sql_parser15RevokeStatementESt14default_deleteIS2_EEERNSt13tuple_elementIXT_ESt5tupleIJDpT0_EEE4typeERSA_
FNDA:0,_ZSt3getILm1EJPN5sqlcc10sql_parser15SelectStatementESt14default_deleteIS2_EEERNSt13tuple_elementIXT_ESt5tupleIJDpT0_EEE4typeERSA_
FNDA:0,_ZSt3getILm1EJPN5sqlcc10sql_parser15UpdateStatementESt14default_deleteIS2_EEERNSt13tuple_elementIXT_ESt5tupleIJDpT0_EEE4typeERSA_
FNDA:2,_ZSt3getILm1EJPN5sqlcc10sql_parser17DropUserStatementESt14default_deleteIS2_EEERNSt13tuple_elementIXT_ESt5tupleIJDpT0_EEE4typeERSA_
FNDA:0,_ZSt3getILm1EJPN5sqlcc10sql_parser18DropIndexStatementESt14default_deleteIS2_EEERNSt13tuple_elementIXT_ESt5tupleIJDpT0_EEE4typeERSA_
FNDA:2,_ZSt3getILm1EJPN5sqlcc10sql_parser19CreateUserStatementESt14default_deleteIS2_EEERNSt13tuple_elementIXT_ESt5tupleIJDpT0_EEE4typeERSA_
FNDA:0,_ZSt3getILm1EJPN5sqlcc10sql_parser20CreateIndexStatementESt14default_deleteIS2_EEERNSt13tuple_elementIXT_ESt5tupleIJDpT0_EEE4typeERSA_
FNDA:13,_ZSt3getILm1EJPN5sqlcc10sql_parser9StatementESt14default_deleteIS2_EEERNSt13tuple_elementIXT_ESt5tupleIJDpT0_EEE4typeERSA_
FNDA:0,_ZSt3getILm1EJPNSt7__cxx1112basic_stringIcSt11char_traitsIcESaIcEEESt14default_deleteIS5_EEERNSt13tuple_elementIXT_ESt5tupleIJDpT0_EEE4typeERSD_
FNDA:0,_ZSt3getILm1EJPNSt7__cxx1118basic_stringstreamIcSt11char_traitsIcESaIcEEESt14default_deleteIS5_EEERNSt13tuple_elementIXT_ESt5tupleIJDpT0_EEE4typeERSD_
FNDA:0,_ZSt3getILm0EJPN5sqlcc10sql_parser13ShowStatementESt14default_deleteIS2_EEERKNSt13tuple_elementIXT_ESt5tupleIJDpT0_EEE4typeERKSA_
FNDA:14,_ZSt3getILm0EJPN5sqlcc10sql_parser14GrantStatementESt14default_deleteIS2_EEERKNSt13tuple_elementIXT_ESt5tupleIJDpT0_EEE4typeERKSA_
FNDA:1,_ZSt3getILm0EJPN5sqlcc10sql_parser15CreateStatementESt14default_deleteIS2_EEERKNSt13tuple_elementIXT_ESt5tupleIJDpT0_EEE4typeERKSA_
FNDA:0,_ZSt3getILm0EJPN5sqlcc10sql_parser15DeleteStatementESt14default_deleteIS2_EEERKNSt13tuple_elementIXT_ESt5tupleIJDpT0_EEE4typeERKSA_
FNDA:0,_ZSt3getILm0EJPN5sqlcc10sql_parser15InsertStatementESt14default_deleteIS2_EEERKNSt13tuple_elementIXT_ESt5tupleIJDpT0_EEE4typeERKSA_
FNDA:14,_ZSt3getILm0EJPN5sqlcc10sql_parser15RevokeStatementESt14default_deleteIS2_EEERKNSt13tuple_elementIXT_ESt5tupleIJDpT0_EEE4typeERKSA_
FNDA:0,_ZSt3getILm0EJPN5sqlcc10sql_parser15SelectStatementESt14default_deleteIS2_EEERKNSt13tuple_elementIXT_ESt5tupleIJDpT0_EEE4typeERKSA_
FNDA:0,_ZSt3getILm0EJPN5sqlcc10sql_parser15UpdateStatementESt14default_deleteIS2_EEERKNSt13tuple_elementIXT_ESt5tupleIJDpT0_EEE4typeERKSA_
FNDA:2,_ZSt3getILm0EJPN5sqlcc10sql_parser17DropUserStatementESt14default_deleteIS2_EEERKNSt13tuple_elementIXT_ESt5tupleIJDpT0_EEE4typeERKSA_
FNDA:0,_ZSt3getILm0EJPN5sqlcc10sql_parser18DropIndexStatementESt14default_deleteIS2_EEERKNSt13tuple_elementIXT_ESt5tupleIJDpT0_EEE4typeERKSA_
FNDA:2,_ZSt3getILm0EJPN5sqlcc10sql_parser19CreateUserStatementESt14default_deleteIS2_EEERKNSt13tuple_elementIXT_ESt5tupleIJDpT0_EEE4typeERKSA_
FNDA:0,_ZSt3getILm0EJPN5sqlcc10sql_parser20CreateIndexStatementESt14default_deleteIS2_EEERKNSt13tuple_elementIXT_ESt5tupleIJDpT0_EEE4typeERKSA_
FNDA:26,_ZSt3getILm0EJPN5sqlcc10sql_parser9StatementESt14default_deleteIS2_EEERKNSt13tuple_elementIXT_ESt5tupleIJDpT0_EEE4typeERKSA_
FNDA:0,_ZSt3getILm0EJPNSt7__cxx1112basic_stringIcSt11char_traitsIcESaIcEEESt14default_deleteIS5_EEERKNSt13tuple_elementIXT_ESt5tupleIJDpT0_EEE4typeERKSD_
FNDA:0,_ZSt3getILm0EJPNSt7__cxx1118basic_stringstreamIcSt11char_traitsIcESaIcEEESt14default_deleteIS5_EEERKNSt13tuple_elementIXT_ESt5tupleIJDpT0_EEE4typeERKSD_
FNDA:0,_ZNSt10_Head_baseILm0EPN5sqlcc10sql_parser12UseStatementELb0EEC2Ev
FNDA:0,_ZNSt10_Head_baseILm0EPN5sqlcc10sql_parser13DropStatementELb0EEC2Ev
FNDA:0,_ZNSt10_Head_baseILm0EPN5sqlcc10sql_parser13ShowStatementELb0EEC2Ev
FNDA:1,_ZNSt10_Head_baseILm0EPN5sqlcc10sql_parser14AlterStatementELb0EEC2Ev
FNDA:3,_ZNSt10_Head_baseILm0EPN5sqlcc10sql_parser14GrantStatementELb0EEC2Ev
FNDA:2,_ZNSt10_Head_baseILm0EPN5sqlcc10sql_parser15CreateStatementELb0EEC2Ev
FNDA:0,_ZNSt10_Head_baseILm0EPN5sqlcc10sql_parser15DeleteStatementELb0EEC2Ev
FNDA:0,_ZNSt10_Head_baseILm0EPN5sqlcc10sql_parser15InsertStatementELb0EEC2Ev
FNDA:3,_ZNSt10_Head_baseILm0EPN5sqlcc10sql_parser15RevokeStatementELb0EEC2Ev
FNDA:0,_ZNSt10_Head_baseILm0EPN5sqlcc10sql_parser15SelectStatementELb0EEC2Ev
FNDA:0,_ZNSt10_Head_baseILm0EPN5sqlcc10sql_parser15UpdateStatementELb0EEC2Ev
FNDA:2,_ZNSt10_Head_baseILm0EPN5sqlcc10sql_parser17DropUserStatementELb0EEC2Ev
FNDA:0,_ZNSt10_Head_baseILm0EPN5sqlcc10sql_parser18DropIndexStatementELb0EEC2Ev
FNDA:2,_ZNSt10_Head_baseILm0EPN5sqlcc10sql_parser19CreateUserStatementELb0EEC2Ev
FNDA:0,_ZNSt10_Head_baseILm0EPN5sqlcc10sql_parser20CreateIndexStatementELb0EEC2Ev
FNDA:2,_ZNSt10_Head_baseILm0EPN5sqlcc10sql_parser9StatementELb0EEC2Ev
FNDA:59,_ZNSt10_Head_baseILm0EPNSt7__cxx1112basic_stringIcSt11char_traitsIcESaIcEEELb0EEC2Ev
FNDA:0,_ZNSt10_Head_baseILm0ERKNSt7__cxx1112basic_stringIcSt11char_traitsIcESaIcEEELb0EEC2ES7_
FNDA:11,_ZNSt10_Head_baseILm0EPN5sqlcc10sql_parser9StatementELb0EEC2IRS3_EEOT_
FNDA:0,_ZNSt4pairIKNSt7__cxx1112basic_stringIcSt11char_traitsIcESaIcEEES5_EC2IJRS6_EJEEESt21piecewise_construct_tSt5tupleIJDpT_EESB_IJDpT0_EE
FNDA:0,_ZNSt4pairIKNSt7__cxx1112basic_stringIcSt11char_traitsIcESaIcEEES5_EC2IJRS6_EJLm0EEJEJEEERSt5tupleIJDpT_EERSA_IJDpT1_EESt12_Index_tupleIJXspT0_EEESJ_IJXspT2_EEE
FNDA:0,_ZNSt10_Head_baseILm0EPN5sqlcc10sql_parser12UseStatementELb0EE7_M_headERS4_
FNDA:0,_ZNSt10_Head_baseILm0EPN5sqlcc10sql_parser13DropStatementELb0EE7_M_headERS4_
FNDA:0,_ZNSt10_Head_baseILm0EPN5sqlcc10sql_parser13ShowStatementELb0EE7_M_headERS4_
FNDA:6,_ZNSt10_Head_baseILm0EPN5sqlcc10sql_parser14AlterStatementELb0EE7_M_headERS4_
FNDA:12,_ZNSt10_Head_baseILm0EPN5sqlcc10sql_parser14GrantStatementELb0EE7_M_headERS4_
FNDA:12,_ZNSt10_Head_baseILm0EPN5sqlcc10sql_parser15CreateStatementELb0EE7_M_headERS4_
FNDA:0,_ZNSt10_Head_baseILm0EPN5sqlcc10sql_parser15DeleteStatementELb0EE7_M_headERS4_
FNDA:0,_ZNSt10_Head_baseILm0EPN5sqlcc10sql_parser15InsertStatementELb0EE7_M_headERS4_
FNDA:12,_ZNSt10_Head_baseILm0EPN5sqlcc10sql_parser15RevokeStatementELb0EE7_M_headERS4_
FNDA:0,_ZNSt10_Head_baseILm0EPN5sqlcc10sql_parser15SelectStatementELb0EE7_M_headERS4_
FNDA:0,_ZNSt10_Head_baseILm0EPN5sqlcc10sql_parser15UpdateStatementELb0EE7_M_headERS4_
FNDA:8,_ZNSt10_Head_baseILm0EPN5sqlcc10sql_parser17DropUserStatementELb0EE7_M_headERS4_
FNDA:0,_ZNSt10_Head_baseILm0EPN5sqlcc10sql_parser18DropIndexStatementELb0EE7_M_headERS4_
FNDA:8,_ZNSt10_Head_baseILm0EPN5sqlcc10sql_parser19CreateUserStatementELb0EE7_M_headERS4_
FNDA:0,_ZNSt10_Head_baseILm0EPN5sqlcc10sql_parser20CreateIndexStatementELb0EE7_M_headERS4_
FNDA:41,_ZNSt10_Head_baseILm0EPN5sqlcc10sql_parser9StatementELb0EE7_M_headERS4_
FNDA:184,_ZNSt10_Head_baseILm0EPNSt7__cxx1112basic_stringIcSt11char_traitsIcESaIcEEELb0EE7_M_headERS7_
FNDA:0,_ZNSt10_Head_baseILm0EPNSt7__cxx1118basic_stringstreamIcSt11char_traitsIcESaIcEEELb0EE7_M_headERS7_
FNDA:0,_ZNSt10_Head_baseILm0ERKNSt7__cxx1112basic_stringIcSt11char_traitsIcESaIcEEELb0EE7_M_headERS8_
FNDA:0,_ZNSt10_Head_baseILm0EPN5sqlcc10sql_parser13ShowStatementELb0EE7_M_headERKS4_
FNDA:14,_ZNSt10_Head_baseILm0EPN5sqlcc10sql_parser14GrantStatementELb0EE7_M_headERKS4_
FNDA:1,_ZNSt10_Head_baseILm0EPN5sqlcc10sql_parser15CreateStatementELb0EE7_M_headERKS4_
FNDA:0,_ZNSt10_Head_baseILm0EPN5sqlcc10sql_parser15DeleteStatementELb0EE7_M_headERKS4_
FNDA:0,_ZNSt10_Head_baseILm0EPN5sqlcc10sql_parser15InsertStatementELb0EE7_M_headERKS4_
FNDA:14,_ZNSt10_Head_baseILm0EPN5sqlcc10sql_parser15RevokeStatementELb0EE7_M_headERKS4_
FNDA:0,_ZNSt10_Head_baseILm0EPN5sqlcc10sql_parser15SelectStatementELb0EE7_M_headERKS4_
FNDA:0,_ZNSt10_Head_baseILm0EPN5sqlcc10sql_parser15UpdateStatementELb0EE7_M_headERKS4_
FNDA:2,_ZNSt10_Head_baseILm0EPN5sqlcc10sql_parser17DropUserStatementELb0EE7_M_headERKS4_
FNDA:0,_ZNSt10_Head_baseILm0EPN5sqlcc10sql_parser18DropIndexStatementELb0EE7_M_headERKS4_
FNDA:2,_ZNSt10_Head_baseILm0EPN5sqlcc10sql_parser19CreateUserStatementELb0EE7_M_headERKS4_
FNDA:0,_ZNSt10_Head_baseILm0EPN5sqlcc10sql_parser20CreateIndexStatementELb0EE7_M_headERKS4_
FNDA:26,_ZNSt10_Head_baseILm0EPN5sqlcc10sql_parser9StatementELb0EE7_M_headERKS4_
FNDA:0,_ZNSt10_Head_baseILm0EPNSt7__cxx1112basic_stringIcSt11char_traitsIcESaIcEEELb0EE7_M_headERKS7_
FNDA:0,_ZNSt10_Head_baseILm0EPNSt7__cxx1118basic_stringstreamIcSt11char_traitsIcESaIcEEELb0EE7_M_headERKS7_
FNDA:0,_ZNSt11_Tuple_implILm0EJPN5sqlcc10sql_parser12UseStatementESt14default_deleteIS2_EEE7_M_headERS6_
FNDA:0,_ZNSt11_Tuple_implILm0EJPN5sqlcc10sql_parser13DropStatementESt14default_deleteIS2_EEE7_M_headERS6_
FNDA:0,_ZNSt11_Tuple_implILm0EJPN5sqlcc10sql_parser13ShowStatementESt14default_deleteIS2_EEE7_M_headERS6_
FNDA:6,_ZNSt11_Tuple_implILm0EJPN5sqlcc10sql_parser14AlterStatementESt14default_deleteIS2_EEE7_M_headERS6_
FNDA:12,_ZNSt11_Tuple_implILm0EJPN5sqlcc10sql_parser14GrantStatementESt14default_deleteIS2_EEE7_M_headERS6_
FNDA:12,_ZNSt11_Tuple_implILm0EJPN5sqlcc10sql_parser15CreateStatementESt14default_deleteIS2_EEE7_M_headERS6_
FNDA:0,_ZNSt11_Tuple_implILm0EJPN5sqlcc10sql_parser15DeleteStatementESt14default_deleteIS2_EEE7_M_headERS6_
FNDA:0,_ZNSt11_Tuple_implILm0EJPN5sqlcc10sql_parser15InsertStatementESt14default_deleteIS2_EEE7_M_headERS6_
FNDA:12,_ZNSt11_Tuple_implILm0EJPN5sqlcc10sql_parser15RevokeStatementESt14default_deleteIS2_EEE7_M_headERS6_
FNDA:0,_ZNSt11_Tuple_implILm0EJPN5sqlcc10sql_parser15SelectStatementESt14default_deleteIS2_EEE7_M_headERS6_
FNDA:0,_ZNSt11_Tuple_implILm0EJPN5sqlcc10sql_parser15UpdateStatementESt14default_deleteIS2_EEE7_M_headERS6_
FNDA:8,_ZNSt11_Tuple_implILm0EJPN5sqlcc10sql_parser17DropUserStatementESt14default_deleteIS2_EEE7_M_headERS6_
FNDA:0,_ZNSt11_Tuple_implILm0EJPN5sqlcc10sql_parser18DropIndexStatementESt14default_deleteIS2_EEE7_M_headERS6_
FNDA:8,_ZNSt11_Tuple_implILm0EJPN5sqlcc10sql_parser19CreateUserStatementESt14default_deleteIS2_EEE7_M_headERS6_
FNDA:0,_ZNSt11_Tuple_implILm0EJPN5sqlcc10sql_parser20CreateIndexStatementESt14default_deleteIS2_EEE7_M_headERS6_
FNDA:41,_ZNSt11_Tuple_implILm0EJPN5sqlcc10sql_parser9StatementESt14default_deleteIS2_EEE7_M_headERS6_
FNDA:184,_ZNSt11_Tuple_implILm0EJPNSt7__cxx1112basic_stringIcSt11char_traitsIcESaIcEEESt14default_deleteIS5_EEE7_M_headERS9_
FNDA:0,_ZNSt11_Tuple_implILm0EJPNSt7__cxx1118basic_stringstreamIcSt11char_traitsIcESaIcEEESt14default_deleteIS5_EEE7_M_headERS9_
FNDA:0,_ZNSt11_Tuple_implILm0EJPN5sqlcc10sql_parser13ShowStatementESt14default_deleteIS2_EEE7_M_headERKS6_
FNDA:14,_ZNSt11_Tuple_implILm0EJPN5sqlcc10sql_parser14GrantStatementESt14default_deleteIS2_EEE7_M_headERKS6_
FNDA:1,_ZNSt11_Tuple_implILm0EJPN5sqlcc10sql_parser15CreateStatementESt14default_deleteIS2_EEE7_M_headERKS6_
FNDA:0,_ZNSt11_Tuple_implILm0EJPN5sqlcc10sql_parser15DeleteStatementESt14default_deleteIS2_EEE7_M_headERKS6_
FNDA:0,_ZNSt11_Tuple_implILm0EJPN5sqlcc10sql_parser15InsertStatementESt14default_deleteIS2_EEE7_M_headERKS6_
FNDA:14,_ZNSt11_Tuple_implILm0EJPN5sqlcc10sql_parser15RevokeStatementESt14default_deleteIS2_EEE7_M_headERKS6_
FNDA:0,_ZNSt11_Tuple_implILm0EJPN5sqlcc10sql_parser15SelectStatementESt14default_deleteIS2_EEE7_M_headERKS6_
FNDA:0,_ZNSt11_Tuple_implILm0EJPN5sqlcc10sql_parser15UpdateStatementESt14default_deleteIS2_EEE7_M_headERKS6_
FNDA:2,_ZNSt11_Tuple_implILm0EJPN5sqlcc10sql_parser17DropUserStatementESt14default_deleteIS2_EEE7_M_headERKS6_
FNDA:0,_ZNSt11_Tuple_implILm0EJPN5sqlcc10sql_parser18DropIndexStatementESt14default_deleteIS2_EEE7_M_headERKS6_
FNDA:2,_ZNSt11_Tuple_implILm0EJPN5sqlcc10sql_parser19CreateUserStatementESt14default_deleteIS2_EEE7_M_headERKS6_
FNDA:0,_ZNSt11_Tuple_implILm0EJPN5sqlcc10sql_parser20CreateIndexStatementESt14default_deleteIS2_EEE7_M_headERKS6_
FNDA:26,_ZNSt11_Tuple_implILm0EJPN5sqlcc10sql_parser9StatementESt14default_deleteIS2_EEE7_M_headERKS6_
FNDA:0,_ZNSt11_Tuple_implILm0EJPNSt7__cxx1112basic_stringIcSt11char_traitsIcESaIcEEESt14default_deleteIS5_EEE7_M_headERKS9_
FNDA:0,_ZNSt11_Tuple_implILm0EJPNSt7__cxx1118basic_stringstreamIcSt11char_traitsIcESaIcEEESt14default_deleteIS5_EEE7_M_headERKS9_
FNDA:0,_ZNSt11_Tuple_implILm0EJPN5sqlcc10sql_parser12UseStatementESt14default_deleteIS2_EEEC2Ev
FNDA:0,_ZNSt11_Tuple_implILm0EJPN5sqlcc10sql_parser13DropStatementESt14default_deleteIS2_EEEC2Ev
FNDA:0,_ZNSt11_Tuple_implILm0EJPN5sqlcc10sql_parser13ShowStatementESt14default_deleteIS2_EEEC2Ev
FNDA:1,_ZNSt11_Tuple_implILm0EJPN5sqlcc10sql_parser14AlterStatementESt14default_deleteIS2_EEEC2Ev
FNDA:3,_ZNSt11_Tuple_implILm0EJPN5sqlcc10sql_parser14GrantStatementESt14default_deleteIS2_EEEC2Ev
FNDA:2,_ZNSt11_Tuple_implILm0EJPN5sqlcc10sql_parser15CreateStatementESt14default_deleteIS2_EEEC2Ev
FNDA:0,_ZNSt11_Tuple_implILm0EJPN5sqlcc10sql_parser15DeleteStatementESt14default_deleteIS2_EEEC2Ev
FNDA:0,_ZNSt11_Tuple_implILm0EJPN5sqlcc10sql_parser15InsertStatementESt14default_deleteIS2_EEEC2Ev
FNDA:3,_ZNSt11_Tuple_implILm0EJPN5sqlcc10sql_parser15RevokeStatementESt14default_deleteIS2_EEEC2Ev
FNDA:0,_ZNSt11_Tuple_implILm0EJPN5sqlcc10sql_parser15SelectStatementESt14default_deleteIS2_EEEC2Ev
FNDA:0,_ZNSt11_Tuple_implILm0EJPN5sqlcc10sql_parser15UpdateStatementESt14default_deleteIS2_EEEC2Ev
FNDA:2,_ZNSt11_Tuple_implILm0EJPN5sqlcc10sql_parser17DropUserStatementESt14default_deleteIS2_EEEC2Ev
FNDA:0,_ZNSt11_Tuple_implILm0EJPN5sqlcc10sql_parser18DropIndexStatementESt14default_deleteIS2_EEEC2Ev
FNDA:2,_ZNSt11_Tuple_implILm0EJPN5sqlcc10sql_parser19CreateUserStatementESt14default_deleteIS2_EEEC2Ev
FNDA:0,_ZNSt11_Tuple_implILm0EJPN5sqlcc10sql_parser20CreateIndexStatementESt14default_deleteIS2_EEEC2Ev
FNDA:2,_ZNSt11_Tuple_implILm0EJPN5sqlcc10sql_parser9StatementESt14default_deleteIS2_EEEC2Ev
FNDA:59,_ZNSt11_Tuple_implILm0EJPNSt7__cxx1112basic_stringIcSt11char_traitsIcESaIcEEESt14default_deleteIS5_EEEC2Ev
FNDA:0,_ZNSt11_Tuple_implILm0EJPN5sqlcc10sql_parser9StatementESt14default_deleteIS2_EEEC2IRS3_JS4_INS1_12UseStatementEEEvEEOT_DpOT0_
FNDA:0,_ZNSt11_Tuple_implILm0EJPN5sqlcc10sql_parser9StatementESt14default_deleteIS2_EEEC2IRS3_JS4_INS1_13ShowStatementEEEvEEOT_DpOT0_
FNDA:1,_ZNSt11_Tuple_implILm0EJPN5sqlcc10sql_parser9StatementESt14default_deleteIS2_EEEC2IRS3_JS4_INS1_14AlterStatementEEEvEEOT_DpOT0_
FNDA:3,_ZNSt11_Tuple_implILm0EJPN5sqlcc10sql_parser9StatementESt14default_deleteIS2_EEEC2IRS3_JS4_INS1_14GrantStatementEEEvEEOT_DpOT0_
FNDA:0,_ZNSt11_Tuple_implILm0EJPN5sqlcc10sql_parser9StatementESt14default_deleteIS2_EEEC2IRS3_JS4_INS1_15DeleteStatementEEEvEEOT_DpOT0_
FNDA:0,_ZNSt11_Tuple_implILm0EJPN5sqlcc10sql_parser9StatementESt14default_deleteIS2_EEEC2IRS3_JS4_INS1_15InsertStatementEEEvEEOT_DpOT0_
FNDA:3,_ZNSt11_Tuple_implILm0EJPN5sqlcc10sql_parser9StatementESt14default_deleteIS2_EEEC2IRS3_JS4_INS1_15RevokeStatementEEEvEEOT_DpOT0_
FNDA:0,_ZNSt11_Tuple_implILm0EJPN5sqlcc10sql_parser9StatementESt14default_deleteIS2_EEEC2IRS3_JS4_INS1_15SelectStatementEEEvEEOT_DpOT0_
FNDA:0,_ZNSt11_Tuple_implILm0EJPN5sqlcc10sql_parser9StatementESt14default_deleteIS2_EEEC2IRS3_JS4_INS1_15UpdateStatementEEEvEEOT_DpOT0_
FNDA:2,_ZNSt11_Tuple_implILm0EJPN5sqlcc10sql_parser9StatementESt14default_deleteIS2_EEEC2IRS3_JS4_INS1_17DropUserStatementEEEvEEOT_DpOT0_
FNDA:2,_ZNSt11_Tuple_implILm0EJPN5sqlcc10sql_parser9StatementESt14default_deleteIS2_EEEC2IRS3_JS4_INS1_19CreateUserStatementEEEvEEOT_DpOT0_
FNDA:0,_ZNSt11_Tuple_implILm0EJPN5sqlcc10sql_parser12UseStatementESt14default_deleteIS2_EEEC2EOS6_
FNDA:0,_ZNSt11_Tuple_implILm0EJPN5sqlcc10sql_parser13DropStatementESt14default_deleteIS2_EEEC2EOS6_
FNDA:1,_ZNSt11_Tuple_implILm0EJPN5sqlcc10sql_parser14AlterStatementESt14default_deleteIS2_EEEC2EOS6_
FNDA:2,_ZNSt11_Tuple_implILm0EJPN5sqlcc10sql_parser15CreateStatementESt14default_deleteIS2_EEEC2EOS6_
FNDA:0,_ZNSt11_Tuple_implILm0EJPN5sqlcc10sql_parser15DeleteStatementESt14default_deleteIS2_EEEC2EOS6_
FNDA:0,_ZNSt11_Tuple_implILm0EJPN5sqlcc10sql_parser15InsertStatementESt14default_deleteIS2_EEEC2EOS6_
FNDA:0,_ZNSt11_Tuple_implILm0EJPN5sqlcc10sql_parser15UpdateStatementESt14default_deleteIS2_EEEC2EOS6_
FNDA:0,_ZNSt11_Tuple_implILm0EJPN5sqlcc10sql_parser18DropIndexStatementESt14default_deleteIS2_EEEC2EOS6_
FNDA:0,_ZNSt11_Tuple_implILm0EJPN5sqlcc10sql_parser20CreateIndexStatementESt14default_deleteIS2_EEEC2EOS6_
FNDA:13,_ZNSt11_Tuple_implILm0EJPN5sqlcc10sql_parser9StatementESt14default_deleteIS2_EEEC2EOS6_
FNDA:0,_ZNSt11_Tuple_implILm0EJRKNSt7__cxx1112basic_stringIcSt11char_traitsIcESaIcEEEEE7_M_headERS8_
FNDA:0,_ZNSt11_Tuple_implILm1EJSt14default_deleteIN5sqlcc10sql_parser12UseStatementEEEE7_M_headERS5_
FNDA:0,_ZNSt11_Tuple_implILm1EJSt14default_deleteIN5sqlcc10sql_parser13DropStatementEEEE7_M_headERS5_
FNDA:0,_ZNSt11_Tuple_implILm1EJSt14default_deleteIN5sqlcc10sql_parser13ShowStatementEEEE7_M_headERS5_
FNDA:1,_ZNSt11_Tuple_implILm1EJSt14default_deleteIN5sqlcc10sql_parser14AlterStatementEEEE7_M_headERS5_
FNDA:3,_ZNSt11_Tuple_implILm1EJSt14default_deleteIN5sqlcc10sql_parser14GrantStatementEEEE7_M_headERS5_
FNDA:0,_ZNSt11_Tuple_implILm1EJSt14default_deleteIN5sqlcc10sql_parser15CreateStatementEEEE7_M_headERS5_
FNDA:0,_ZNSt11_Tuple_implILm1EJSt14default_deleteIN5sqlcc10sql_parser15DeleteStatementEEEE7_M_headERS5_
FNDA:0,_ZNSt11_Tuple_implILm1EJSt14default_deleteIN5sqlcc10sql_parser15InsertStatementEEEE7_M_headERS5_
FNDA:3,_ZNSt11_Tuple_implILm1EJSt14default_deleteIN5sqlcc10sql_parser15RevokeStatementEEEE7_M_headERS5_
FNDA:0,_ZNSt11_Tuple_implILm1EJSt14default_deleteIN5sqlcc10sql_parser15SelectStatementEEEE7_M_headERS5_
FNDA:0,_ZNSt11_Tuple_implILm1EJSt14default_deleteIN5sqlcc10sql_parser15UpdateStatementEEEE7_M_headERS5_
FNDA:2,_ZNSt11_Tuple_implILm1EJSt14default_deleteIN5sqlcc10sql_parser17DropUserStatementEEEE7_M_headERS5_
FNDA:0,_ZNSt11_Tuple_implILm1EJSt14default_deleteIN5sqlcc10sql_parser18DropIndexStatementEEEE7_M_headERS5_
FNDA:2,_ZNSt11_Tuple_implILm1EJSt14default_deleteIN5sqlcc10sql_parser19CreateUserStatementEEEE7_M_headERS5_
FNDA:0,_ZNSt11_Tuple_implILm1EJSt14default_deleteIN5sqlcc10sql_parser20CreateIndexStatementEEEE7_M_headERS5_
FNDA:13,_ZNSt11_Tuple_implILm1EJSt14default_deleteIN5sqlcc10sql_parser9StatementEEEE7_M_headERS5_
FNDA:0,_ZNSt11_Tuple_implILm1EJSt14default_deleteINSt7__cxx1112basic_stringIcSt11char_traitsIcESaIcEEEEEE7_M_headERS8_
FNDA:0,_ZNSt11_Tuple_implILm1EJSt14default_deleteINSt7__cxx1118basic_stringstreamIcSt11char_traitsIcESaIcEEEEEE7_M_headERS8_
FNDA:0,_ZNSt11_Tuple_implILm1EJSt14default_deleteIN5sqlcc10sql_parser12UseStatementEEEEC2Ev
FNDA:0,_ZNSt11_Tuple_implILm1EJSt14default_deleteIN5sqlcc10sql_parser13DropStatementEEEEC2Ev
FNDA:0,_ZNSt11_Tuple_implILm1EJSt14default_deleteIN5sqlcc10sql_parser13ShowStatementEEEEC2Ev
FNDA:1,_ZNSt11_Tuple_implILm1EJSt14default_deleteIN5sqlcc10sql_parser14AlterStatementEEEEC2Ev
FNDA:3,_ZNSt11_Tuple_implILm1EJSt14default_deleteIN5sqlcc10sql_parser14GrantStatementEEEEC2Ev
FNDA:2,_ZNSt11_Tuple_implILm1EJSt14default_deleteIN5sqlcc10sql_parser15CreateStatementEEEEC2Ev
FNDA:0,_ZNSt11_Tuple_implILm1EJSt14default_deleteIN5sqlcc10sql_parser15DeleteStatementEEEEC2Ev
FNDA:0,_ZNSt11_Tuple_implILm1EJSt14default_deleteIN5sqlcc10sql_parser15InsertStatementEEEEC2Ev
FNDA:3,_ZNSt11_Tuple_implILm1EJSt14default_deleteIN5sqlcc10sql_parser15RevokeStatementEEEEC2Ev
FNDA:0,_ZNSt11_Tuple_implILm1EJSt14default_deleteIN5sqlcc10sql_parser15SelectStatementEEEEC2Ev
FNDA:0,_ZNSt11_Tuple_implILm1EJSt14default_deleteIN5sqlcc10sql_parser15UpdateStatementEEEEC2Ev
FNDA:2,_ZNSt11_Tuple_implILm1EJSt14default_deleteIN5sqlcc10sql_parser17DropUserStatementEEEEC2Ev
FNDA:0,_ZNSt11_Tuple_implILm1EJSt14default_deleteIN5sqlcc10sql_parser18DropIndexStatementEEEEC2Ev
FNDA:2,_ZNSt11_Tuple_implILm1EJSt14default_deleteIN5sqlcc10sql_parser19CreateUserStatementEEEEC2Ev
FNDA:0,_ZNSt11_Tuple_implILm1EJSt14default_deleteIN5sqlcc10sql_parser20CreateIndexStatementEEEEC2Ev
FNDA:2,_ZNSt11_Tuple_implILm1EJSt14default_deleteIN5sqlcc10sql_parser9StatementEEEEC2Ev
FNDA:59,_ZNSt11_Tuple_implILm1EJSt14default_deleteINSt7__cxx1112basic_stringIcSt11char_traitsIcESaIcEEEEEEC2Ev
FNDA:0,_ZNSt11_Tuple_implILm0EJRKNSt7__cxx1112basic_stringIcSt11char_traitsIcESaIcEEEEEC2ES7_
FNDA:0,_ZNSt11_Tuple_implILm1EJSt14default_deleteIN5sqlcc10sql_parser9StatementEEEEC2IS0_INS2_12UseStatementEEEEOT_
FNDA:0,_ZNSt11_Tuple_implILm1EJSt14default_deleteIN5sqlcc10sql_parser9StatementEEEEC2IS0_INS2_13ShowStatementEEEEOT_
FNDA:1,_ZNSt11_Tuple_implILm1EJSt14default_deleteIN5sqlcc10sql_parser9StatementEEEEC2IS0_INS2_14AlterStatementEEEEOT_
FNDA:3,_ZNSt11_Tuple_implILm1EJSt14default_deleteIN5sqlcc10sql_parser9StatementEEEEC2IS0_INS2_14GrantStatementEEEEOT_
FNDA:0,_ZNSt11_Tuple_implILm1EJSt14default_deleteIN5sqlcc10sql_parser9StatementEEEEC2IS0_INS2_15DeleteStatementEEEEOT_
FNDA:0,_ZNSt11_Tuple_implILm1EJSt14default_deleteIN5sqlcc10sql_parser9StatementEEEEC2IS0_INS2_15InsertStatementEEEEOT_
FNDA:3,_ZNSt11_Tuple_implILm1EJSt14default_deleteIN5sqlcc10sql_parser9StatementEEEEC2IS0_INS2_15RevokeStatementEEEEOT_
FNDA:0,_ZNSt11_Tuple_implILm1EJSt14default_deleteIN5sqlcc10sql_parser9StatementEEEEC2IS0_INS2_15SelectStatementEEEEOT_
FNDA:0,_ZNSt11_Tuple_implILm1EJSt14default_deleteIN5sqlcc10sql_parser9StatementEEEEC2IS0_INS2_15UpdateStatementEEEEOT_
FNDA:2,_ZNSt11_Tuple_implILm1EJSt14default_deleteIN5sqlcc10sql_parser9StatementEEEEC2IS0_INS2_17DropUserStatementEEEEOT_
FNDA:2,_ZNSt11_Tuple_implILm1EJSt14default_deleteIN5sqlcc10sql_parser9StatementEEEEC2IS0_INS2_19CreateUserStatementEEEEOT_
FNDA:0,_ZNSt11_Tuple_implILm0EJRKNSt7__cxx1112basic_stringIcSt11char_traitsIcESaIcEEEEEC2EOS8_
FNDA:0,_ZNSt11_Tuple_implILm1EJSt14default_deleteIN5sqlcc10sql_parser12UseStatementEEEEC2EOS5_
FNDA:0,_ZNSt11_Tuple_implILm1EJSt14default_deleteIN5sqlcc10sql_parser13DropStatementEEEEC2EOS5_
FNDA:1,_ZNSt11_Tuple_implILm1EJSt14default_deleteIN5sqlcc10sql_parser14AlterStatementEEEEC2EOS5_
FNDA:2,_ZNSt11_Tuple_implILm1EJSt14default_deleteIN5sqlcc10sql_parser15CreateStatementEEEEC2EOS5_
FNDA:0,_ZNSt11_Tuple_implILm1EJSt14default_deleteIN5sqlcc10sql_parser15DeleteStatementEEEEC2EOS5_
FNDA:0,_ZNSt11_Tuple_implILm1EJSt14default_deleteIN5sqlcc10sql_parser15InsertStatementEEEEC2EOS5_
FNDA:0,_ZNSt11_Tuple_implILm1EJSt14default_deleteIN5sqlcc10sql_parser15UpdateStatementEEEEC2EOS5_
FNDA:0,_ZNSt11_Tuple_implILm1EJSt14default_deleteIN5sqlcc10sql_parser18DropIndexStatementEEEEC2EOS5_
FNDA:0,_ZNSt11_Tuple_implILm1EJSt14default_deleteIN5sqlcc10sql_parser20CreateIndexStatementEEEEC2EOS5_
FNDA:13,_ZNSt11_Tuple_implILm1EJSt14default_deleteIN5sqlcc10sql_parser9StatementEEEEC2EOS5_
FNDA:0,_ZNSt10_Head_baseILm1ESt14default_deleteIN5sqlcc10sql_parser12UseStatementEELb1EEC2Ev
FNDA:0,_ZNSt10_Head_baseILm1ESt14default_deleteIN5sqlcc10sql_parser13DropStatementEELb1EEC2Ev
FNDA:0,_ZNSt10_Head_baseILm1ESt14default_deleteIN5sqlcc10sql_parser13ShowStatementEELb1EEC2Ev
FNDA:1,_ZNSt10_Head_baseILm1ESt14default_deleteIN5sqlcc10sql_parser14AlterStatementEELb1EEC2Ev
FNDA:3,_ZNSt10_Head_baseILm1ESt14default_deleteIN5sqlcc10sql_parser14GrantStatementEELb1EEC2Ev
FNDA:2,_ZNSt10_Head_baseILm1ESt14default_deleteIN5sqlcc10sql_parser15CreateStatementEELb1EEC2Ev
FNDA:0,_ZNSt10_Head_baseILm1ESt14default_deleteIN5sqlcc10sql_parser15DeleteStatementEELb1EEC2Ev
FNDA:0,_ZNSt10_Head_baseILm1ESt14default_deleteIN5sqlcc10sql_parser15InsertStatementEELb1EEC2Ev
FNDA:3,_ZNSt10_Head_baseILm1ESt14default_deleteIN5sqlcc10sql_parser15RevokeStatementEELb1EEC2Ev
FNDA:0,_ZNSt10_Head_baseILm1ESt14default_deleteIN5sqlcc10sql_parser15SelectStatementEELb1EEC2Ev
FNDA:0,_ZNSt10_Head_baseILm1ESt14default_deleteIN5sqlcc10sql_parser15UpdateStatementEELb1EEC2Ev
FNDA:2,_ZNSt10_Head_baseILm1ESt14default_deleteIN5sqlcc10sql_parser17DropUserStatementEELb1EEC2Ev
FNDA:0,_ZNSt10_Head_baseILm1ESt14default_deleteIN5sqlcc10sql_parser18DropIndexStatementEELb1EEC2Ev
FNDA:2,_ZNSt10_Head_baseILm1ESt14default_deleteIN5sqlcc10sql_parser19CreateUserStatementEELb1EEC2Ev
FNDA:0,_ZNSt10_Head_baseILm1ESt14default_deleteIN5sqlcc10sql_parser20CreateIndexStatementEELb1EEC2Ev
FNDA:2,_ZNSt10_Head_baseILm1ESt14default_deleteIN5sqlcc10sql_parser9StatementEELb1EEC2Ev
FNDA:59,_ZNSt10_Head_baseILm1ESt14default_deleteINSt7__cxx1112basic_stringIcSt11char_traitsIcESaIcEEEELb1EEC2Ev
FNDA:0,_ZNSt5tupleIJRKNSt7__cxx1112basic_stringIcSt11char_traitsIcESaIcEEEEEC2ILb1ELb1EEES7_
FNDA:0,_ZNSt5tupleIJRKNSt7__cxx1112basic_stringIcSt11char_traitsIcESaIcEEEEEC2EOS8_
FNDA:0,_ZNSt10_Head_baseILm1ESt14default_deleteIN5sqlcc10sql_parser9StatementEELb1EEC2IS0_INS2_12UseStatementEEEEOT_
FNDA:0,_ZNSt10_Head_baseILm1ESt14default_deleteIN5sqlcc10sql_parser9StatementEELb1EEC2IS0_INS2_13ShowStatementEEEEOT_
FNDA:1,_ZNSt10_Head_baseILm1ESt14default_deleteIN5sqlcc10sql_parser9StatementEELb1EEC2IS0_INS2_14AlterStatementEEEEOT_
FNDA:3,_ZNSt10_Head_baseILm1ESt14default_deleteIN5sqlcc10sql_parser9StatementEELb1EEC2IS0_INS2_14GrantStatementEEEEOT_
FNDA:0,_ZNSt10_Head_baseILm1ESt14default_deleteIN5sqlcc10sql_parser9StatementEELb1EEC2IS0_INS2_15DeleteStatementEEEEOT_
FNDA:0,_ZNSt10_Head_baseILm1ESt14default_deleteIN5sqlcc10sql_parser9StatementEELb1EEC2IS0_INS2_15InsertStatementEEEEOT_
FNDA:3,_ZNSt10_Head_baseILm1ESt14default_deleteIN5sqlcc10sql_parser9StatementEELb1EEC2IS0_INS2_15RevokeStatementEEEEOT_
FNDA:0,_ZNSt10_Head_baseILm1ESt14default_deleteIN5sqlcc10sql_parser9StatementEELb1EEC2IS0_INS2_15SelectStatementEEEEOT_
FNDA:0,_ZNSt10_Head_baseILm1ESt14default_deleteIN5sqlcc10sql_parser9StatementEELb1EEC2IS0_INS2_15UpdateStatementEEEEOT_
FNDA:2,_ZNSt10_Head_baseILm1ESt14default_deleteIN5sqlcc10sql_parser9StatementEELb1EEC2IS0_INS2_17DropUserStatementEEEEOT_
FNDA:2,_ZNSt10_Head_baseILm1ESt14default_deleteIN5sqlcc10sql_parser9StatementEELb1EEC2IS0_INS2_19CreateUserStatementEEEEOT_
FNF:375
FNH:150
DA:81,74
DA:82,74
DA:91,11
DA:92,11
DA:125,24
DA:190,74
DA:191,74
DA:193,0
DA:194,0
DA:200,11
DA:201,11
DA:234,283
DA:237,59
DA:269,283
DA:272,59
DA:280,74
DA:281,74
DA:291,11
DA:293,11
DA:294,11
DA:302,16
DA:497,24
DA:503,74
DA:504,74
DA:507,0
DA:508,0
DA:509,0
DA:513,11
DA:514,11
DA:515,11
DA:527,16
DA:529,0
DA:530,16
DA:874,0
DA:876,0
DA:903,0
DA:1317,74
DA:1319,74
DA:1345,11
DA:1347,11
DA:1358,16
DA:1787,307
DA:1788,307
DA:1792,59
DA:1793,59
DA:1803,307
DA:1804,307
DA:1809,59
DA:1810,59
DA:2252,0
DA:2257,0
DA:2258,0
DA:2264,0
DA:2267,0
DA:2268,0
DA:2269,0
LF:56
LH:40
end_of_record
TN:
SF:/usr/include/c++/13/typeinfo
FN:103,104,_ZNKSt9type_info4nameEv
FN:193,210,_ZNKSt9type_infoeqERKS_
FNDA:0,_ZNKSt9type_info4nameEv
FNDA:0,_ZNKSt9type_infoeqERKS_
FNF:2
FNH:0
DA:103,0
DA:104,0
DA:193,0
DA:195,0
DA:196,0
DA:198,0
DA:199,0
DA:206,0
LF:8
LH:0
end_of_record
TN:
SF:/usr/include/x86_64-linux-gnu/c++/13/bits/c++config.h
FN:540,551,_ZSt23__is_constant_evaluatedv
FNDA:3212,_ZSt23__is_constant_evaluatedv
FNF:1
FNH:1
DA:540,3212
DA:547,3212
LF:2
LH:2
end_of_record
